; ModuleID = '/home/ylxiao_seas_upenn_edu/Roseetta/rosetta/digit-recognition/src/host/check_result.cpp'
source_filename = "/home/ylxiao_seas_upenn_edu/Roseetta/rosetta/digit-recognition/src/host/check_result.cpp"
target datalayout = "e-m:e-i8:8:32-i16:16:32-i64:64-i128:128-n32:64-S128"
target triple = "aarch64--linux-gnu"

%"class.std::ios_base::Init" = type { i8 }

@_ZStL8__ioinit = internal global %"class.std::ios_base::Init" zeroinitializer, align 1
@__dso_handle = external global i8
@.str = private unnamed_addr constant [37 x i8] c"Test %d: expected = %d, result = %d\0A\00", align 1
@.str.1 = private unnamed_addr constant [21 x i8] c"\0A\09 %d / %d correct!\0A\00", align 1
@llvm.global_ctors = appending global [1 x { i32, void ()*, i8* }] [{ i32, void ()*, i8* } { i32 65535, void ()* @_GLOBAL__sub_I_check_result.cpp, i8* null }]

define internal void @__cxx_global_var_init() #0 section ".text.startup" !dbg !1453 {
  call void @_ZNSt8ios_base4InitC1Ev(%"class.std::ios_base::Init"* @_ZStL8__ioinit), !dbg !1454
  %1 = call i32 @__cxa_atexit(void (i8*)* bitcast (void (%"class.std::ios_base::Init"*)* @_ZNSt8ios_base4InitD1Ev to void (i8*)*), i8* getelementptr inbounds (%"class.std::ios_base::Init", %"class.std::ios_base::Init"* @_ZStL8__ioinit, i32 0, i32 0), i8* @__dso_handle) #3, !dbg !1455
  ret void, !dbg !1454
}

declare !xidane.fname !1457 !xidane.function_declaration_type !1458 !xidane.function_declaration_filename !1459 void @_ZNSt8ios_base4InitC1Ev(%"class.std::ios_base::Init"*) unnamed_addr #1

; Function Attrs: nounwind
declare !xidane.fname !1460 !xidane.function_declaration_type !1458 !xidane.function_declaration_filename !1459 void @_ZNSt8ios_base4InitD1Ev(%"class.std::ios_base::Init"*) unnamed_addr #2

; Function Attrs: nounwind
declare i32 @__cxa_atexit(void (i8*)*, i8*, i8*) #3

define void @_Z13check_resultsPhPKhi(i8*, i8*, i32) #0 !dbg !1461 !xidane.fname !1469 !xidane.function_declaration_type !1470 !xidane.function_declaration_filename !1471 {
  %4 = alloca i8*, align 8
  %5 = alloca i8*, align 8
  %6 = alloca i32, align 4
  %7 = alloca i32, align 4
  %8 = alloca i32, align 4
  store i8* %0, i8** %4, align 8
  call void @llvm.dbg.declare(metadata i8** %4, metadata !1472, metadata !1473), !dbg !1474
  store i8* %1, i8** %5, align 8
  call void @llvm.dbg.declare(metadata i8** %5, metadata !1475, metadata !1473), !dbg !1476
  store i32 %2, i32* %6, align 4
  call void @llvm.dbg.declare(metadata i32* %6, metadata !1477, metadata !1473), !dbg !1478
  call void @llvm.dbg.declare(metadata i32* %7, metadata !1479, metadata !1473), !dbg !1480
  store i32 0, i32* %7, align 4, !dbg !1480
  call void @llvm.dbg.declare(metadata i32* %8, metadata !1481, metadata !1473), !dbg !1483
  store i32 0, i32* %8, align 4, !dbg !1483
  br label %9, !dbg !1484

; <label>:9:                                      ; preds = %46, %3
  %10 = load i32, i32* %8, align 4, !dbg !1485
  %11 = load i32, i32* %6, align 4, !dbg !1488
  %12 = icmp slt i32 %10, %11, !dbg !1489
  br i1 %12, label %13, label %49, !dbg !1490

; <label>:13:                                     ; preds = %9
  %14 = load i32, i32* %8, align 4, !dbg !1491
  %15 = sext i32 %14 to i64, !dbg !1494
  %16 = load i8*, i8** %4, align 8, !dbg !1494
  %17 = getelementptr inbounds i8, i8* %16, i64 %15, !dbg !1494
  %18 = load i8, i8* %17, align 1, !dbg !1494
  %19 = zext i8 %18 to i32, !dbg !1494
  %20 = load i32, i32* %8, align 4, !dbg !1495
  %21 = sext i32 %20 to i64, !dbg !1496
  %22 = load i8*, i8** %5, align 8, !dbg !1496
  %23 = getelementptr inbounds i8, i8* %22, i64 %21, !dbg !1496
  %24 = load i8, i8* %23, align 1, !dbg !1496
  %25 = zext i8 %24 to i32, !dbg !1496
  %26 = icmp ne i32 %19, %25, !dbg !1497
  br i1 %26, label %27, label %42, !dbg !1498

; <label>:27:                                     ; preds = %13
  %28 = load i32, i32* %8, align 4, !dbg !1499
  %29 = load i32, i32* %8, align 4, !dbg !1500
  %30 = sext i32 %29 to i64, !dbg !1501
  %31 = load i8*, i8** %5, align 8, !dbg !1501
  %32 = getelementptr inbounds i8, i8* %31, i64 %30, !dbg !1501
  %33 = load i8, i8* %32, align 1, !dbg !1501
  %34 = zext i8 %33 to i32, !dbg !1501
  %35 = load i32, i32* %8, align 4, !dbg !1502
  %36 = sext i32 %35 to i64, !dbg !1503
  %37 = load i8*, i8** %4, align 8, !dbg !1503
  %38 = getelementptr inbounds i8, i8* %37, i64 %36, !dbg !1503
  %39 = load i8, i8* %38, align 1, !dbg !1503
  %40 = zext i8 %39 to i32, !dbg !1503
  %41 = call i32 (i8*, ...) @printf(i8* getelementptr inbounds ([37 x i8], [37 x i8]* @.str, i32 0, i32 0), i32 %28, i32 %34, i32 %40), !dbg !1504
  br label %45, !dbg !1504

; <label>:42:                                     ; preds = %13
  %43 = load i32, i32* %7, align 4, !dbg !1505
  %44 = add nsw i32 %43, 1, !dbg !1505
  store i32 %44, i32* %7, align 4, !dbg !1505
  br label %45

; <label>:45:                                     ; preds = %42, %27
  br label %46, !dbg !1506

; <label>:46:                                     ; preds = %45
  %47 = load i32, i32* %8, align 4, !dbg !1507
  %48 = add nsw i32 %47, 1, !dbg !1507
  store i32 %48, i32* %8, align 4, !dbg !1507
  br label %9, !dbg !1509, !llvm.loop !1510

; <label>:49:                                     ; preds = %9
  %50 = load i32, i32* %7, align 4, !dbg !1512
  %51 = load i32, i32* %6, align 4, !dbg !1513
  %52 = call i32 (i8*, ...) @printf(i8* getelementptr inbounds ([21 x i8], [21 x i8]* @.str.1, i32 0, i32 0), i32 %50, i32 %51), !dbg !1514
  ret void, !dbg !1515
}

; Function Attrs: nounwind readnone
declare void @llvm.dbg.declare(metadata, metadata, metadata) #4

declare !xidane.fname !1516 !xidane.function_declaration_type !1517 !xidane.function_declaration_filename !1518 !xidane.ExternC !1519 i32 @printf(i8*, ...) #1

define internal void @_GLOBAL__sub_I_check_result.cpp() #0 section ".text.startup" !dbg !1520 {
  call void @__cxx_global_var_init(), !dbg !1522
  ret void
}

attributes #0 = { "disable-tail-calls"="false" "less-precise-fpmad"="false" "no-frame-pointer-elim"="true" "no-frame-pointer-elim-non-leaf" "no-infs-fp-math"="false" "no-jump-tables"="false" "no-nans-fp-math"="false" "no-signed-zeros-fp-math"="false" "stack-protector-buffer-size"="8" "target-cpu"="cortex-a53" "target-features"="+crc,+crypto,+neon" "unsafe-fp-math"="false" "use-soft-float"="false" }
attributes #1 = { "disable-tail-calls"="false" "less-precise-fpmad"="false" "no-frame-pointer-elim"="true" "no-frame-pointer-elim-non-leaf" "no-infs-fp-math"="false" "no-nans-fp-math"="false" "no-signed-zeros-fp-math"="false" "stack-protector-buffer-size"="8" "target-cpu"="cortex-a53" "target-features"="+crc,+crypto,+neon" "unsafe-fp-math"="false" "use-soft-float"="false" }
attributes #2 = { nounwind "disable-tail-calls"="false" "less-precise-fpmad"="false" "no-frame-pointer-elim"="true" "no-frame-pointer-elim-non-leaf" "no-infs-fp-math"="false" "no-nans-fp-math"="false" "no-signed-zeros-fp-math"="false" "stack-protector-buffer-size"="8" "target-cpu"="cortex-a53" "target-features"="+crc,+crypto,+neon" "unsafe-fp-math"="false" "use-soft-float"="false" }
attributes #3 = { nounwind }
attributes #4 = { nounwind readnone }

!llvm.dbg.cu = !{!0}
!llvm.module.flags = !{!1450, !1451}
!llvm.ident = !{!1452}

!0 = distinct !DICompileUnit(language: DW_LANG_C_plus_plus, file: !1, producer: "clang version 3.9.0 (tags/RELEASE_390/final)", isOptimized: false, runtimeVersion: 0, emissionKind: FullDebug, enums: !2, globals: !3, imports: !23)
!1 = !DIFile(filename: "/home/ylxiao_seas_upenn_edu/Roseetta/rosetta/digit-recognition/src/host/check_result.cpp", directory: "/home/ylxiao_seas_upenn_edu/Roseetta/rosetta/digit-recognition")
!2 = !{}
!3 = !{!4}
!4 = distinct !DIGlobalVariable(name: "__ioinit", linkageName: "_ZStL8__ioinit", scope: !5, file: !7, line: 74, type: !8, isLocal: true, isDefinition: true, variable: %"class.std::ios_base::Init"* @_ZStL8__ioinit)
!5 = !DINamespace(name: "std", scope: null, file: !6, line: 229)
!6 = !DIFile(filename: "/apps/xilinx/2018.2/SDK/2018.2/gnu/aarch64/lin/aarch64-linux/aarch64-linux-gnu/include/c++/7.2.1/aarch64-linux-gnu/bits/c++config.h", directory: "/home/ylxiao_seas_upenn_edu/Roseetta/rosetta/digit-recognition")
!7 = !DIFile(filename: "/apps/xilinx/2018.2/SDK/2018.2/gnu/aarch64/lin/aarch64-linux/aarch64-linux-gnu/include/c++/7.2.1/iostream", directory: "/home/ylxiao_seas_upenn_edu/Roseetta/rosetta/digit-recognition")
!8 = distinct !DICompositeType(tag: DW_TAG_class_type, name: "Init", scope: !10, file: !9, line: 601, size: 8, align: 8, elements: !11, identifier: "_ZTSNSt8ios_base4InitE")
!9 = !DIFile(filename: "/apps/xilinx/2018.2/SDK/2018.2/gnu/aarch64/lin/aarch64-linux/aarch64-linux-gnu/include/c++/7.2.1/bits/ios_base.h", directory: "/home/ylxiao_seas_upenn_edu/Roseetta/rosetta/digit-recognition")
!10 = !DICompositeType(tag: DW_TAG_class_type, name: "ios_base", scope: !5, file: !9, line: 228, size: 1728, align: 64, flags: DIFlagFwdDecl, identifier: "_ZTSSt8ios_base")
!11 = !{!12, !16, !18, !22}
!12 = !DIDerivedType(tag: DW_TAG_member, name: "_S_refcount", scope: !8, file: !9, line: 609, baseType: !13, flags: DIFlagStaticMember)
!13 = !DIDerivedType(tag: DW_TAG_typedef, name: "_Atomic_word", file: !14, line: 32, baseType: !15)
!14 = !DIFile(filename: "/apps/xilinx/2018.2/SDK/2018.2/gnu/aarch64/lin/aarch64-linux/aarch64-linux-gnu/include/c++/7.2.1/aarch64-linux-gnu/bits/atomic_word.h", directory: "/home/ylxiao_seas_upenn_edu/Roseetta/rosetta/digit-recognition")
!15 = !DIBasicType(name: "int", size: 32, align: 32, encoding: DW_ATE_signed)
!16 = !DIDerivedType(tag: DW_TAG_member, name: "_S_synced_with_stdio", scope: !8, file: !9, line: 610, baseType: !17, flags: DIFlagStaticMember)
!17 = !DIBasicType(name: "bool", size: 8, align: 8, encoding: DW_ATE_boolean)
!18 = !DISubprogram(name: "Init", scope: !8, file: !9, line: 605, type: !19, isLocal: false, isDefinition: false, scopeLine: 605, flags: DIFlagPublic | DIFlagPrototyped, isOptimized: false)
!19 = !DISubroutineType(types: !20)
!20 = !{null, !21}
!21 = !DIDerivedType(tag: DW_TAG_pointer_type, baseType: !8, size: 64, align: 64, flags: DIFlagArtificial | DIFlagObjectPointer)
!22 = !DISubprogram(name: "~Init", scope: !8, file: !9, line: 606, type: !19, isLocal: false, isDefinition: false, scopeLine: 606, flags: DIFlagPublic | DIFlagPrototyped, isOptimized: false)
!23 = !{!24, !29, !35, !40, !44, !46, !48, !50, !52, !59, !66, !73, !77, !81, !85, !94, !98, !100, !105, !111, !115, !122, !124, !128, !132, !136, !140, !142, !146, !150, !152, !156, !158, !160, !164, !168, !172, !176, !180, !182, !184, !199, !203, !207, !212, !214, !216, !220, !224, !225, !226, !227, !228, !229, !232, !238, !240, !242, !246, !248, !250, !252, !254, !256, !258, !260, !265, !269, !271, !273, !278, !280, !282, !284, !286, !288, !290, !293, !296, !298, !302, !307, !309, !311, !313, !315, !317, !319, !321, !323, !325, !327, !331, !335, !337, !339, !341, !343, !345, !347, !349, !351, !353, !355, !357, !359, !361, !363, !365, !369, !373, !377, !379, !381, !383, !385, !387, !389, !391, !393, !395, !399, !403, !407, !409, !411, !413, !418, !422, !426, !428, !430, !432, !434, !436, !438, !440, !442, !444, !446, !448, !450, !454, !458, !462, !464, !466, !468, !472, !476, !480, !482, !484, !486, !488, !490, !492, !496, !500, !502, !504, !506, !508, !512, !516, !520, !522, !524, !526, !528, !530, !532, !536, !540, !544, !546, !550, !554, !556, !558, !560, !562, !564, !566, !569, !575, !579, !582, !588, !592, !597, !599, !601, !603, !607, !615, !619, !623, !627, !631, !635, !639, !643, !647, !651, !658, !662, !666, !668, !670, !674, !679, !685, !689, !693, !695, !702, !706, !712, !714, !718, !722, !726, !730, !735, !739, !743, !744, !745, !746, !749, !750, !751, !752, !753, !754, !755, !809, !813, !829, !832, !837, !844, !849, !853, !857, !861, !865, !867, !869, !873, !879, !883, !889, !895, !897, !901, !905, !909, !913, !917, !919, !923, !927, !931, !933, !937, !941, !945, !947, !949, !953, !974, !978, !982, !986, !988, !994, !996, !1002, !1006, !1010, !1014, !1018, !1022, !1026, !1028, !1030, !1034, !1038, !1042, !1044, !1048, !1052, !1054, !1056, !1060, !1064, !1068, !1072, !1073, !1074, !1075, !1076, !1077, !1078, !1079, !1080, !1081, !1082, !1088, !1092, !1095, !1098, !1101, !1103, !1105, !1107, !1109, !1111, !1113, !1115, !1118, !1120, !1125, !1129, !1132, !1135, !1137, !1139, !1141, !1143, !1145, !1147, !1149, !1151, !1154, !1156, !1159, !1163, !1168, !1171, !1173, !1175, !1177, !1179, !1181, !1183, !1185, !1187, !1189, !1191, !1193, !1195, !1197, !1199, !1201, !1206, !1209, !1210, !1212, !1214, !1216, !1218, !1222, !1224, !1226, !1228, !1230, !1232, !1234, !1236, !1238, !1242, !1246, !1248, !1252, !1256, !1261, !1265, !1269, !1273, !1277, !1281, !1283, !1285, !1287, !1291, !1295, !1299, !1303, !1307, !1309, !1311, !1313, !1317, !1321, !1325, !1327, !1329, !1347, !1360, !1376, !1380, !1382, !1384, !1386, !1388, !1392, !1394, !1396, !1398, !1400, !1402, !1406, !1410, !1411, !1416, !1420, !1425, !1430, !1434, !1440, !1444, !1446}
!24 = !DIImportedEntity(tag: DW_TAG_imported_declaration, scope: !5, entity: !25, line: 98)
!25 = !DIDerivedType(tag: DW_TAG_typedef, name: "FILE", file: !26, line: 7, baseType: !27)
!26 = !DIFile(filename: "/apps/xilinx/2018.2/SDK/2018.2/gnu/aarch64/lin/aarch64-linux/aarch64-linux-gnu/libc/usr/include/bits/types/FILE.h", directory: "/home/ylxiao_seas_upenn_edu/Roseetta/rosetta/digit-recognition")
!27 = !DICompositeType(tag: DW_TAG_structure_type, name: "_IO_FILE", file: !28, line: 241, size: 1728, align: 64, flags: DIFlagFwdDecl, identifier: "_ZTS8_IO_FILE")
!28 = !DIFile(filename: "/apps/xilinx/2018.2/SDK/2018.2/gnu/aarch64/lin/aarch64-linux/aarch64-linux-gnu/libc/usr/include/libio.h", directory: "/home/ylxiao_seas_upenn_edu/Roseetta/rosetta/digit-recognition")
!29 = !DIImportedEntity(tag: DW_TAG_imported_declaration, scope: !5, entity: !30, line: 99)
!30 = !DIDerivedType(tag: DW_TAG_typedef, name: "fpos_t", file: !31, line: 78, baseType: !32)
!31 = !DIFile(filename: "/apps/xilinx/2018.2/SDK/2018.2/gnu/aarch64/lin/aarch64-linux/aarch64-linux-gnu/libc/usr/include/stdio.h", directory: "/home/ylxiao_seas_upenn_edu/Roseetta/rosetta/digit-recognition")
!32 = !DIDerivedType(tag: DW_TAG_typedef, name: "_G_fpos_t", file: !33, line: 26, baseType: !34)
!33 = !DIFile(filename: "/apps/xilinx/2018.2/SDK/2018.2/gnu/aarch64/lin/aarch64-linux/aarch64-linux-gnu/libc/usr/include/_G_config.h", directory: "/home/ylxiao_seas_upenn_edu/Roseetta/rosetta/digit-recognition")
!34 = !DICompositeType(tag: DW_TAG_structure_type, file: !33, line: 22, size: 128, align: 64, flags: DIFlagFwdDecl, identifier: "_ZTS9_G_fpos_t")
!35 = !DIImportedEntity(tag: DW_TAG_imported_declaration, scope: !5, entity: !36, line: 101)
!36 = !DISubprogram(name: "clearerr", scope: !31, file: !31, line: 757, type: !37, isLocal: false, isDefinition: false, flags: DIFlagPrototyped, isOptimized: false)
!37 = !DISubroutineType(types: !38)
!38 = !{null, !39}
!39 = !DIDerivedType(tag: DW_TAG_pointer_type, baseType: !25, size: 64, align: 64)
!40 = !DIImportedEntity(tag: DW_TAG_imported_declaration, scope: !5, entity: !41, line: 102)
!41 = !DISubprogram(name: "fclose", scope: !31, file: !31, line: 199, type: !42, isLocal: false, isDefinition: false, flags: DIFlagPrototyped, isOptimized: false)
!42 = !DISubroutineType(types: !43)
!43 = !{!15, !39}
!44 = !DIImportedEntity(tag: DW_TAG_imported_declaration, scope: !5, entity: !45, line: 103)
!45 = !DISubprogram(name: "feof", scope: !31, file: !31, line: 759, type: !42, isLocal: false, isDefinition: false, flags: DIFlagPrototyped, isOptimized: false)
!46 = !DIImportedEntity(tag: DW_TAG_imported_declaration, scope: !5, entity: !47, line: 104)
!47 = !DISubprogram(name: "ferror", scope: !31, file: !31, line: 761, type: !42, isLocal: false, isDefinition: false, flags: DIFlagPrototyped, isOptimized: false)
!48 = !DIImportedEntity(tag: DW_TAG_imported_declaration, scope: !5, entity: !49, line: 105)
!49 = !DISubprogram(name: "fflush", scope: !31, file: !31, line: 204, type: !42, isLocal: false, isDefinition: false, flags: DIFlagPrototyped, isOptimized: false)
!50 = !DIImportedEntity(tag: DW_TAG_imported_declaration, scope: !5, entity: !51, line: 106)
!51 = !DISubprogram(name: "fgetc", scope: !31, file: !31, line: 477, type: !42, isLocal: false, isDefinition: false, flags: DIFlagPrototyped, isOptimized: false)
!52 = !DIImportedEntity(tag: DW_TAG_imported_declaration, scope: !5, entity: !53, line: 107)
!53 = !DISubprogram(name: "fgetpos", scope: !31, file: !31, line: 731, type: !54, isLocal: false, isDefinition: false, flags: DIFlagPrototyped, isOptimized: false)
!54 = !DISubroutineType(types: !55)
!55 = !{!15, !56, !57}
!56 = !DIDerivedType(tag: DW_TAG_restrict_type, baseType: !39)
!57 = !DIDerivedType(tag: DW_TAG_restrict_type, baseType: !58)
!58 = !DIDerivedType(tag: DW_TAG_pointer_type, baseType: !30, size: 64, align: 64)
!59 = !DIImportedEntity(tag: DW_TAG_imported_declaration, scope: !5, entity: !60, line: 108)
!60 = !DISubprogram(name: "fgets", scope: !31, file: !31, line: 564, type: !61, isLocal: false, isDefinition: false, flags: DIFlagPrototyped, isOptimized: false)
!61 = !DISubroutineType(types: !62)
!62 = !{!63, !65, !15, !56}
!63 = !DIDerivedType(tag: DW_TAG_pointer_type, baseType: !64, size: 64, align: 64)
!64 = !DIBasicType(name: "char", size: 8, align: 8, encoding: DW_ATE_unsigned_char)
!65 = !DIDerivedType(tag: DW_TAG_restrict_type, baseType: !63)
!66 = !DIImportedEntity(tag: DW_TAG_imported_declaration, scope: !5, entity: !67, line: 109)
!67 = !DISubprogram(name: "fopen", scope: !31, file: !31, line: 232, type: !68, isLocal: false, isDefinition: false, flags: DIFlagPrototyped, isOptimized: false)
!68 = !DISubroutineType(types: !69)
!69 = !{!39, !70, !70}
!70 = !DIDerivedType(tag: DW_TAG_restrict_type, baseType: !71)
!71 = !DIDerivedType(tag: DW_TAG_pointer_type, baseType: !72, size: 64, align: 64)
!72 = !DIDerivedType(tag: DW_TAG_const_type, baseType: !64)
!73 = !DIImportedEntity(tag: DW_TAG_imported_declaration, scope: !5, entity: !74, line: 110)
!74 = !DISubprogram(name: "fprintf", scope: !31, file: !31, line: 312, type: !75, isLocal: false, isDefinition: false, flags: DIFlagPrototyped, isOptimized: false)
!75 = !DISubroutineType(types: !76)
!76 = !{!15, !56, !70, null}
!77 = !DIImportedEntity(tag: DW_TAG_imported_declaration, scope: !5, entity: !78, line: 111)
!78 = !DISubprogram(name: "fputc", scope: !31, file: !31, line: 517, type: !79, isLocal: false, isDefinition: false, flags: DIFlagPrototyped, isOptimized: false)
!79 = !DISubroutineType(types: !80)
!80 = !{!15, !15, !39}
!81 = !DIImportedEntity(tag: DW_TAG_imported_declaration, scope: !5, entity: !82, line: 112)
!82 = !DISubprogram(name: "fputs", scope: !31, file: !31, line: 626, type: !83, isLocal: false, isDefinition: false, flags: DIFlagPrototyped, isOptimized: false)
!83 = !DISubroutineType(types: !84)
!84 = !{!15, !70, !56}
!85 = !DIImportedEntity(tag: DW_TAG_imported_declaration, scope: !5, entity: !86, line: 113)
!86 = !DISubprogram(name: "fread", scope: !31, file: !31, line: 646, type: !87, isLocal: false, isDefinition: false, flags: DIFlagPrototyped, isOptimized: false)
!87 = !DISubroutineType(types: !88)
!88 = !{!89, !92, !89, !89, !56}
!89 = !DIDerivedType(tag: DW_TAG_typedef, name: "size_t", file: !90, line: 216, baseType: !91)
!90 = !DIFile(filename: "/apps/xilinx/2018.2/SDK/2018.2/gnu/aarch64/lin/aarch64-linux/lib/gcc/aarch64-linux-gnu/7.2.1/include/stddef.h", directory: "/home/ylxiao_seas_upenn_edu/Roseetta/rosetta/digit-recognition")
!91 = !DIBasicType(name: "long unsigned int", size: 64, align: 64, encoding: DW_ATE_unsigned)
!92 = !DIDerivedType(tag: DW_TAG_restrict_type, baseType: !93)
!93 = !DIDerivedType(tag: DW_TAG_pointer_type, baseType: null, size: 64, align: 64)
!94 = !DIImportedEntity(tag: DW_TAG_imported_declaration, scope: !5, entity: !95, line: 114)
!95 = !DISubprogram(name: "freopen", scope: !31, file: !31, line: 238, type: !96, isLocal: false, isDefinition: false, flags: DIFlagPrototyped, isOptimized: false)
!96 = !DISubroutineType(types: !97)
!97 = !{!39, !70, !70, !56}
!98 = !DIImportedEntity(tag: DW_TAG_imported_declaration, scope: !5, entity: !99, line: 115)
!99 = !DISubprogram(name: "fscanf", scope: !31, file: !31, line: 377, type: !75, isLocal: false, isDefinition: false, flags: DIFlagPrototyped, isOptimized: false)
!100 = !DIImportedEntity(tag: DW_TAG_imported_declaration, scope: !5, entity: !101, line: 116)
!101 = !DISubprogram(name: "fseek", scope: !31, file: !31, line: 684, type: !102, isLocal: false, isDefinition: false, flags: DIFlagPrototyped, isOptimized: false)
!102 = !DISubroutineType(types: !103)
!103 = !{!15, !39, !104, !15}
!104 = !DIBasicType(name: "long int", size: 64, align: 64, encoding: DW_ATE_signed)
!105 = !DIImportedEntity(tag: DW_TAG_imported_declaration, scope: !5, entity: !106, line: 117)
!106 = !DISubprogram(name: "fsetpos", scope: !31, file: !31, line: 736, type: !107, isLocal: false, isDefinition: false, flags: DIFlagPrototyped, isOptimized: false)
!107 = !DISubroutineType(types: !108)
!108 = !{!15, !39, !109}
!109 = !DIDerivedType(tag: DW_TAG_pointer_type, baseType: !110, size: 64, align: 64)
!110 = !DIDerivedType(tag: DW_TAG_const_type, baseType: !30)
!111 = !DIImportedEntity(tag: DW_TAG_imported_declaration, scope: !5, entity: !112, line: 118)
!112 = !DISubprogram(name: "ftell", scope: !31, file: !31, line: 689, type: !113, isLocal: false, isDefinition: false, flags: DIFlagPrototyped, isOptimized: false)
!113 = !DISubroutineType(types: !114)
!114 = !{!104, !39}
!115 = !DIImportedEntity(tag: DW_TAG_imported_declaration, scope: !5, entity: !116, line: 119)
!116 = !DISubprogram(name: "fwrite", scope: !31, file: !31, line: 652, type: !117, isLocal: false, isDefinition: false, flags: DIFlagPrototyped, isOptimized: false)
!117 = !DISubroutineType(types: !118)
!118 = !{!89, !119, !89, !89, !56}
!119 = !DIDerivedType(tag: DW_TAG_restrict_type, baseType: !120)
!120 = !DIDerivedType(tag: DW_TAG_pointer_type, baseType: !121, size: 64, align: 64)
!121 = !DIDerivedType(tag: DW_TAG_const_type, baseType: null)
!122 = !DIImportedEntity(tag: DW_TAG_imported_declaration, scope: !5, entity: !123, line: 120)
!123 = !DISubprogram(name: "getc", scope: !31, file: !31, line: 478, type: !42, isLocal: false, isDefinition: false, flags: DIFlagPrototyped, isOptimized: false)
!124 = !DIImportedEntity(tag: DW_TAG_imported_declaration, scope: !5, entity: !125, line: 121)
!125 = !DISubprogram(name: "getchar", scope: !31, file: !31, line: 484, type: !126, isLocal: false, isDefinition: false, flags: DIFlagPrototyped, isOptimized: false)
!126 = !DISubroutineType(types: !127)
!127 = !{!15}
!128 = !DIImportedEntity(tag: DW_TAG_imported_declaration, scope: !5, entity: !129, line: 124)
!129 = !DISubprogram(name: "gets", scope: !31, file: !31, line: 577, type: !130, isLocal: false, isDefinition: false, flags: DIFlagPrototyped, isOptimized: false)
!130 = !DISubroutineType(types: !131)
!131 = !{!63, !63}
!132 = !DIImportedEntity(tag: DW_TAG_imported_declaration, scope: !5, entity: !133, line: 126)
!133 = !DISubprogram(name: "perror", scope: !31, file: !31, line: 775, type: !134, isLocal: false, isDefinition: false, flags: DIFlagPrototyped, isOptimized: false)
!134 = !DISubroutineType(types: !135)
!135 = !{null, !71}
!136 = !DIImportedEntity(tag: DW_TAG_imported_declaration, scope: !5, entity: !137, line: 127)
!137 = !DISubprogram(name: "printf", scope: !31, file: !31, line: 318, type: !138, isLocal: false, isDefinition: false, flags: DIFlagPrototyped, isOptimized: false)
!138 = !DISubroutineType(types: !139)
!139 = !{!15, !70, null}
!140 = !DIImportedEntity(tag: DW_TAG_imported_declaration, scope: !5, entity: !141, line: 128)
!141 = !DISubprogram(name: "putc", scope: !31, file: !31, line: 518, type: !79, isLocal: false, isDefinition: false, flags: DIFlagPrototyped, isOptimized: false)
!142 = !DIImportedEntity(tag: DW_TAG_imported_declaration, scope: !5, entity: !143, line: 129)
!143 = !DISubprogram(name: "putchar", scope: !31, file: !31, line: 524, type: !144, isLocal: false, isDefinition: false, flags: DIFlagPrototyped, isOptimized: false)
!144 = !DISubroutineType(types: !145)
!145 = !{!15, !15}
!146 = !DIImportedEntity(tag: DW_TAG_imported_declaration, scope: !5, entity: !147, line: 130)
!147 = !DISubprogram(name: "puts", scope: !31, file: !31, line: 632, type: !148, isLocal: false, isDefinition: false, flags: DIFlagPrototyped, isOptimized: false)
!148 = !DISubroutineType(types: !149)
!149 = !{!15, !71}
!150 = !DIImportedEntity(tag: DW_TAG_imported_declaration, scope: !5, entity: !151, line: 131)
!151 = !DISubprogram(name: "remove", scope: !31, file: !31, line: 144, type: !148, isLocal: false, isDefinition: false, flags: DIFlagPrototyped, isOptimized: false)
!152 = !DIImportedEntity(tag: DW_TAG_imported_declaration, scope: !5, entity: !153, line: 132)
!153 = !DISubprogram(name: "rename", scope: !31, file: !31, line: 146, type: !154, isLocal: false, isDefinition: false, flags: DIFlagPrototyped, isOptimized: false)
!154 = !DISubroutineType(types: !155)
!155 = !{!15, !71, !71}
!156 = !DIImportedEntity(tag: DW_TAG_imported_declaration, scope: !5, entity: !157, line: 133)
!157 = !DISubprogram(name: "rewind", scope: !31, file: !31, line: 694, type: !37, isLocal: false, isDefinition: false, flags: DIFlagPrototyped, isOptimized: false)
!158 = !DIImportedEntity(tag: DW_TAG_imported_declaration, scope: !5, entity: !159, line: 134)
!159 = !DISubprogram(name: "scanf", scope: !31, file: !31, line: 383, type: !138, isLocal: false, isDefinition: false, flags: DIFlagPrototyped, isOptimized: false)
!160 = !DIImportedEntity(tag: DW_TAG_imported_declaration, scope: !5, entity: !161, line: 135)
!161 = !DISubprogram(name: "setbuf", scope: !31, file: !31, line: 290, type: !162, isLocal: false, isDefinition: false, flags: DIFlagPrototyped, isOptimized: false)
!162 = !DISubroutineType(types: !163)
!163 = !{null, !56, !65}
!164 = !DIImportedEntity(tag: DW_TAG_imported_declaration, scope: !5, entity: !165, line: 136)
!165 = !DISubprogram(name: "setvbuf", scope: !31, file: !31, line: 294, type: !166, isLocal: false, isDefinition: false, flags: DIFlagPrototyped, isOptimized: false)
!166 = !DISubroutineType(types: !167)
!167 = !{!15, !56, !65, !15, !89}
!168 = !DIImportedEntity(tag: DW_TAG_imported_declaration, scope: !5, entity: !169, line: 137)
!169 = !DISubprogram(name: "sprintf", scope: !31, file: !31, line: 320, type: !170, isLocal: false, isDefinition: false, flags: DIFlagPrototyped, isOptimized: false)
!170 = !DISubroutineType(types: !171)
!171 = !{!15, !65, !70, null}
!172 = !DIImportedEntity(tag: DW_TAG_imported_declaration, scope: !5, entity: !173, line: 138)
!173 = !DISubprogram(name: "sscanf", scope: !31, file: !31, line: 385, type: !174, isLocal: false, isDefinition: false, flags: DIFlagPrototyped, isOptimized: false)
!174 = !DISubroutineType(types: !175)
!175 = !{!15, !70, !70, null}
!176 = !DIImportedEntity(tag: DW_TAG_imported_declaration, scope: !5, entity: !177, line: 139)
!177 = !DISubprogram(name: "tmpfile", scope: !31, file: !31, line: 159, type: !178, isLocal: false, isDefinition: false, flags: DIFlagPrototyped, isOptimized: false)
!178 = !DISubroutineType(types: !179)
!179 = !{!39}
!180 = !DIImportedEntity(tag: DW_TAG_imported_declaration, scope: !5, entity: !181, line: 141)
!181 = !DISubprogram(name: "tmpnam", scope: !31, file: !31, line: 173, type: !130, isLocal: false, isDefinition: false, flags: DIFlagPrototyped, isOptimized: false)
!182 = !DIImportedEntity(tag: DW_TAG_imported_declaration, scope: !5, entity: !183, line: 143)
!183 = !DISubprogram(name: "ungetc", scope: !31, file: !31, line: 639, type: !79, isLocal: false, isDefinition: false, flags: DIFlagPrototyped, isOptimized: false)
!184 = !DIImportedEntity(tag: DW_TAG_imported_declaration, scope: !5, entity: !185, line: 144)
!185 = !DISubprogram(name: "vfprintf", scope: !31, file: !31, line: 327, type: !186, isLocal: false, isDefinition: false, flags: DIFlagPrototyped, isOptimized: false)
!186 = !DISubroutineType(types: !187)
!187 = !{!15, !56, !70, !188}
!188 = !DIDerivedType(tag: DW_TAG_typedef, name: "__gnuc_va_list", file: !189, line: 40, baseType: !190)
!189 = !DIFile(filename: "/apps/xilinx/2018.2/SDK/2018.2/gnu/aarch64/lin/aarch64-linux/lib/gcc/aarch64-linux-gnu/7.2.1/include/stdarg.h", directory: "/home/ylxiao_seas_upenn_edu/Roseetta/rosetta/digit-recognition")
!190 = !DIDerivedType(tag: DW_TAG_typedef, name: "__builtin_va_list", file: !1, baseType: !191)
!191 = distinct !DICompositeType(tag: DW_TAG_structure_type, name: "__va_list", scope: !192, file: !1, size: 256, align: 64, elements: !193, identifier: "_ZTSSt9__va_list")
!192 = !DINamespace(name: "std", scope: null, file: !1)
!193 = !{!194, !195, !196, !197, !198}
!194 = !DIDerivedType(tag: DW_TAG_member, name: "__stack", scope: !191, file: !1, baseType: !93, size: 64, align: 64)
!195 = !DIDerivedType(tag: DW_TAG_member, name: "__gr_top", scope: !191, file: !1, baseType: !93, size: 64, align: 64, offset: 64)
!196 = !DIDerivedType(tag: DW_TAG_member, name: "__vr_top", scope: !191, file: !1, baseType: !93, size: 64, align: 64, offset: 128)
!197 = !DIDerivedType(tag: DW_TAG_member, name: "__gr_offs", scope: !191, file: !1, baseType: !15, size: 32, align: 32, offset: 192)
!198 = !DIDerivedType(tag: DW_TAG_member, name: "__vr_offs", scope: !191, file: !1, baseType: !15, size: 32, align: 32, offset: 224)
!199 = !DIImportedEntity(tag: DW_TAG_imported_declaration, scope: !5, entity: !200, line: 145)
!200 = !DISubprogram(name: "vprintf", scope: !31, file: !31, line: 333, type: !201, isLocal: false, isDefinition: false, flags: DIFlagPrototyped, isOptimized: false)
!201 = !DISubroutineType(types: !202)
!202 = !{!15, !70, !188}
!203 = !DIImportedEntity(tag: DW_TAG_imported_declaration, scope: !5, entity: !204, line: 146)
!204 = !DISubprogram(name: "vsprintf", scope: !31, file: !31, line: 335, type: !205, isLocal: false, isDefinition: false, flags: DIFlagPrototyped, isOptimized: false)
!205 = !DISubroutineType(types: !206)
!206 = !{!15, !65, !70, !188}
!207 = !DIImportedEntity(tag: DW_TAG_imported_declaration, scope: !208, entity: !209, line: 175)
!208 = !DINamespace(name: "__gnu_cxx", scope: null, file: !6, line: 255)
!209 = !DISubprogram(name: "snprintf", scope: !31, file: !31, line: 340, type: !210, isLocal: false, isDefinition: false, flags: DIFlagPrototyped, isOptimized: false)
!210 = !DISubroutineType(types: !211)
!211 = !{!15, !65, !89, !70, null}
!212 = !DIImportedEntity(tag: DW_TAG_imported_declaration, scope: !208, entity: !213, line: 176)
!213 = !DISubprogram(name: "vfscanf", scope: !31, file: !31, line: 420, type: !186, isLocal: false, isDefinition: false, flags: DIFlagPrototyped, isOptimized: false)
!214 = !DIImportedEntity(tag: DW_TAG_imported_declaration, scope: !208, entity: !215, line: 177)
!215 = !DISubprogram(name: "vscanf", scope: !31, file: !31, line: 428, type: !201, isLocal: false, isDefinition: false, flags: DIFlagPrototyped, isOptimized: false)
!216 = !DIImportedEntity(tag: DW_TAG_imported_declaration, scope: !208, entity: !217, line: 178)
!217 = !DISubprogram(name: "vsnprintf", scope: !31, file: !31, line: 344, type: !218, isLocal: false, isDefinition: false, flags: DIFlagPrototyped, isOptimized: false)
!218 = !DISubroutineType(types: !219)
!219 = !{!15, !65, !89, !70, !188}
!220 = !DIImportedEntity(tag: DW_TAG_imported_declaration, scope: !208, entity: !221, line: 179)
!221 = !DISubprogram(name: "vsscanf", scope: !31, file: !31, line: 432, type: !222, isLocal: false, isDefinition: false, flags: DIFlagPrototyped, isOptimized: false)
!222 = !DISubroutineType(types: !223)
!223 = !{!15, !70, !70, !188}
!224 = !DIImportedEntity(tag: DW_TAG_imported_declaration, scope: !5, entity: !209, line: 185)
!225 = !DIImportedEntity(tag: DW_TAG_imported_declaration, scope: !5, entity: !213, line: 186)
!226 = !DIImportedEntity(tag: DW_TAG_imported_declaration, scope: !5, entity: !215, line: 187)
!227 = !DIImportedEntity(tag: DW_TAG_imported_declaration, scope: !5, entity: !217, line: 188)
!228 = !DIImportedEntity(tag: DW_TAG_imported_declaration, scope: !5, entity: !221, line: 189)
!229 = !DIImportedEntity(tag: DW_TAG_imported_declaration, scope: !5, entity: !230, line: 52)
!230 = !DISubprogram(name: "abs", scope: !231, file: !231, line: 722, type: !144, isLocal: false, isDefinition: false, flags: DIFlagPrototyped, isOptimized: false)
!231 = !DIFile(filename: "/apps/xilinx/2018.2/SDK/2018.2/gnu/aarch64/lin/aarch64-linux/aarch64-linux-gnu/libc/usr/include/stdlib.h", directory: "/home/ylxiao_seas_upenn_edu/Roseetta/rosetta/digit-recognition")
!232 = !DIImportedEntity(tag: DW_TAG_imported_declaration, scope: !5, entity: !233, line: 83)
!233 = !DISubprogram(name: "acos", scope: !234, file: !234, line: 53, type: !235, isLocal: false, isDefinition: false, flags: DIFlagPrototyped, isOptimized: false)
!234 = !DIFile(filename: "/apps/xilinx/2018.2/SDK/2018.2/gnu/aarch64/lin/aarch64-linux/aarch64-linux-gnu/libc/usr/include/bits/mathcalls.h", directory: "/home/ylxiao_seas_upenn_edu/Roseetta/rosetta/digit-recognition")
!235 = !DISubroutineType(types: !236)
!236 = !{!237, !237}
!237 = !DIBasicType(name: "double", size: 64, align: 64, encoding: DW_ATE_float)
!238 = !DIImportedEntity(tag: DW_TAG_imported_declaration, scope: !5, entity: !239, line: 102)
!239 = !DISubprogram(name: "asin", scope: !234, file: !234, line: 55, type: !235, isLocal: false, isDefinition: false, flags: DIFlagPrototyped, isOptimized: false)
!240 = !DIImportedEntity(tag: DW_TAG_imported_declaration, scope: !5, entity: !241, line: 121)
!241 = !DISubprogram(name: "atan", scope: !234, file: !234, line: 57, type: !235, isLocal: false, isDefinition: false, flags: DIFlagPrototyped, isOptimized: false)
!242 = !DIImportedEntity(tag: DW_TAG_imported_declaration, scope: !5, entity: !243, line: 140)
!243 = !DISubprogram(name: "atan2", scope: !234, file: !234, line: 59, type: !244, isLocal: false, isDefinition: false, flags: DIFlagPrototyped, isOptimized: false)
!244 = !DISubroutineType(types: !245)
!245 = !{!237, !237, !237}
!246 = !DIImportedEntity(tag: DW_TAG_imported_declaration, scope: !5, entity: !247, line: 161)
!247 = !DISubprogram(name: "ceil", scope: !234, file: !234, line: 165, type: !235, isLocal: false, isDefinition: false, flags: DIFlagPrototyped, isOptimized: false)
!248 = !DIImportedEntity(tag: DW_TAG_imported_declaration, scope: !5, entity: !249, line: 180)
!249 = !DISubprogram(name: "cos", scope: !234, file: !234, line: 62, type: !235, isLocal: false, isDefinition: false, flags: DIFlagPrototyped, isOptimized: false)
!250 = !DIImportedEntity(tag: DW_TAG_imported_declaration, scope: !5, entity: !251, line: 199)
!251 = !DISubprogram(name: "cosh", scope: !234, file: !234, line: 71, type: !235, isLocal: false, isDefinition: false, flags: DIFlagPrototyped, isOptimized: false)
!252 = !DIImportedEntity(tag: DW_TAG_imported_declaration, scope: !5, entity: !253, line: 218)
!253 = !DISubprogram(name: "exp", scope: !234, file: !234, line: 95, type: !235, isLocal: false, isDefinition: false, flags: DIFlagPrototyped, isOptimized: false)
!254 = !DIImportedEntity(tag: DW_TAG_imported_declaration, scope: !5, entity: !255, line: 237)
!255 = !DISubprogram(name: "fabs", scope: !234, file: !234, line: 168, type: !235, isLocal: false, isDefinition: false, flags: DIFlagPrototyped, isOptimized: false)
!256 = !DIImportedEntity(tag: DW_TAG_imported_declaration, scope: !5, entity: !257, line: 256)
!257 = !DISubprogram(name: "floor", scope: !234, file: !234, line: 171, type: !235, isLocal: false, isDefinition: false, flags: DIFlagPrototyped, isOptimized: false)
!258 = !DIImportedEntity(tag: DW_TAG_imported_declaration, scope: !5, entity: !259, line: 275)
!259 = !DISubprogram(name: "fmod", scope: !234, file: !234, line: 174, type: !244, isLocal: false, isDefinition: false, flags: DIFlagPrototyped, isOptimized: false)
!260 = !DIImportedEntity(tag: DW_TAG_imported_declaration, scope: !5, entity: !261, line: 296)
!261 = !DISubprogram(name: "frexp", scope: !234, file: !234, line: 98, type: !262, isLocal: false, isDefinition: false, flags: DIFlagPrototyped, isOptimized: false)
!262 = !DISubroutineType(types: !263)
!263 = !{!237, !237, !264}
!264 = !DIDerivedType(tag: DW_TAG_pointer_type, baseType: !15, size: 64, align: 64)
!265 = !DIImportedEntity(tag: DW_TAG_imported_declaration, scope: !5, entity: !266, line: 315)
!266 = !DISubprogram(name: "ldexp", scope: !234, file: !234, line: 101, type: !267, isLocal: false, isDefinition: false, flags: DIFlagPrototyped, isOptimized: false)
!267 = !DISubroutineType(types: !268)
!268 = !{!237, !237, !15}
!269 = !DIImportedEntity(tag: DW_TAG_imported_declaration, scope: !5, entity: !270, line: 334)
!270 = !DISubprogram(name: "log", scope: !234, file: !234, line: 104, type: !235, isLocal: false, isDefinition: false, flags: DIFlagPrototyped, isOptimized: false)
!271 = !DIImportedEntity(tag: DW_TAG_imported_declaration, scope: !5, entity: !272, line: 353)
!272 = !DISubprogram(name: "log10", scope: !234, file: !234, line: 107, type: !235, isLocal: false, isDefinition: false, flags: DIFlagPrototyped, isOptimized: false)
!273 = !DIImportedEntity(tag: DW_TAG_imported_declaration, scope: !5, entity: !274, line: 372)
!274 = !DISubprogram(name: "modf", scope: !234, file: !234, line: 110, type: !275, isLocal: false, isDefinition: false, flags: DIFlagPrototyped, isOptimized: false)
!275 = !DISubroutineType(types: !276)
!276 = !{!237, !237, !277}
!277 = !DIDerivedType(tag: DW_TAG_pointer_type, baseType: !237, size: 64, align: 64)
!278 = !DIImportedEntity(tag: DW_TAG_imported_declaration, scope: !5, entity: !279, line: 384)
!279 = !DISubprogram(name: "pow", scope: !234, file: !234, line: 146, type: !244, isLocal: false, isDefinition: false, flags: DIFlagPrototyped, isOptimized: false)
!280 = !DIImportedEntity(tag: DW_TAG_imported_declaration, scope: !5, entity: !281, line: 421)
!281 = !DISubprogram(name: "sin", scope: !234, file: !234, line: 64, type: !235, isLocal: false, isDefinition: false, flags: DIFlagPrototyped, isOptimized: false)
!282 = !DIImportedEntity(tag: DW_TAG_imported_declaration, scope: !5, entity: !283, line: 440)
!283 = !DISubprogram(name: "sinh", scope: !234, file: !234, line: 73, type: !235, isLocal: false, isDefinition: false, flags: DIFlagPrototyped, isOptimized: false)
!284 = !DIImportedEntity(tag: DW_TAG_imported_declaration, scope: !5, entity: !285, line: 459)
!285 = !DISubprogram(name: "sqrt", scope: !234, file: !234, line: 149, type: !235, isLocal: false, isDefinition: false, flags: DIFlagPrototyped, isOptimized: false)
!286 = !DIImportedEntity(tag: DW_TAG_imported_declaration, scope: !5, entity: !287, line: 478)
!287 = !DISubprogram(name: "tan", scope: !234, file: !234, line: 66, type: !235, isLocal: false, isDefinition: false, flags: DIFlagPrototyped, isOptimized: false)
!288 = !DIImportedEntity(tag: DW_TAG_imported_declaration, scope: !5, entity: !289, line: 497)
!289 = !DISubprogram(name: "tanh", scope: !234, file: !234, line: 75, type: !235, isLocal: false, isDefinition: false, flags: DIFlagPrototyped, isOptimized: false)
!290 = !DIImportedEntity(tag: DW_TAG_imported_declaration, scope: !5, entity: !291, line: 1080)
!291 = !DIDerivedType(tag: DW_TAG_typedef, name: "double_t", file: !292, line: 84, baseType: !237)
!292 = !DIFile(filename: "/apps/xilinx/2018.2/SDK/2018.2/gnu/aarch64/lin/aarch64-linux/aarch64-linux-gnu/libc/usr/include/math.h", directory: "/home/ylxiao_seas_upenn_edu/Roseetta/rosetta/digit-recognition")
!293 = !DIImportedEntity(tag: DW_TAG_imported_declaration, scope: !5, entity: !294, line: 1081)
!294 = !DIDerivedType(tag: DW_TAG_typedef, name: "float_t", file: !292, line: 83, baseType: !295)
!295 = !DIBasicType(name: "float", size: 32, align: 32, encoding: DW_ATE_float)
!296 = !DIImportedEntity(tag: DW_TAG_imported_declaration, scope: !5, entity: !297, line: 1084)
!297 = !DISubprogram(name: "acosh", scope: !234, file: !234, line: 85, type: !235, isLocal: false, isDefinition: false, flags: DIFlagPrototyped, isOptimized: false)
!298 = !DIImportedEntity(tag: DW_TAG_imported_declaration, scope: !5, entity: !299, line: 1085)
!299 = !DISubprogram(name: "acoshf", scope: !234, file: !234, line: 85, type: !300, isLocal: false, isDefinition: false, flags: DIFlagPrototyped, isOptimized: false)
!300 = !DISubroutineType(types: !301)
!301 = !{!295, !295}
!302 = !DIImportedEntity(tag: DW_TAG_imported_declaration, scope: !5, entity: !303, line: 1086)
!303 = !DISubprogram(name: "acoshl", scope: !234, file: !234, line: 85, type: !304, isLocal: false, isDefinition: false, flags: DIFlagPrototyped, isOptimized: false)
!304 = !DISubroutineType(types: !305)
!305 = !{!306, !306}
!306 = !DIBasicType(name: "long double", size: 128, align: 128, encoding: DW_ATE_float)
!307 = !DIImportedEntity(tag: DW_TAG_imported_declaration, scope: !5, entity: !308, line: 1088)
!308 = !DISubprogram(name: "asinh", scope: !234, file: !234, line: 87, type: !235, isLocal: false, isDefinition: false, flags: DIFlagPrototyped, isOptimized: false)
!309 = !DIImportedEntity(tag: DW_TAG_imported_declaration, scope: !5, entity: !310, line: 1089)
!310 = !DISubprogram(name: "asinhf", scope: !234, file: !234, line: 87, type: !300, isLocal: false, isDefinition: false, flags: DIFlagPrototyped, isOptimized: false)
!311 = !DIImportedEntity(tag: DW_TAG_imported_declaration, scope: !5, entity: !312, line: 1090)
!312 = !DISubprogram(name: "asinhl", scope: !234, file: !234, line: 87, type: !304, isLocal: false, isDefinition: false, flags: DIFlagPrototyped, isOptimized: false)
!313 = !DIImportedEntity(tag: DW_TAG_imported_declaration, scope: !5, entity: !314, line: 1092)
!314 = !DISubprogram(name: "atanh", scope: !234, file: !234, line: 89, type: !235, isLocal: false, isDefinition: false, flags: DIFlagPrototyped, isOptimized: false)
!315 = !DIImportedEntity(tag: DW_TAG_imported_declaration, scope: !5, entity: !316, line: 1093)
!316 = !DISubprogram(name: "atanhf", scope: !234, file: !234, line: 89, type: !300, isLocal: false, isDefinition: false, flags: DIFlagPrototyped, isOptimized: false)
!317 = !DIImportedEntity(tag: DW_TAG_imported_declaration, scope: !5, entity: !318, line: 1094)
!318 = !DISubprogram(name: "atanhl", scope: !234, file: !234, line: 89, type: !304, isLocal: false, isDefinition: false, flags: DIFlagPrototyped, isOptimized: false)
!319 = !DIImportedEntity(tag: DW_TAG_imported_declaration, scope: !5, entity: !320, line: 1096)
!320 = !DISubprogram(name: "cbrt", scope: !234, file: !234, line: 158, type: !235, isLocal: false, isDefinition: false, flags: DIFlagPrototyped, isOptimized: false)
!321 = !DIImportedEntity(tag: DW_TAG_imported_declaration, scope: !5, entity: !322, line: 1097)
!322 = !DISubprogram(name: "cbrtf", scope: !234, file: !234, line: 158, type: !300, isLocal: false, isDefinition: false, flags: DIFlagPrototyped, isOptimized: false)
!323 = !DIImportedEntity(tag: DW_TAG_imported_declaration, scope: !5, entity: !324, line: 1098)
!324 = !DISubprogram(name: "cbrtl", scope: !234, file: !234, line: 158, type: !304, isLocal: false, isDefinition: false, flags: DIFlagPrototyped, isOptimized: false)
!325 = !DIImportedEntity(tag: DW_TAG_imported_declaration, scope: !5, entity: !326, line: 1100)
!326 = !DISubprogram(name: "copysign", scope: !234, file: !234, line: 202, type: !244, isLocal: false, isDefinition: false, flags: DIFlagPrototyped, isOptimized: false)
!327 = !DIImportedEntity(tag: DW_TAG_imported_declaration, scope: !5, entity: !328, line: 1101)
!328 = !DISubprogram(name: "copysignf", scope: !234, file: !234, line: 202, type: !329, isLocal: false, isDefinition: false, flags: DIFlagPrototyped, isOptimized: false)
!329 = !DISubroutineType(types: !330)
!330 = !{!295, !295, !295}
!331 = !DIImportedEntity(tag: DW_TAG_imported_declaration, scope: !5, entity: !332, line: 1102)
!332 = !DISubprogram(name: "copysignl", scope: !234, file: !234, line: 202, type: !333, isLocal: false, isDefinition: false, flags: DIFlagPrototyped, isOptimized: false)
!333 = !DISubroutineType(types: !334)
!334 = !{!306, !306, !306}
!335 = !DIImportedEntity(tag: DW_TAG_imported_declaration, scope: !5, entity: !336, line: 1104)
!336 = !DISubprogram(name: "erf", scope: !234, file: !234, line: 234, type: !235, isLocal: false, isDefinition: false, flags: DIFlagPrototyped, isOptimized: false)
!337 = !DIImportedEntity(tag: DW_TAG_imported_declaration, scope: !5, entity: !338, line: 1105)
!338 = !DISubprogram(name: "erff", scope: !234, file: !234, line: 234, type: !300, isLocal: false, isDefinition: false, flags: DIFlagPrototyped, isOptimized: false)
!339 = !DIImportedEntity(tag: DW_TAG_imported_declaration, scope: !5, entity: !340, line: 1106)
!340 = !DISubprogram(name: "erfl", scope: !234, file: !234, line: 234, type: !304, isLocal: false, isDefinition: false, flags: DIFlagPrototyped, isOptimized: false)
!341 = !DIImportedEntity(tag: DW_TAG_imported_declaration, scope: !5, entity: !342, line: 1108)
!342 = !DISubprogram(name: "erfc", scope: !234, file: !234, line: 235, type: !235, isLocal: false, isDefinition: false, flags: DIFlagPrototyped, isOptimized: false)
!343 = !DIImportedEntity(tag: DW_TAG_imported_declaration, scope: !5, entity: !344, line: 1109)
!344 = !DISubprogram(name: "erfcf", scope: !234, file: !234, line: 235, type: !300, isLocal: false, isDefinition: false, flags: DIFlagPrototyped, isOptimized: false)
!345 = !DIImportedEntity(tag: DW_TAG_imported_declaration, scope: !5, entity: !346, line: 1110)
!346 = !DISubprogram(name: "erfcl", scope: !234, file: !234, line: 235, type: !304, isLocal: false, isDefinition: false, flags: DIFlagPrototyped, isOptimized: false)
!347 = !DIImportedEntity(tag: DW_TAG_imported_declaration, scope: !5, entity: !348, line: 1112)
!348 = !DISubprogram(name: "exp2", scope: !234, file: !234, line: 136, type: !235, isLocal: false, isDefinition: false, flags: DIFlagPrototyped, isOptimized: false)
!349 = !DIImportedEntity(tag: DW_TAG_imported_declaration, scope: !5, entity: !350, line: 1113)
!350 = !DISubprogram(name: "exp2f", scope: !234, file: !234, line: 136, type: !300, isLocal: false, isDefinition: false, flags: DIFlagPrototyped, isOptimized: false)
!351 = !DIImportedEntity(tag: DW_TAG_imported_declaration, scope: !5, entity: !352, line: 1114)
!352 = !DISubprogram(name: "exp2l", scope: !234, file: !234, line: 136, type: !304, isLocal: false, isDefinition: false, flags: DIFlagPrototyped, isOptimized: false)
!353 = !DIImportedEntity(tag: DW_TAG_imported_declaration, scope: !5, entity: !354, line: 1116)
!354 = !DISubprogram(name: "expm1", scope: !234, file: !234, line: 125, type: !235, isLocal: false, isDefinition: false, flags: DIFlagPrototyped, isOptimized: false)
!355 = !DIImportedEntity(tag: DW_TAG_imported_declaration, scope: !5, entity: !356, line: 1117)
!356 = !DISubprogram(name: "expm1f", scope: !234, file: !234, line: 125, type: !300, isLocal: false, isDefinition: false, flags: DIFlagPrototyped, isOptimized: false)
!357 = !DIImportedEntity(tag: DW_TAG_imported_declaration, scope: !5, entity: !358, line: 1118)
!358 = !DISubprogram(name: "expm1l", scope: !234, file: !234, line: 125, type: !304, isLocal: false, isDefinition: false, flags: DIFlagPrototyped, isOptimized: false)
!359 = !DIImportedEntity(tag: DW_TAG_imported_declaration, scope: !5, entity: !360, line: 1120)
!360 = !DISubprogram(name: "fdim", scope: !234, file: !234, line: 332, type: !244, isLocal: false, isDefinition: false, flags: DIFlagPrototyped, isOptimized: false)
!361 = !DIImportedEntity(tag: DW_TAG_imported_declaration, scope: !5, entity: !362, line: 1121)
!362 = !DISubprogram(name: "fdimf", scope: !234, file: !234, line: 332, type: !329, isLocal: false, isDefinition: false, flags: DIFlagPrototyped, isOptimized: false)
!363 = !DIImportedEntity(tag: DW_TAG_imported_declaration, scope: !5, entity: !364, line: 1122)
!364 = !DISubprogram(name: "fdiml", scope: !234, file: !234, line: 332, type: !333, isLocal: false, isDefinition: false, flags: DIFlagPrototyped, isOptimized: false)
!365 = !DIImportedEntity(tag: DW_TAG_imported_declaration, scope: !5, entity: !366, line: 1124)
!366 = !DISubprogram(name: "fma", scope: !234, file: !234, line: 341, type: !367, isLocal: false, isDefinition: false, flags: DIFlagPrototyped, isOptimized: false)
!367 = !DISubroutineType(types: !368)
!368 = !{!237, !237, !237, !237}
!369 = !DIImportedEntity(tag: DW_TAG_imported_declaration, scope: !5, entity: !370, line: 1125)
!370 = !DISubprogram(name: "fmaf", scope: !234, file: !234, line: 341, type: !371, isLocal: false, isDefinition: false, flags: DIFlagPrototyped, isOptimized: false)
!371 = !DISubroutineType(types: !372)
!372 = !{!295, !295, !295, !295}
!373 = !DIImportedEntity(tag: DW_TAG_imported_declaration, scope: !5, entity: !374, line: 1126)
!374 = !DISubprogram(name: "fmal", scope: !234, file: !234, line: 341, type: !375, isLocal: false, isDefinition: false, flags: DIFlagPrototyped, isOptimized: false)
!375 = !DISubroutineType(types: !376)
!376 = !{!306, !306, !306, !306}
!377 = !DIImportedEntity(tag: DW_TAG_imported_declaration, scope: !5, entity: !378, line: 1128)
!378 = !DISubprogram(name: "fmax", scope: !234, file: !234, line: 335, type: !244, isLocal: false, isDefinition: false, flags: DIFlagPrototyped, isOptimized: false)
!379 = !DIImportedEntity(tag: DW_TAG_imported_declaration, scope: !5, entity: !380, line: 1129)
!380 = !DISubprogram(name: "fmaxf", scope: !234, file: !234, line: 335, type: !329, isLocal: false, isDefinition: false, flags: DIFlagPrototyped, isOptimized: false)
!381 = !DIImportedEntity(tag: DW_TAG_imported_declaration, scope: !5, entity: !382, line: 1130)
!382 = !DISubprogram(name: "fmaxl", scope: !234, file: !234, line: 335, type: !333, isLocal: false, isDefinition: false, flags: DIFlagPrototyped, isOptimized: false)
!383 = !DIImportedEntity(tag: DW_TAG_imported_declaration, scope: !5, entity: !384, line: 1132)
!384 = !DISubprogram(name: "fmin", scope: !234, file: !234, line: 338, type: !244, isLocal: false, isDefinition: false, flags: DIFlagPrototyped, isOptimized: false)
!385 = !DIImportedEntity(tag: DW_TAG_imported_declaration, scope: !5, entity: !386, line: 1133)
!386 = !DISubprogram(name: "fminf", scope: !234, file: !234, line: 338, type: !329, isLocal: false, isDefinition: false, flags: DIFlagPrototyped, isOptimized: false)
!387 = !DIImportedEntity(tag: DW_TAG_imported_declaration, scope: !5, entity: !388, line: 1134)
!388 = !DISubprogram(name: "fminl", scope: !234, file: !234, line: 338, type: !333, isLocal: false, isDefinition: false, flags: DIFlagPrototyped, isOptimized: false)
!389 = !DIImportedEntity(tag: DW_TAG_imported_declaration, scope: !5, entity: !390, line: 1136)
!390 = !DISubprogram(name: "hypot", scope: !234, file: !234, line: 153, type: !244, isLocal: false, isDefinition: false, flags: DIFlagPrototyped, isOptimized: false)
!391 = !DIImportedEntity(tag: DW_TAG_imported_declaration, scope: !5, entity: !392, line: 1137)
!392 = !DISubprogram(name: "hypotf", scope: !234, file: !234, line: 153, type: !329, isLocal: false, isDefinition: false, flags: DIFlagPrototyped, isOptimized: false)
!393 = !DIImportedEntity(tag: DW_TAG_imported_declaration, scope: !5, entity: !394, line: 1138)
!394 = !DISubprogram(name: "hypotl", scope: !234, file: !234, line: 153, type: !333, isLocal: false, isDefinition: false, flags: DIFlagPrototyped, isOptimized: false)
!395 = !DIImportedEntity(tag: DW_TAG_imported_declaration, scope: !5, entity: !396, line: 1140)
!396 = !DISubprogram(name: "ilogb", scope: !234, file: !234, line: 286, type: !397, isLocal: false, isDefinition: false, flags: DIFlagPrototyped, isOptimized: false)
!397 = !DISubroutineType(types: !398)
!398 = !{!15, !237}
!399 = !DIImportedEntity(tag: DW_TAG_imported_declaration, scope: !5, entity: !400, line: 1141)
!400 = !DISubprogram(name: "ilogbf", scope: !234, file: !234, line: 286, type: !401, isLocal: false, isDefinition: false, flags: DIFlagPrototyped, isOptimized: false)
!401 = !DISubroutineType(types: !402)
!402 = !{!15, !295}
!403 = !DIImportedEntity(tag: DW_TAG_imported_declaration, scope: !5, entity: !404, line: 1142)
!404 = !DISubprogram(name: "ilogbl", scope: !234, file: !234, line: 286, type: !405, isLocal: false, isDefinition: false, flags: DIFlagPrototyped, isOptimized: false)
!405 = !DISubroutineType(types: !406)
!406 = !{!15, !306}
!407 = !DIImportedEntity(tag: DW_TAG_imported_declaration, scope: !5, entity: !408, line: 1144)
!408 = !DISubprogram(name: "lgamma", scope: !234, file: !234, line: 236, type: !235, isLocal: false, isDefinition: false, flags: DIFlagPrototyped, isOptimized: false)
!409 = !DIImportedEntity(tag: DW_TAG_imported_declaration, scope: !5, entity: !410, line: 1145)
!410 = !DISubprogram(name: "lgammaf", scope: !234, file: !234, line: 236, type: !300, isLocal: false, isDefinition: false, flags: DIFlagPrototyped, isOptimized: false)
!411 = !DIImportedEntity(tag: DW_TAG_imported_declaration, scope: !5, entity: !412, line: 1146)
!412 = !DISubprogram(name: "lgammal", scope: !234, file: !234, line: 236, type: !304, isLocal: false, isDefinition: false, flags: DIFlagPrototyped, isOptimized: false)
!413 = !DIImportedEntity(tag: DW_TAG_imported_declaration, scope: !5, entity: !414, line: 1149)
!414 = !DISubprogram(name: "llrint", scope: !234, file: !234, line: 322, type: !415, isLocal: false, isDefinition: false, flags: DIFlagPrototyped, isOptimized: false)
!415 = !DISubroutineType(types: !416)
!416 = !{!417, !237}
!417 = !DIBasicType(name: "long long int", size: 64, align: 64, encoding: DW_ATE_signed)
!418 = !DIImportedEntity(tag: DW_TAG_imported_declaration, scope: !5, entity: !419, line: 1150)
!419 = !DISubprogram(name: "llrintf", scope: !234, file: !234, line: 322, type: !420, isLocal: false, isDefinition: false, flags: DIFlagPrototyped, isOptimized: false)
!420 = !DISubroutineType(types: !421)
!421 = !{!417, !295}
!422 = !DIImportedEntity(tag: DW_TAG_imported_declaration, scope: !5, entity: !423, line: 1151)
!423 = !DISubprogram(name: "llrintl", scope: !234, file: !234, line: 322, type: !424, isLocal: false, isDefinition: false, flags: DIFlagPrototyped, isOptimized: false)
!424 = !DISubroutineType(types: !425)
!425 = !{!417, !306}
!426 = !DIImportedEntity(tag: DW_TAG_imported_declaration, scope: !5, entity: !427, line: 1153)
!427 = !DISubprogram(name: "llround", scope: !234, file: !234, line: 328, type: !415, isLocal: false, isDefinition: false, flags: DIFlagPrototyped, isOptimized: false)
!428 = !DIImportedEntity(tag: DW_TAG_imported_declaration, scope: !5, entity: !429, line: 1154)
!429 = !DISubprogram(name: "llroundf", scope: !234, file: !234, line: 328, type: !420, isLocal: false, isDefinition: false, flags: DIFlagPrototyped, isOptimized: false)
!430 = !DIImportedEntity(tag: DW_TAG_imported_declaration, scope: !5, entity: !431, line: 1155)
!431 = !DISubprogram(name: "llroundl", scope: !234, file: !234, line: 328, type: !424, isLocal: false, isDefinition: false, flags: DIFlagPrototyped, isOptimized: false)
!432 = !DIImportedEntity(tag: DW_TAG_imported_declaration, scope: !5, entity: !433, line: 1158)
!433 = !DISubprogram(name: "log1p", scope: !234, file: !234, line: 128, type: !235, isLocal: false, isDefinition: false, flags: DIFlagPrototyped, isOptimized: false)
!434 = !DIImportedEntity(tag: DW_TAG_imported_declaration, scope: !5, entity: !435, line: 1159)
!435 = !DISubprogram(name: "log1pf", scope: !234, file: !234, line: 128, type: !300, isLocal: false, isDefinition: false, flags: DIFlagPrototyped, isOptimized: false)
!436 = !DIImportedEntity(tag: DW_TAG_imported_declaration, scope: !5, entity: !437, line: 1160)
!437 = !DISubprogram(name: "log1pl", scope: !234, file: !234, line: 128, type: !304, isLocal: false, isDefinition: false, flags: DIFlagPrototyped, isOptimized: false)
!438 = !DIImportedEntity(tag: DW_TAG_imported_declaration, scope: !5, entity: !439, line: 1162)
!439 = !DISubprogram(name: "log2", scope: !234, file: !234, line: 139, type: !235, isLocal: false, isDefinition: false, flags: DIFlagPrototyped, isOptimized: false)
!440 = !DIImportedEntity(tag: DW_TAG_imported_declaration, scope: !5, entity: !441, line: 1163)
!441 = !DISubprogram(name: "log2f", scope: !234, file: !234, line: 139, type: !300, isLocal: false, isDefinition: false, flags: DIFlagPrototyped, isOptimized: false)
!442 = !DIImportedEntity(tag: DW_TAG_imported_declaration, scope: !5, entity: !443, line: 1164)
!443 = !DISubprogram(name: "log2l", scope: !234, file: !234, line: 139, type: !304, isLocal: false, isDefinition: false, flags: DIFlagPrototyped, isOptimized: false)
!444 = !DIImportedEntity(tag: DW_TAG_imported_declaration, scope: !5, entity: !445, line: 1166)
!445 = !DISubprogram(name: "logb", scope: !234, file: !234, line: 131, type: !235, isLocal: false, isDefinition: false, flags: DIFlagPrototyped, isOptimized: false)
!446 = !DIImportedEntity(tag: DW_TAG_imported_declaration, scope: !5, entity: !447, line: 1167)
!447 = !DISubprogram(name: "logbf", scope: !234, file: !234, line: 131, type: !300, isLocal: false, isDefinition: false, flags: DIFlagPrototyped, isOptimized: false)
!448 = !DIImportedEntity(tag: DW_TAG_imported_declaration, scope: !5, entity: !449, line: 1168)
!449 = !DISubprogram(name: "logbl", scope: !234, file: !234, line: 131, type: !304, isLocal: false, isDefinition: false, flags: DIFlagPrototyped, isOptimized: false)
!450 = !DIImportedEntity(tag: DW_TAG_imported_declaration, scope: !5, entity: !451, line: 1170)
!451 = !DISubprogram(name: "lrint", scope: !234, file: !234, line: 320, type: !452, isLocal: false, isDefinition: false, flags: DIFlagPrototyped, isOptimized: false)
!452 = !DISubroutineType(types: !453)
!453 = !{!104, !237}
!454 = !DIImportedEntity(tag: DW_TAG_imported_declaration, scope: !5, entity: !455, line: 1171)
!455 = !DISubprogram(name: "lrintf", scope: !234, file: !234, line: 320, type: !456, isLocal: false, isDefinition: false, flags: DIFlagPrototyped, isOptimized: false)
!456 = !DISubroutineType(types: !457)
!457 = !{!104, !295}
!458 = !DIImportedEntity(tag: DW_TAG_imported_declaration, scope: !5, entity: !459, line: 1172)
!459 = !DISubprogram(name: "lrintl", scope: !234, file: !234, line: 320, type: !460, isLocal: false, isDefinition: false, flags: DIFlagPrototyped, isOptimized: false)
!460 = !DISubroutineType(types: !461)
!461 = !{!104, !306}
!462 = !DIImportedEntity(tag: DW_TAG_imported_declaration, scope: !5, entity: !463, line: 1174)
!463 = !DISubprogram(name: "lround", scope: !234, file: !234, line: 326, type: !452, isLocal: false, isDefinition: false, flags: DIFlagPrototyped, isOptimized: false)
!464 = !DIImportedEntity(tag: DW_TAG_imported_declaration, scope: !5, entity: !465, line: 1175)
!465 = !DISubprogram(name: "lroundf", scope: !234, file: !234, line: 326, type: !456, isLocal: false, isDefinition: false, flags: DIFlagPrototyped, isOptimized: false)
!466 = !DIImportedEntity(tag: DW_TAG_imported_declaration, scope: !5, entity: !467, line: 1176)
!467 = !DISubprogram(name: "lroundl", scope: !234, file: !234, line: 326, type: !460, isLocal: false, isDefinition: false, flags: DIFlagPrototyped, isOptimized: false)
!468 = !DIImportedEntity(tag: DW_TAG_imported_declaration, scope: !5, entity: !469, line: 1178)
!469 = !DISubprogram(name: "nan", scope: !234, file: !234, line: 207, type: !470, isLocal: false, isDefinition: false, flags: DIFlagPrototyped, isOptimized: false)
!470 = !DISubroutineType(types: !471)
!471 = !{!237, !71}
!472 = !DIImportedEntity(tag: DW_TAG_imported_declaration, scope: !5, entity: !473, line: 1179)
!473 = !DISubprogram(name: "nanf", scope: !234, file: !234, line: 207, type: !474, isLocal: false, isDefinition: false, flags: DIFlagPrototyped, isOptimized: false)
!474 = !DISubroutineType(types: !475)
!475 = !{!295, !71}
!476 = !DIImportedEntity(tag: DW_TAG_imported_declaration, scope: !5, entity: !477, line: 1180)
!477 = !DISubprogram(name: "nanl", scope: !234, file: !234, line: 207, type: !478, isLocal: false, isDefinition: false, flags: DIFlagPrototyped, isOptimized: false)
!478 = !DISubroutineType(types: !479)
!479 = !{!306, !71}
!480 = !DIImportedEntity(tag: DW_TAG_imported_declaration, scope: !5, entity: !481, line: 1182)
!481 = !DISubprogram(name: "nearbyint", scope: !234, file: !234, line: 300, type: !235, isLocal: false, isDefinition: false, flags: DIFlagPrototyped, isOptimized: false)
!482 = !DIImportedEntity(tag: DW_TAG_imported_declaration, scope: !5, entity: !483, line: 1183)
!483 = !DISubprogram(name: "nearbyintf", scope: !234, file: !234, line: 300, type: !300, isLocal: false, isDefinition: false, flags: DIFlagPrototyped, isOptimized: false)
!484 = !DIImportedEntity(tag: DW_TAG_imported_declaration, scope: !5, entity: !485, line: 1184)
!485 = !DISubprogram(name: "nearbyintl", scope: !234, file: !234, line: 300, type: !304, isLocal: false, isDefinition: false, flags: DIFlagPrototyped, isOptimized: false)
!486 = !DIImportedEntity(tag: DW_TAG_imported_declaration, scope: !5, entity: !487, line: 1186)
!487 = !DISubprogram(name: "nextafter", scope: !234, file: !234, line: 265, type: !244, isLocal: false, isDefinition: false, flags: DIFlagPrototyped, isOptimized: false)
!488 = !DIImportedEntity(tag: DW_TAG_imported_declaration, scope: !5, entity: !489, line: 1187)
!489 = !DISubprogram(name: "nextafterf", scope: !234, file: !234, line: 265, type: !329, isLocal: false, isDefinition: false, flags: DIFlagPrototyped, isOptimized: false)
!490 = !DIImportedEntity(tag: DW_TAG_imported_declaration, scope: !5, entity: !491, line: 1188)
!491 = !DISubprogram(name: "nextafterl", scope: !234, file: !234, line: 265, type: !333, isLocal: false, isDefinition: false, flags: DIFlagPrototyped, isOptimized: false)
!492 = !DIImportedEntity(tag: DW_TAG_imported_declaration, scope: !5, entity: !493, line: 1190)
!493 = !DISubprogram(name: "nexttoward", scope: !234, file: !234, line: 267, type: !494, isLocal: false, isDefinition: false, flags: DIFlagPrototyped, isOptimized: false)
!494 = !DISubroutineType(types: !495)
!495 = !{!237, !237, !306}
!496 = !DIImportedEntity(tag: DW_TAG_imported_declaration, scope: !5, entity: !497, line: 1191)
!497 = !DISubprogram(name: "nexttowardf", scope: !234, file: !234, line: 267, type: !498, isLocal: false, isDefinition: false, flags: DIFlagPrototyped, isOptimized: false)
!498 = !DISubroutineType(types: !499)
!499 = !{!295, !295, !306}
!500 = !DIImportedEntity(tag: DW_TAG_imported_declaration, scope: !5, entity: !501, line: 1192)
!501 = !DISubprogram(name: "nexttowardl", scope: !234, file: !234, line: 267, type: !333, isLocal: false, isDefinition: false, flags: DIFlagPrototyped, isOptimized: false)
!502 = !DIImportedEntity(tag: DW_TAG_imported_declaration, scope: !5, entity: !503, line: 1194)
!503 = !DISubprogram(name: "remainder", scope: !234, file: !234, line: 278, type: !244, isLocal: false, isDefinition: false, flags: DIFlagPrototyped, isOptimized: false)
!504 = !DIImportedEntity(tag: DW_TAG_imported_declaration, scope: !5, entity: !505, line: 1195)
!505 = !DISubprogram(name: "remainderf", scope: !234, file: !234, line: 278, type: !329, isLocal: false, isDefinition: false, flags: DIFlagPrototyped, isOptimized: false)
!506 = !DIImportedEntity(tag: DW_TAG_imported_declaration, scope: !5, entity: !507, line: 1196)
!507 = !DISubprogram(name: "remainderl", scope: !234, file: !234, line: 278, type: !333, isLocal: false, isDefinition: false, flags: DIFlagPrototyped, isOptimized: false)
!508 = !DIImportedEntity(tag: DW_TAG_imported_declaration, scope: !5, entity: !509, line: 1198)
!509 = !DISubprogram(name: "remquo", scope: !234, file: !234, line: 313, type: !510, isLocal: false, isDefinition: false, flags: DIFlagPrototyped, isOptimized: false)
!510 = !DISubroutineType(types: !511)
!511 = !{!237, !237, !237, !264}
!512 = !DIImportedEntity(tag: DW_TAG_imported_declaration, scope: !5, entity: !513, line: 1199)
!513 = !DISubprogram(name: "remquof", scope: !234, file: !234, line: 313, type: !514, isLocal: false, isDefinition: false, flags: DIFlagPrototyped, isOptimized: false)
!514 = !DISubroutineType(types: !515)
!515 = !{!295, !295, !295, !264}
!516 = !DIImportedEntity(tag: DW_TAG_imported_declaration, scope: !5, entity: !517, line: 1200)
!517 = !DISubprogram(name: "remquol", scope: !234, file: !234, line: 313, type: !518, isLocal: false, isDefinition: false, flags: DIFlagPrototyped, isOptimized: false)
!518 = !DISubroutineType(types: !519)
!519 = !{!306, !306, !306, !264}
!520 = !DIImportedEntity(tag: DW_TAG_imported_declaration, scope: !5, entity: !521, line: 1202)
!521 = !DISubprogram(name: "rint", scope: !234, file: !234, line: 262, type: !235, isLocal: false, isDefinition: false, flags: DIFlagPrototyped, isOptimized: false)
!522 = !DIImportedEntity(tag: DW_TAG_imported_declaration, scope: !5, entity: !523, line: 1203)
!523 = !DISubprogram(name: "rintf", scope: !234, file: !234, line: 262, type: !300, isLocal: false, isDefinition: false, flags: DIFlagPrototyped, isOptimized: false)
!524 = !DIImportedEntity(tag: DW_TAG_imported_declaration, scope: !5, entity: !525, line: 1204)
!525 = !DISubprogram(name: "rintl", scope: !234, file: !234, line: 262, type: !304, isLocal: false, isDefinition: false, flags: DIFlagPrototyped, isOptimized: false)
!526 = !DIImportedEntity(tag: DW_TAG_imported_declaration, scope: !5, entity: !527, line: 1206)
!527 = !DISubprogram(name: "round", scope: !234, file: !234, line: 304, type: !235, isLocal: false, isDefinition: false, flags: DIFlagPrototyped, isOptimized: false)
!528 = !DIImportedEntity(tag: DW_TAG_imported_declaration, scope: !5, entity: !529, line: 1207)
!529 = !DISubprogram(name: "roundf", scope: !234, file: !234, line: 304, type: !300, isLocal: false, isDefinition: false, flags: DIFlagPrototyped, isOptimized: false)
!530 = !DIImportedEntity(tag: DW_TAG_imported_declaration, scope: !5, entity: !531, line: 1208)
!531 = !DISubprogram(name: "roundl", scope: !234, file: !234, line: 304, type: !304, isLocal: false, isDefinition: false, flags: DIFlagPrototyped, isOptimized: false)
!532 = !DIImportedEntity(tag: DW_TAG_imported_declaration, scope: !5, entity: !533, line: 1210)
!533 = !DISubprogram(name: "scalbln", scope: !234, file: !234, line: 296, type: !534, isLocal: false, isDefinition: false, flags: DIFlagPrototyped, isOptimized: false)
!534 = !DISubroutineType(types: !535)
!535 = !{!237, !237, !104}
!536 = !DIImportedEntity(tag: DW_TAG_imported_declaration, scope: !5, entity: !537, line: 1211)
!537 = !DISubprogram(name: "scalblnf", scope: !234, file: !234, line: 296, type: !538, isLocal: false, isDefinition: false, flags: DIFlagPrototyped, isOptimized: false)
!538 = !DISubroutineType(types: !539)
!539 = !{!295, !295, !104}
!540 = !DIImportedEntity(tag: DW_TAG_imported_declaration, scope: !5, entity: !541, line: 1212)
!541 = !DISubprogram(name: "scalblnl", scope: !234, file: !234, line: 296, type: !542, isLocal: false, isDefinition: false, flags: DIFlagPrototyped, isOptimized: false)
!542 = !DISubroutineType(types: !543)
!543 = !{!306, !306, !104}
!544 = !DIImportedEntity(tag: DW_TAG_imported_declaration, scope: !5, entity: !545, line: 1214)
!545 = !DISubprogram(name: "scalbn", scope: !234, file: !234, line: 282, type: !267, isLocal: false, isDefinition: false, flags: DIFlagPrototyped, isOptimized: false)
!546 = !DIImportedEntity(tag: DW_TAG_imported_declaration, scope: !5, entity: !547, line: 1215)
!547 = !DISubprogram(name: "scalbnf", scope: !234, file: !234, line: 282, type: !548, isLocal: false, isDefinition: false, flags: DIFlagPrototyped, isOptimized: false)
!548 = !DISubroutineType(types: !549)
!549 = !{!295, !295, !15}
!550 = !DIImportedEntity(tag: DW_TAG_imported_declaration, scope: !5, entity: !551, line: 1216)
!551 = !DISubprogram(name: "scalbnl", scope: !234, file: !234, line: 282, type: !552, isLocal: false, isDefinition: false, flags: DIFlagPrototyped, isOptimized: false)
!552 = !DISubroutineType(types: !553)
!553 = !{!306, !306, !15}
!554 = !DIImportedEntity(tag: DW_TAG_imported_declaration, scope: !5, entity: !555, line: 1218)
!555 = !DISubprogram(name: "tgamma", scope: !234, file: !234, line: 241, type: !235, isLocal: false, isDefinition: false, flags: DIFlagPrototyped, isOptimized: false)
!556 = !DIImportedEntity(tag: DW_TAG_imported_declaration, scope: !5, entity: !557, line: 1219)
!557 = !DISubprogram(name: "tgammaf", scope: !234, file: !234, line: 241, type: !300, isLocal: false, isDefinition: false, flags: DIFlagPrototyped, isOptimized: false)
!558 = !DIImportedEntity(tag: DW_TAG_imported_declaration, scope: !5, entity: !559, line: 1220)
!559 = !DISubprogram(name: "tgammal", scope: !234, file: !234, line: 241, type: !304, isLocal: false, isDefinition: false, flags: DIFlagPrototyped, isOptimized: false)
!560 = !DIImportedEntity(tag: DW_TAG_imported_declaration, scope: !5, entity: !561, line: 1222)
!561 = !DISubprogram(name: "trunc", scope: !234, file: !234, line: 308, type: !235, isLocal: false, isDefinition: false, flags: DIFlagPrototyped, isOptimized: false)
!562 = !DIImportedEntity(tag: DW_TAG_imported_declaration, scope: !5, entity: !563, line: 1223)
!563 = !DISubprogram(name: "truncf", scope: !234, file: !234, line: 308, type: !300, isLocal: false, isDefinition: false, flags: DIFlagPrototyped, isOptimized: false)
!564 = !DIImportedEntity(tag: DW_TAG_imported_declaration, scope: !5, entity: !565, line: 1224)
!565 = !DISubprogram(name: "truncl", scope: !234, file: !234, line: 308, type: !304, isLocal: false, isDefinition: false, flags: DIFlagPrototyped, isOptimized: false)
!566 = !DIImportedEntity(tag: DW_TAG_imported_declaration, scope: !0, entity: !567, line: 38)
!567 = !DISubprogram(name: "abs", linkageName: "_ZSt3abse", scope: !5, file: !568, line: 78, type: !304, isLocal: false, isDefinition: false, flags: DIFlagPrototyped, isOptimized: false)
!568 = !DIFile(filename: "/apps/xilinx/2018.2/SDK/2018.2/gnu/aarch64/lin/aarch64-linux/aarch64-linux-gnu/include/c++/7.2.1/bits/std_abs.h", directory: "/home/ylxiao_seas_upenn_edu/Roseetta/rosetta/digit-recognition")
!569 = !DIImportedEntity(tag: DW_TAG_imported_declaration, scope: !0, entity: !570, line: 54)
!570 = !DISubprogram(name: "modf", linkageName: "_ZSt4modfePe", scope: !5, file: !571, line: 380, type: !572, isLocal: false, isDefinition: false, flags: DIFlagPrototyped, isOptimized: false)
!571 = !DIFile(filename: "/apps/xilinx/2018.2/SDK/2018.2/gnu/aarch64/lin/aarch64-linux/aarch64-linux-gnu/include/c++/7.2.1/cmath", directory: "/home/ylxiao_seas_upenn_edu/Roseetta/rosetta/digit-recognition")
!572 = !DISubroutineType(types: !573)
!573 = !{!306, !306, !574}
!574 = !DIDerivedType(tag: DW_TAG_pointer_type, baseType: !306, size: 64, align: 64)
!575 = !DIImportedEntity(tag: DW_TAG_imported_module, scope: !576, entity: !578, line: 58)
!576 = !DINamespace(name: "__gnu_debug", scope: null, file: !577, line: 56)
!577 = !DIFile(filename: "/apps/xilinx/2018.2/SDK/2018.2/gnu/aarch64/lin/aarch64-linux/aarch64-linux-gnu/include/c++/7.2.1/debug/debug.h", directory: "/home/ylxiao_seas_upenn_edu/Roseetta/rosetta/digit-recognition")
!578 = !DINamespace(name: "__debug", scope: !5, file: !577, line: 50)
!579 = !DIImportedEntity(tag: DW_TAG_imported_declaration, scope: !5, entity: !580, line: 124)
!580 = !DIDerivedType(tag: DW_TAG_typedef, name: "div_t", file: !231, line: 62, baseType: !581)
!581 = !DICompositeType(tag: DW_TAG_structure_type, file: !231, line: 58, size: 64, align: 32, flags: DIFlagFwdDecl, identifier: "_ZTS5div_t")
!582 = !DIImportedEntity(tag: DW_TAG_imported_declaration, scope: !5, entity: !583, line: 125)
!583 = !DIDerivedType(tag: DW_TAG_typedef, name: "ldiv_t", file: !231, line: 70, baseType: !584)
!584 = distinct !DICompositeType(tag: DW_TAG_structure_type, file: !231, line: 66, size: 128, align: 64, elements: !585, identifier: "_ZTS6ldiv_t")
!585 = !{!586, !587}
!586 = !DIDerivedType(tag: DW_TAG_member, name: "quot", scope: !584, file: !231, line: 68, baseType: !104, size: 64, align: 64)
!587 = !DIDerivedType(tag: DW_TAG_member, name: "rem", scope: !584, file: !231, line: 69, baseType: !104, size: 64, align: 64, offset: 64)
!588 = !DIImportedEntity(tag: DW_TAG_imported_declaration, scope: !5, entity: !589, line: 127)
!589 = !DISubprogram(name: "abort", scope: !231, file: !231, line: 473, type: !590, isLocal: false, isDefinition: false, flags: DIFlagPrototyped, isOptimized: false)
!590 = !DISubroutineType(types: !591)
!591 = !{null}
!592 = !DIImportedEntity(tag: DW_TAG_imported_declaration, scope: !5, entity: !593, line: 128)
!593 = !DISubprogram(name: "atexit", scope: !231, file: !231, line: 477, type: !594, isLocal: false, isDefinition: false, flags: DIFlagPrototyped, isOptimized: false)
!594 = !DISubroutineType(types: !595)
!595 = !{!15, !596}
!596 = !DIDerivedType(tag: DW_TAG_pointer_type, baseType: !590, size: 64, align: 64)
!597 = !DIImportedEntity(tag: DW_TAG_imported_declaration, scope: !5, entity: !598, line: 131)
!598 = !DISubprogram(name: "at_quick_exit", scope: !231, file: !231, line: 482, type: !594, isLocal: false, isDefinition: false, flags: DIFlagPrototyped, isOptimized: false)
!599 = !DIImportedEntity(tag: DW_TAG_imported_declaration, scope: !5, entity: !600, line: 134)
!600 = !DISubprogram(name: "atof", scope: !231, file: !231, line: 101, type: !470, isLocal: false, isDefinition: false, flags: DIFlagPrototyped, isOptimized: false)
!601 = !DIImportedEntity(tag: DW_TAG_imported_declaration, scope: !5, entity: !602, line: 135)
!602 = !DISubprogram(name: "atoi", scope: !231, file: !231, line: 104, type: !148, isLocal: false, isDefinition: false, flags: DIFlagPrototyped, isOptimized: false)
!603 = !DIImportedEntity(tag: DW_TAG_imported_declaration, scope: !5, entity: !604, line: 136)
!604 = !DISubprogram(name: "atol", scope: !231, file: !231, line: 107, type: !605, isLocal: false, isDefinition: false, flags: DIFlagPrototyped, isOptimized: false)
!605 = !DISubroutineType(types: !606)
!606 = !{!104, !71}
!607 = !DIImportedEntity(tag: DW_TAG_imported_declaration, scope: !5, entity: !608, line: 137)
!608 = !DISubprogram(name: "bsearch", scope: !231, file: !231, line: 702, type: !609, isLocal: false, isDefinition: false, flags: DIFlagPrototyped, isOptimized: false)
!609 = !DISubroutineType(types: !610)
!610 = !{!93, !120, !120, !89, !89, !611}
!611 = !DIDerivedType(tag: DW_TAG_typedef, name: "__compar_fn_t", file: !231, line: 690, baseType: !612)
!612 = !DIDerivedType(tag: DW_TAG_pointer_type, baseType: !613, size: 64, align: 64)
!613 = !DISubroutineType(types: !614)
!614 = !{!15, !120, !120}
!615 = !DIImportedEntity(tag: DW_TAG_imported_declaration, scope: !5, entity: !616, line: 138)
!616 = !DISubprogram(name: "calloc", scope: !231, file: !231, line: 426, type: !617, isLocal: false, isDefinition: false, flags: DIFlagPrototyped, isOptimized: false)
!617 = !DISubroutineType(types: !618)
!618 = !{!93, !89, !89}
!619 = !DIImportedEntity(tag: DW_TAG_imported_declaration, scope: !5, entity: !620, line: 139)
!620 = !DISubprogram(name: "div", scope: !231, file: !231, line: 734, type: !621, isLocal: false, isDefinition: false, flags: DIFlagPrototyped, isOptimized: false)
!621 = !DISubroutineType(types: !622)
!622 = !{!580, !15, !15}
!623 = !DIImportedEntity(tag: DW_TAG_imported_declaration, scope: !5, entity: !624, line: 140)
!624 = !DISubprogram(name: "exit", scope: !231, file: !231, line: 499, type: !625, isLocal: false, isDefinition: false, flags: DIFlagPrototyped, isOptimized: false)
!625 = !DISubroutineType(types: !626)
!626 = !{null, !15}
!627 = !DIImportedEntity(tag: DW_TAG_imported_declaration, scope: !5, entity: !628, line: 141)
!628 = !DISubprogram(name: "free", scope: !231, file: !231, line: 448, type: !629, isLocal: false, isDefinition: false, flags: DIFlagPrototyped, isOptimized: false)
!629 = !DISubroutineType(types: !630)
!630 = !{null, !93}
!631 = !DIImportedEntity(tag: DW_TAG_imported_declaration, scope: !5, entity: !632, line: 142)
!632 = !DISubprogram(name: "getenv", scope: !231, file: !231, line: 516, type: !633, isLocal: false, isDefinition: false, flags: DIFlagPrototyped, isOptimized: false)
!633 = !DISubroutineType(types: !634)
!634 = !{!63, !71}
!635 = !DIImportedEntity(tag: DW_TAG_imported_declaration, scope: !5, entity: !636, line: 143)
!636 = !DISubprogram(name: "labs", scope: !231, file: !231, line: 723, type: !637, isLocal: false, isDefinition: false, flags: DIFlagPrototyped, isOptimized: false)
!637 = !DISubroutineType(types: !638)
!638 = !{!104, !104}
!639 = !DIImportedEntity(tag: DW_TAG_imported_declaration, scope: !5, entity: !640, line: 144)
!640 = !DISubprogram(name: "ldiv", scope: !231, file: !231, line: 736, type: !641, isLocal: false, isDefinition: false, flags: DIFlagPrototyped, isOptimized: false)
!641 = !DISubroutineType(types: !642)
!642 = !{!583, !104, !104}
!643 = !DIImportedEntity(tag: DW_TAG_imported_declaration, scope: !5, entity: !644, line: 145)
!644 = !DISubprogram(name: "malloc", scope: !231, file: !231, line: 424, type: !645, isLocal: false, isDefinition: false, flags: DIFlagPrototyped, isOptimized: false)
!645 = !DISubroutineType(types: !646)
!646 = !{!93, !89}
!647 = !DIImportedEntity(tag: DW_TAG_imported_declaration, scope: !5, entity: !648, line: 147)
!648 = !DISubprogram(name: "mblen", scope: !231, file: !231, line: 804, type: !649, isLocal: false, isDefinition: false, flags: DIFlagPrototyped, isOptimized: false)
!649 = !DISubroutineType(types: !650)
!650 = !{!15, !71, !89}
!651 = !DIImportedEntity(tag: DW_TAG_imported_declaration, scope: !5, entity: !652, line: 148)
!652 = !DISubprogram(name: "mbstowcs", scope: !231, file: !231, line: 815, type: !653, isLocal: false, isDefinition: false, flags: DIFlagPrototyped, isOptimized: false)
!653 = !DISubroutineType(types: !654)
!654 = !{!89, !655, !70, !89}
!655 = !DIDerivedType(tag: DW_TAG_restrict_type, baseType: !656)
!656 = !DIDerivedType(tag: DW_TAG_pointer_type, baseType: !657, size: 64, align: 64)
!657 = !DIBasicType(name: "wchar_t", size: 32, align: 32, encoding: DW_ATE_unsigned)
!658 = !DIImportedEntity(tag: DW_TAG_imported_declaration, scope: !5, entity: !659, line: 149)
!659 = !DISubprogram(name: "mbtowc", scope: !231, file: !231, line: 807, type: !660, isLocal: false, isDefinition: false, flags: DIFlagPrototyped, isOptimized: false)
!660 = !DISubroutineType(types: !661)
!661 = !{!15, !655, !70, !89}
!662 = !DIImportedEntity(tag: DW_TAG_imported_declaration, scope: !5, entity: !663, line: 151)
!663 = !DISubprogram(name: "qsort", scope: !231, file: !231, line: 712, type: !664, isLocal: false, isDefinition: false, flags: DIFlagPrototyped, isOptimized: false)
!664 = !DISubroutineType(types: !665)
!665 = !{null, !93, !89, !89, !611}
!666 = !DIImportedEntity(tag: DW_TAG_imported_declaration, scope: !5, entity: !667, line: 154)
!667 = !DISubprogram(name: "quick_exit", scope: !231, file: !231, line: 505, type: !625, isLocal: false, isDefinition: false, flags: DIFlagPrototyped, isOptimized: false)
!668 = !DIImportedEntity(tag: DW_TAG_imported_declaration, scope: !5, entity: !669, line: 157)
!669 = !DISubprogram(name: "rand", scope: !231, file: !231, line: 338, type: !126, isLocal: false, isDefinition: false, flags: DIFlagPrototyped, isOptimized: false)
!670 = !DIImportedEntity(tag: DW_TAG_imported_declaration, scope: !5, entity: !671, line: 158)
!671 = !DISubprogram(name: "realloc", scope: !231, file: !231, line: 434, type: !672, isLocal: false, isDefinition: false, flags: DIFlagPrototyped, isOptimized: false)
!672 = !DISubroutineType(types: !673)
!673 = !{!93, !93, !89}
!674 = !DIImportedEntity(tag: DW_TAG_imported_declaration, scope: !5, entity: !675, line: 159)
!675 = !DISubprogram(name: "srand", scope: !231, file: !231, line: 340, type: !676, isLocal: false, isDefinition: false, flags: DIFlagPrototyped, isOptimized: false)
!676 = !DISubroutineType(types: !677)
!677 = !{null, !678}
!678 = !DIBasicType(name: "unsigned int", size: 32, align: 32, encoding: DW_ATE_unsigned)
!679 = !DIImportedEntity(tag: DW_TAG_imported_declaration, scope: !5, entity: !680, line: 160)
!680 = !DISubprogram(name: "strtod", scope: !231, file: !231, line: 117, type: !681, isLocal: false, isDefinition: false, flags: DIFlagPrototyped, isOptimized: false)
!681 = !DISubroutineType(types: !682)
!682 = !{!237, !70, !683}
!683 = !DIDerivedType(tag: DW_TAG_restrict_type, baseType: !684)
!684 = !DIDerivedType(tag: DW_TAG_pointer_type, baseType: !63, size: 64, align: 64)
!685 = !DIImportedEntity(tag: DW_TAG_imported_declaration, scope: !5, entity: !686, line: 161)
!686 = !DISubprogram(name: "strtol", scope: !231, file: !231, line: 139, type: !687, isLocal: false, isDefinition: false, flags: DIFlagPrototyped, isOptimized: false)
!687 = !DISubroutineType(types: !688)
!688 = !{!104, !70, !683, !15}
!689 = !DIImportedEntity(tag: DW_TAG_imported_declaration, scope: !5, entity: !690, line: 162)
!690 = !DISubprogram(name: "strtoul", scope: !231, file: !231, line: 143, type: !691, isLocal: false, isDefinition: false, flags: DIFlagPrototyped, isOptimized: false)
!691 = !DISubroutineType(types: !692)
!692 = !{!91, !70, !683, !15}
!693 = !DIImportedEntity(tag: DW_TAG_imported_declaration, scope: !5, entity: !694, line: 163)
!694 = !DISubprogram(name: "system", scope: !231, file: !231, line: 666, type: !148, isLocal: false, isDefinition: false, flags: DIFlagPrototyped, isOptimized: false)
!695 = !DIImportedEntity(tag: DW_TAG_imported_declaration, scope: !5, entity: !696, line: 165)
!696 = !DISubprogram(name: "wcstombs", scope: !231, file: !231, line: 818, type: !697, isLocal: false, isDefinition: false, flags: DIFlagPrototyped, isOptimized: false)
!697 = !DISubroutineType(types: !698)
!698 = !{!89, !65, !699, !89}
!699 = !DIDerivedType(tag: DW_TAG_restrict_type, baseType: !700)
!700 = !DIDerivedType(tag: DW_TAG_pointer_type, baseType: !701, size: 64, align: 64)
!701 = !DIDerivedType(tag: DW_TAG_const_type, baseType: !657)
!702 = !DIImportedEntity(tag: DW_TAG_imported_declaration, scope: !5, entity: !703, line: 166)
!703 = !DISubprogram(name: "wctomb", scope: !231, file: !231, line: 811, type: !704, isLocal: false, isDefinition: false, flags: DIFlagPrototyped, isOptimized: false)
!704 = !DISubroutineType(types: !705)
!705 = !{!15, !63, !657}
!706 = !DIImportedEntity(tag: DW_TAG_imported_declaration, scope: !208, entity: !707, line: 194)
!707 = !DIDerivedType(tag: DW_TAG_typedef, name: "lldiv_t", file: !231, line: 80, baseType: !708)
!708 = distinct !DICompositeType(tag: DW_TAG_structure_type, file: !231, line: 76, size: 128, align: 64, elements: !709, identifier: "_ZTS7lldiv_t")
!709 = !{!710, !711}
!710 = !DIDerivedType(tag: DW_TAG_member, name: "quot", scope: !708, file: !231, line: 78, baseType: !417, size: 64, align: 64)
!711 = !DIDerivedType(tag: DW_TAG_member, name: "rem", scope: !708, file: !231, line: 79, baseType: !417, size: 64, align: 64, offset: 64)
!712 = !DIImportedEntity(tag: DW_TAG_imported_declaration, scope: !208, entity: !713, line: 200)
!713 = !DISubprogram(name: "_Exit", scope: !231, file: !231, line: 511, type: !625, isLocal: false, isDefinition: false, flags: DIFlagPrototyped, isOptimized: false)
!714 = !DIImportedEntity(tag: DW_TAG_imported_declaration, scope: !208, entity: !715, line: 204)
!715 = !DISubprogram(name: "llabs", scope: !231, file: !231, line: 726, type: !716, isLocal: false, isDefinition: false, flags: DIFlagPrototyped, isOptimized: false)
!716 = !DISubroutineType(types: !717)
!717 = !{!417, !417}
!718 = !DIImportedEntity(tag: DW_TAG_imported_declaration, scope: !208, entity: !719, line: 210)
!719 = !DISubprogram(name: "lldiv", scope: !231, file: !231, line: 740, type: !720, isLocal: false, isDefinition: false, flags: DIFlagPrototyped, isOptimized: false)
!720 = !DISubroutineType(types: !721)
!721 = !{!707, !417, !417}
!722 = !DIImportedEntity(tag: DW_TAG_imported_declaration, scope: !208, entity: !723, line: 221)
!723 = !DISubprogram(name: "atoll", scope: !231, file: !231, line: 112, type: !724, isLocal: false, isDefinition: false, flags: DIFlagPrototyped, isOptimized: false)
!724 = !DISubroutineType(types: !725)
!725 = !{!417, !71}
!726 = !DIImportedEntity(tag: DW_TAG_imported_declaration, scope: !208, entity: !727, line: 222)
!727 = !DISubprogram(name: "strtoll", scope: !231, file: !231, line: 163, type: !728, isLocal: false, isDefinition: false, flags: DIFlagPrototyped, isOptimized: false)
!728 = !DISubroutineType(types: !729)
!729 = !{!417, !70, !683, !15}
!730 = !DIImportedEntity(tag: DW_TAG_imported_declaration, scope: !208, entity: !731, line: 223)
!731 = !DISubprogram(name: "strtoull", scope: !231, file: !231, line: 168, type: !732, isLocal: false, isDefinition: false, flags: DIFlagPrototyped, isOptimized: false)
!732 = !DISubroutineType(types: !733)
!733 = !{!734, !70, !683, !15}
!734 = !DIBasicType(name: "long long unsigned int", size: 64, align: 64, encoding: DW_ATE_unsigned)
!735 = !DIImportedEntity(tag: DW_TAG_imported_declaration, scope: !208, entity: !736, line: 225)
!736 = !DISubprogram(name: "strtof", scope: !231, file: !231, line: 123, type: !737, isLocal: false, isDefinition: false, flags: DIFlagPrototyped, isOptimized: false)
!737 = !DISubroutineType(types: !738)
!738 = !{!295, !70, !683}
!739 = !DIImportedEntity(tag: DW_TAG_imported_declaration, scope: !208, entity: !740, line: 226)
!740 = !DISubprogram(name: "strtold", scope: !231, file: !231, line: 126, type: !741, isLocal: false, isDefinition: false, flags: DIFlagPrototyped, isOptimized: false)
!741 = !DISubroutineType(types: !742)
!742 = !{!306, !70, !683}
!743 = !DIImportedEntity(tag: DW_TAG_imported_declaration, scope: !5, entity: !707, line: 234)
!744 = !DIImportedEntity(tag: DW_TAG_imported_declaration, scope: !5, entity: !713, line: 236)
!745 = !DIImportedEntity(tag: DW_TAG_imported_declaration, scope: !5, entity: !715, line: 238)
!746 = !DIImportedEntity(tag: DW_TAG_imported_declaration, scope: !5, entity: !747, line: 239)
!747 = !DISubprogram(name: "div", linkageName: "_ZN9__gnu_cxx3divExx", scope: !208, file: !748, line: 207, type: !720, isLocal: false, isDefinition: false, flags: DIFlagPrototyped, isOptimized: false)
!748 = !DIFile(filename: "/apps/xilinx/2018.2/SDK/2018.2/gnu/aarch64/lin/aarch64-linux/aarch64-linux-gnu/include/c++/7.2.1/cstdlib", directory: "/home/ylxiao_seas_upenn_edu/Roseetta/rosetta/digit-recognition")
!749 = !DIImportedEntity(tag: DW_TAG_imported_declaration, scope: !5, entity: !719, line: 240)
!750 = !DIImportedEntity(tag: DW_TAG_imported_declaration, scope: !5, entity: !723, line: 242)
!751 = !DIImportedEntity(tag: DW_TAG_imported_declaration, scope: !5, entity: !736, line: 243)
!752 = !DIImportedEntity(tag: DW_TAG_imported_declaration, scope: !5, entity: !727, line: 244)
!753 = !DIImportedEntity(tag: DW_TAG_imported_declaration, scope: !5, entity: !731, line: 245)
!754 = !DIImportedEntity(tag: DW_TAG_imported_declaration, scope: !5, entity: !740, line: 246)
!755 = !DIImportedEntity(tag: DW_TAG_imported_declaration, scope: !5, entity: !756, line: 57)
!756 = distinct !DICompositeType(tag: DW_TAG_class_type, name: "exception_ptr", scope: !758, file: !757, line: 79, size: 64, align: 64, elements: !759, identifier: "_ZTSNSt15__exception_ptr13exception_ptrE")
!757 = !DIFile(filename: "/apps/xilinx/2018.2/SDK/2018.2/gnu/aarch64/lin/aarch64-linux/aarch64-linux-gnu/include/c++/7.2.1/bits/exception_ptr.h", directory: "/home/ylxiao_seas_upenn_edu/Roseetta/rosetta/digit-recognition")
!758 = !DINamespace(name: "__exception_ptr", scope: !5, file: !757, line: 52)
!759 = !{!760, !761, !765, !768, !769, !774, !775, !779, !784, !788, !792, !795, !796, !799, !802}
!760 = !DIDerivedType(tag: DW_TAG_member, name: "_M_exception_object", scope: !756, file: !757, line: 81, baseType: !93, size: 64, align: 64)
!761 = !DISubprogram(name: "exception_ptr", scope: !756, file: !757, line: 83, type: !762, isLocal: false, isDefinition: false, scopeLine: 83, flags: DIFlagExplicit | DIFlagPrototyped, isOptimized: false)
!762 = !DISubroutineType(types: !763)
!763 = !{null, !764, !93}
!764 = !DIDerivedType(tag: DW_TAG_pointer_type, baseType: !756, size: 64, align: 64, flags: DIFlagArtificial | DIFlagObjectPointer)
!765 = !DISubprogram(name: "_M_addref", linkageName: "_ZNSt15__exception_ptr13exception_ptr9_M_addrefEv", scope: !756, file: !757, line: 85, type: !766, isLocal: false, isDefinition: false, scopeLine: 85, flags: DIFlagPrototyped, isOptimized: false)
!766 = !DISubroutineType(types: !767)
!767 = !{null, !764}
!768 = !DISubprogram(name: "_M_release", linkageName: "_ZNSt15__exception_ptr13exception_ptr10_M_releaseEv", scope: !756, file: !757, line: 86, type: !766, isLocal: false, isDefinition: false, scopeLine: 86, flags: DIFlagPrototyped, isOptimized: false)
!769 = !DISubprogram(name: "_M_get", linkageName: "_ZNKSt15__exception_ptr13exception_ptr6_M_getEv", scope: !756, file: !757, line: 88, type: !770, isLocal: false, isDefinition: false, scopeLine: 88, flags: DIFlagPrototyped, isOptimized: false)
!770 = !DISubroutineType(types: !771)
!771 = !{!93, !772}
!772 = !DIDerivedType(tag: DW_TAG_pointer_type, baseType: !773, size: 64, align: 64, flags: DIFlagArtificial | DIFlagObjectPointer)
!773 = !DIDerivedType(tag: DW_TAG_const_type, baseType: !756)
!774 = !DISubprogram(name: "exception_ptr", scope: !756, file: !757, line: 96, type: !766, isLocal: false, isDefinition: false, scopeLine: 96, flags: DIFlagPublic | DIFlagPrototyped, isOptimized: false)
!775 = !DISubprogram(name: "exception_ptr", scope: !756, file: !757, line: 98, type: !776, isLocal: false, isDefinition: false, scopeLine: 98, flags: DIFlagPublic | DIFlagPrototyped, isOptimized: false)
!776 = !DISubroutineType(types: !777)
!777 = !{null, !764, !778}
!778 = !DIDerivedType(tag: DW_TAG_reference_type, baseType: !773, size: 64, align: 64)
!779 = !DISubprogram(name: "exception_ptr", scope: !756, file: !757, line: 101, type: !780, isLocal: false, isDefinition: false, scopeLine: 101, flags: DIFlagPublic | DIFlagPrototyped, isOptimized: false)
!780 = !DISubroutineType(types: !781)
!781 = !{null, !764, !782}
!782 = !DIDerivedType(tag: DW_TAG_typedef, name: "nullptr_t", scope: !5, file: !6, line: 235, baseType: !783)
!783 = !DIBasicType(tag: DW_TAG_unspecified_type, name: "decltype(nullptr)")
!784 = !DISubprogram(name: "exception_ptr", scope: !756, file: !757, line: 105, type: !785, isLocal: false, isDefinition: false, scopeLine: 105, flags: DIFlagPublic | DIFlagPrototyped, isOptimized: false)
!785 = !DISubroutineType(types: !786)
!786 = !{null, !764, !787}
!787 = !DIDerivedType(tag: DW_TAG_rvalue_reference_type, baseType: !756, size: 64, align: 64)
!788 = !DISubprogram(name: "operator=", linkageName: "_ZNSt15__exception_ptr13exception_ptraSERKS0_", scope: !756, file: !757, line: 118, type: !789, isLocal: false, isDefinition: false, scopeLine: 118, flags: DIFlagPublic | DIFlagPrototyped, isOptimized: false)
!789 = !DISubroutineType(types: !790)
!790 = !{!791, !764, !778}
!791 = !DIDerivedType(tag: DW_TAG_reference_type, baseType: !756, size: 64, align: 64)
!792 = !DISubprogram(name: "operator=", linkageName: "_ZNSt15__exception_ptr13exception_ptraSEOS0_", scope: !756, file: !757, line: 122, type: !793, isLocal: false, isDefinition: false, scopeLine: 122, flags: DIFlagPublic | DIFlagPrototyped, isOptimized: false)
!793 = !DISubroutineType(types: !794)
!794 = !{!791, !764, !787}
!795 = !DISubprogram(name: "~exception_ptr", scope: !756, file: !757, line: 129, type: !766, isLocal: false, isDefinition: false, scopeLine: 129, flags: DIFlagPublic | DIFlagPrototyped, isOptimized: false)
!796 = !DISubprogram(name: "swap", linkageName: "_ZNSt15__exception_ptr13exception_ptr4swapERS0_", scope: !756, file: !757, line: 132, type: !797, isLocal: false, isDefinition: false, scopeLine: 132, flags: DIFlagPublic | DIFlagPrototyped, isOptimized: false)
!797 = !DISubroutineType(types: !798)
!798 = !{null, !764, !791}
!799 = !DISubprogram(name: "operator bool", linkageName: "_ZNKSt15__exception_ptr13exception_ptrcvbEv", scope: !756, file: !757, line: 144, type: !800, isLocal: false, isDefinition: false, scopeLine: 144, flags: DIFlagPublic | DIFlagExplicit | DIFlagPrototyped, isOptimized: false)
!800 = !DISubroutineType(types: !801)
!801 = !{!17, !772}
!802 = !DISubprogram(name: "__cxa_exception_type", linkageName: "_ZNKSt15__exception_ptr13exception_ptr20__cxa_exception_typeEv", scope: !756, file: !757, line: 153, type: !803, isLocal: false, isDefinition: false, scopeLine: 153, flags: DIFlagPublic | DIFlagPrototyped, isOptimized: false)
!803 = !DISubroutineType(types: !804)
!804 = !{!805, !772}
!805 = !DIDerivedType(tag: DW_TAG_pointer_type, baseType: !806, size: 64, align: 64)
!806 = !DIDerivedType(tag: DW_TAG_const_type, baseType: !807)
!807 = !DICompositeType(tag: DW_TAG_class_type, name: "type_info", scope: !5, file: !808, line: 88, size: 128, align: 64, flags: DIFlagFwdDecl, identifier: "_ZTSSt9type_info")
!808 = !DIFile(filename: "/apps/xilinx/2018.2/SDK/2018.2/gnu/aarch64/lin/aarch64-linux/aarch64-linux-gnu/include/c++/7.2.1/typeinfo", directory: "/home/ylxiao_seas_upenn_edu/Roseetta/rosetta/digit-recognition")
!809 = !DIImportedEntity(tag: DW_TAG_imported_declaration, scope: !758, entity: !810, line: 73)
!810 = !DISubprogram(name: "rethrow_exception", linkageName: "_ZSt17rethrow_exceptionNSt15__exception_ptr13exception_ptrE", scope: !5, file: !757, line: 69, type: !811, isLocal: false, isDefinition: false, flags: DIFlagPrototyped, isOptimized: false)
!811 = !DISubroutineType(types: !812)
!812 = !{null, !756}
!813 = !DIImportedEntity(tag: DW_TAG_imported_declaration, scope: !5, entity: !814, line: 64)
!814 = !DIDerivedType(tag: DW_TAG_typedef, name: "mbstate_t", file: !815, line: 6, baseType: !816)
!815 = !DIFile(filename: "/apps/xilinx/2018.2/SDK/2018.2/gnu/aarch64/lin/aarch64-linux/aarch64-linux-gnu/libc/usr/include/bits/types/mbstate_t.h", directory: "/home/ylxiao_seas_upenn_edu/Roseetta/rosetta/digit-recognition")
!816 = !DIDerivedType(tag: DW_TAG_typedef, name: "__mbstate_t", file: !817, line: 21, baseType: !818)
!817 = !DIFile(filename: "/apps/xilinx/2018.2/SDK/2018.2/gnu/aarch64/lin/aarch64-linux/aarch64-linux-gnu/libc/usr/include/bits/types/__mbstate_t.h", directory: "/home/ylxiao_seas_upenn_edu/Roseetta/rosetta/digit-recognition")
!818 = distinct !DICompositeType(tag: DW_TAG_structure_type, file: !817, line: 13, size: 64, align: 32, elements: !819, identifier: "_ZTS11__mbstate_t")
!819 = !{!820, !821}
!820 = !DIDerivedType(tag: DW_TAG_member, name: "__count", scope: !818, file: !817, line: 15, baseType: !15, size: 32, align: 32)
!821 = !DIDerivedType(tag: DW_TAG_member, name: "__value", scope: !818, file: !817, line: 20, baseType: !822, size: 32, align: 32, offset: 32)
!822 = distinct !DICompositeType(tag: DW_TAG_union_type, scope: !818, file: !817, line: 16, size: 32, align: 32, elements: !823, identifier: "_ZTSN11__mbstate_tUt_E")
!823 = !{!824, !825}
!824 = !DIDerivedType(tag: DW_TAG_member, name: "__wch", scope: !822, file: !817, line: 18, baseType: !678, size: 32, align: 32)
!825 = !DIDerivedType(tag: DW_TAG_member, name: "__wchb", scope: !822, file: !817, line: 19, baseType: !826, size: 32, align: 8)
!826 = !DICompositeType(tag: DW_TAG_array_type, baseType: !64, size: 32, align: 8, elements: !827)
!827 = !{!828}
!828 = !DISubrange(count: 4)
!829 = !DIImportedEntity(tag: DW_TAG_imported_declaration, scope: !5, entity: !830, line: 139)
!830 = !DIDerivedType(tag: DW_TAG_typedef, name: "wint_t", file: !831, line: 20, baseType: !678)
!831 = !DIFile(filename: "/apps/xilinx/2018.2/SDK/2018.2/gnu/aarch64/lin/aarch64-linux/aarch64-linux-gnu/libc/usr/include/bits/types/wint_t.h", directory: "/home/ylxiao_seas_upenn_edu/Roseetta/rosetta/digit-recognition")
!832 = !DIImportedEntity(tag: DW_TAG_imported_declaration, scope: !5, entity: !833, line: 141)
!833 = !DISubprogram(name: "btowc", scope: !834, file: !834, line: 284, type: !835, isLocal: false, isDefinition: false, flags: DIFlagPrototyped, isOptimized: false)
!834 = !DIFile(filename: "/apps/xilinx/2018.2/SDK/2018.2/gnu/aarch64/lin/aarch64-linux/aarch64-linux-gnu/libc/usr/include/wchar.h", directory: "/home/ylxiao_seas_upenn_edu/Roseetta/rosetta/digit-recognition")
!835 = !DISubroutineType(types: !836)
!836 = !{!830, !15}
!837 = !DIImportedEntity(tag: DW_TAG_imported_declaration, scope: !5, entity: !838, line: 142)
!838 = !DISubprogram(name: "fgetwc", scope: !834, file: !834, line: 660, type: !839, isLocal: false, isDefinition: false, flags: DIFlagPrototyped, isOptimized: false)
!839 = !DISubroutineType(types: !840)
!840 = !{!830, !841}
!841 = !DIDerivedType(tag: DW_TAG_pointer_type, baseType: !842, size: 64, align: 64)
!842 = !DIDerivedType(tag: DW_TAG_typedef, name: "__FILE", file: !843, line: 5, baseType: !27)
!843 = !DIFile(filename: "/apps/xilinx/2018.2/SDK/2018.2/gnu/aarch64/lin/aarch64-linux/aarch64-linux-gnu/libc/usr/include/bits/types/__FILE.h", directory: "/home/ylxiao_seas_upenn_edu/Roseetta/rosetta/digit-recognition")
!844 = !DIImportedEntity(tag: DW_TAG_imported_declaration, scope: !5, entity: !845, line: 143)
!845 = !DISubprogram(name: "fgetws", scope: !834, file: !834, line: 689, type: !846, isLocal: false, isDefinition: false, flags: DIFlagPrototyped, isOptimized: false)
!846 = !DISubroutineType(types: !847)
!847 = !{!656, !655, !15, !848}
!848 = !DIDerivedType(tag: DW_TAG_restrict_type, baseType: !841)
!849 = !DIImportedEntity(tag: DW_TAG_imported_declaration, scope: !5, entity: !850, line: 144)
!850 = !DISubprogram(name: "fputwc", scope: !834, file: !834, line: 674, type: !851, isLocal: false, isDefinition: false, flags: DIFlagPrototyped, isOptimized: false)
!851 = !DISubroutineType(types: !852)
!852 = !{!830, !657, !841}
!853 = !DIImportedEntity(tag: DW_TAG_imported_declaration, scope: !5, entity: !854, line: 145)
!854 = !DISubprogram(name: "fputws", scope: !834, file: !834, line: 696, type: !855, isLocal: false, isDefinition: false, flags: DIFlagPrototyped, isOptimized: false)
!855 = !DISubroutineType(types: !856)
!856 = !{!15, !699, !848}
!857 = !DIImportedEntity(tag: DW_TAG_imported_declaration, scope: !5, entity: !858, line: 146)
!858 = !DISubprogram(name: "fwide", scope: !834, file: !834, line: 506, type: !859, isLocal: false, isDefinition: false, flags: DIFlagPrototyped, isOptimized: false)
!859 = !DISubroutineType(types: !860)
!860 = !{!15, !841, !15}
!861 = !DIImportedEntity(tag: DW_TAG_imported_declaration, scope: !5, entity: !862, line: 147)
!862 = !DISubprogram(name: "fwprintf", scope: !834, file: !834, line: 513, type: !863, isLocal: false, isDefinition: false, flags: DIFlagPrototyped, isOptimized: false)
!863 = !DISubroutineType(types: !864)
!864 = !{!15, !848, !699, null}
!865 = !DIImportedEntity(tag: DW_TAG_imported_declaration, scope: !5, entity: !866, line: 148)
!866 = !DISubprogram(name: "fwscanf", scope: !834, file: !834, line: 554, type: !863, isLocal: false, isDefinition: false, flags: DIFlagPrototyped, isOptimized: false)
!867 = !DIImportedEntity(tag: DW_TAG_imported_declaration, scope: !5, entity: !868, line: 149)
!868 = !DISubprogram(name: "getwc", scope: !834, file: !834, line: 661, type: !839, isLocal: false, isDefinition: false, flags: DIFlagPrototyped, isOptimized: false)
!869 = !DIImportedEntity(tag: DW_TAG_imported_declaration, scope: !5, entity: !870, line: 150)
!870 = !DISubprogram(name: "getwchar", scope: !834, file: !834, line: 667, type: !871, isLocal: false, isDefinition: false, flags: DIFlagPrototyped, isOptimized: false)
!871 = !DISubroutineType(types: !872)
!872 = !{!830}
!873 = !DIImportedEntity(tag: DW_TAG_imported_declaration, scope: !5, entity: !874, line: 151)
!874 = !DISubprogram(name: "mbrlen", scope: !834, file: !834, line: 307, type: !875, isLocal: false, isDefinition: false, flags: DIFlagPrototyped, isOptimized: false)
!875 = !DISubroutineType(types: !876)
!876 = !{!89, !70, !89, !877}
!877 = !DIDerivedType(tag: DW_TAG_restrict_type, baseType: !878)
!878 = !DIDerivedType(tag: DW_TAG_pointer_type, baseType: !814, size: 64, align: 64)
!879 = !DIImportedEntity(tag: DW_TAG_imported_declaration, scope: !5, entity: !880, line: 152)
!880 = !DISubprogram(name: "mbrtowc", scope: !834, file: !834, line: 296, type: !881, isLocal: false, isDefinition: false, flags: DIFlagPrototyped, isOptimized: false)
!881 = !DISubroutineType(types: !882)
!882 = !{!89, !655, !70, !89, !877}
!883 = !DIImportedEntity(tag: DW_TAG_imported_declaration, scope: !5, entity: !884, line: 153)
!884 = !DISubprogram(name: "mbsinit", scope: !834, file: !834, line: 292, type: !885, isLocal: false, isDefinition: false, flags: DIFlagPrototyped, isOptimized: false)
!885 = !DISubroutineType(types: !886)
!886 = !{!15, !887}
!887 = !DIDerivedType(tag: DW_TAG_pointer_type, baseType: !888, size: 64, align: 64)
!888 = !DIDerivedType(tag: DW_TAG_const_type, baseType: !814)
!889 = !DIImportedEntity(tag: DW_TAG_imported_declaration, scope: !5, entity: !890, line: 154)
!890 = !DISubprogram(name: "mbsrtowcs", scope: !834, file: !834, line: 337, type: !891, isLocal: false, isDefinition: false, flags: DIFlagPrototyped, isOptimized: false)
!891 = !DISubroutineType(types: !892)
!892 = !{!89, !655, !893, !89, !877}
!893 = !DIDerivedType(tag: DW_TAG_restrict_type, baseType: !894)
!894 = !DIDerivedType(tag: DW_TAG_pointer_type, baseType: !71, size: 64, align: 64)
!895 = !DIImportedEntity(tag: DW_TAG_imported_declaration, scope: !5, entity: !896, line: 155)
!896 = !DISubprogram(name: "putwc", scope: !834, file: !834, line: 675, type: !851, isLocal: false, isDefinition: false, flags: DIFlagPrototyped, isOptimized: false)
!897 = !DIImportedEntity(tag: DW_TAG_imported_declaration, scope: !5, entity: !898, line: 156)
!898 = !DISubprogram(name: "putwchar", scope: !834, file: !834, line: 681, type: !899, isLocal: false, isDefinition: false, flags: DIFlagPrototyped, isOptimized: false)
!899 = !DISubroutineType(types: !900)
!900 = !{!830, !657}
!901 = !DIImportedEntity(tag: DW_TAG_imported_declaration, scope: !5, entity: !902, line: 158)
!902 = !DISubprogram(name: "swprintf", scope: !834, file: !834, line: 523, type: !903, isLocal: false, isDefinition: false, flags: DIFlagPrototyped, isOptimized: false)
!903 = !DISubroutineType(types: !904)
!904 = !{!15, !655, !89, !699, null}
!905 = !DIImportedEntity(tag: DW_TAG_imported_declaration, scope: !5, entity: !906, line: 160)
!906 = !DISubprogram(name: "swscanf", scope: !834, file: !834, line: 564, type: !907, isLocal: false, isDefinition: false, flags: DIFlagPrototyped, isOptimized: false)
!907 = !DISubroutineType(types: !908)
!908 = !{!15, !699, !699, null}
!909 = !DIImportedEntity(tag: DW_TAG_imported_declaration, scope: !5, entity: !910, line: 161)
!910 = !DISubprogram(name: "ungetwc", scope: !834, file: !834, line: 704, type: !911, isLocal: false, isDefinition: false, flags: DIFlagPrototyped, isOptimized: false)
!911 = !DISubroutineType(types: !912)
!912 = !{!830, !830, !841}
!913 = !DIImportedEntity(tag: DW_TAG_imported_declaration, scope: !5, entity: !914, line: 162)
!914 = !DISubprogram(name: "vfwprintf", scope: !834, file: !834, line: 531, type: !915, isLocal: false, isDefinition: false, flags: DIFlagPrototyped, isOptimized: false)
!915 = !DISubroutineType(types: !916)
!916 = !{!15, !848, !699, !188}
!917 = !DIImportedEntity(tag: DW_TAG_imported_declaration, scope: !5, entity: !918, line: 164)
!918 = !DISubprogram(name: "vfwscanf", scope: !834, file: !834, line: 606, type: !915, isLocal: false, isDefinition: false, flags: DIFlagPrototyped, isOptimized: false)
!919 = !DIImportedEntity(tag: DW_TAG_imported_declaration, scope: !5, entity: !920, line: 167)
!920 = !DISubprogram(name: "vswprintf", scope: !834, file: !834, line: 544, type: !921, isLocal: false, isDefinition: false, flags: DIFlagPrototyped, isOptimized: false)
!921 = !DISubroutineType(types: !922)
!922 = !{!15, !655, !89, !699, !188}
!923 = !DIImportedEntity(tag: DW_TAG_imported_declaration, scope: !5, entity: !924, line: 170)
!924 = !DISubprogram(name: "vswscanf", scope: !834, file: !834, line: 618, type: !925, isLocal: false, isDefinition: false, flags: DIFlagPrototyped, isOptimized: false)
!925 = !DISubroutineType(types: !926)
!926 = !{!15, !699, !699, !188}
!927 = !DIImportedEntity(tag: DW_TAG_imported_declaration, scope: !5, entity: !928, line: 172)
!928 = !DISubprogram(name: "vwprintf", scope: !834, file: !834, line: 539, type: !929, isLocal: false, isDefinition: false, flags: DIFlagPrototyped, isOptimized: false)
!929 = !DISubroutineType(types: !930)
!930 = !{!15, !699, !188}
!931 = !DIImportedEntity(tag: DW_TAG_imported_declaration, scope: !5, entity: !932, line: 174)
!932 = !DISubprogram(name: "vwscanf", scope: !834, file: !834, line: 614, type: !929, isLocal: false, isDefinition: false, flags: DIFlagPrototyped, isOptimized: false)
!933 = !DIImportedEntity(tag: DW_TAG_imported_declaration, scope: !5, entity: !934, line: 176)
!934 = !DISubprogram(name: "wcrtomb", scope: !834, file: !834, line: 301, type: !935, isLocal: false, isDefinition: false, flags: DIFlagPrototyped, isOptimized: false)
!935 = !DISubroutineType(types: !936)
!936 = !{!89, !65, !657, !877}
!937 = !DIImportedEntity(tag: DW_TAG_imported_declaration, scope: !5, entity: !938, line: 177)
!938 = !DISubprogram(name: "wcscat", scope: !834, file: !834, line: 97, type: !939, isLocal: false, isDefinition: false, flags: DIFlagPrototyped, isOptimized: false)
!939 = !DISubroutineType(types: !940)
!940 = !{!656, !655, !699}
!941 = !DIImportedEntity(tag: DW_TAG_imported_declaration, scope: !5, entity: !942, line: 178)
!942 = !DISubprogram(name: "wcscmp", scope: !834, file: !834, line: 106, type: !943, isLocal: false, isDefinition: false, flags: DIFlagPrototyped, isOptimized: false)
!943 = !DISubroutineType(types: !944)
!944 = !{!15, !700, !700}
!945 = !DIImportedEntity(tag: DW_TAG_imported_declaration, scope: !5, entity: !946, line: 179)
!946 = !DISubprogram(name: "wcscoll", scope: !834, file: !834, line: 131, type: !943, isLocal: false, isDefinition: false, flags: DIFlagPrototyped, isOptimized: false)
!947 = !DIImportedEntity(tag: DW_TAG_imported_declaration, scope: !5, entity: !948, line: 180)
!948 = !DISubprogram(name: "wcscpy", scope: !834, file: !834, line: 87, type: !939, isLocal: false, isDefinition: false, flags: DIFlagPrototyped, isOptimized: false)
!949 = !DIImportedEntity(tag: DW_TAG_imported_declaration, scope: !5, entity: !950, line: 181)
!950 = !DISubprogram(name: "wcscspn", scope: !834, file: !834, line: 187, type: !951, isLocal: false, isDefinition: false, flags: DIFlagPrototyped, isOptimized: false)
!951 = !DISubroutineType(types: !952)
!952 = !{!89, !700, !700}
!953 = !DIImportedEntity(tag: DW_TAG_imported_declaration, scope: !5, entity: !954, line: 182)
!954 = !DISubprogram(name: "wcsftime", scope: !834, file: !834, line: 768, type: !955, isLocal: false, isDefinition: false, flags: DIFlagPrototyped, isOptimized: false)
!955 = !DISubroutineType(types: !956)
!956 = !{!89, !655, !89, !699, !957}
!957 = !DIDerivedType(tag: DW_TAG_restrict_type, baseType: !958)
!958 = !DIDerivedType(tag: DW_TAG_pointer_type, baseType: !959, size: 64, align: 64)
!959 = !DIDerivedType(tag: DW_TAG_const_type, baseType: !960)
!960 = distinct !DICompositeType(tag: DW_TAG_structure_type, name: "tm", file: !961, line: 7, size: 448, align: 64, elements: !962, identifier: "_ZTS2tm")
!961 = !DIFile(filename: "/apps/xilinx/2018.2/SDK/2018.2/gnu/aarch64/lin/aarch64-linux/aarch64-linux-gnu/libc/usr/include/bits/types/struct_tm.h", directory: "/home/ylxiao_seas_upenn_edu/Roseetta/rosetta/digit-recognition")
!962 = !{!963, !964, !965, !966, !967, !968, !969, !970, !971, !972, !973}
!963 = !DIDerivedType(tag: DW_TAG_member, name: "tm_sec", scope: !960, file: !961, line: 9, baseType: !15, size: 32, align: 32)
!964 = !DIDerivedType(tag: DW_TAG_member, name: "tm_min", scope: !960, file: !961, line: 10, baseType: !15, size: 32, align: 32, offset: 32)
!965 = !DIDerivedType(tag: DW_TAG_member, name: "tm_hour", scope: !960, file: !961, line: 11, baseType: !15, size: 32, align: 32, offset: 64)
!966 = !DIDerivedType(tag: DW_TAG_member, name: "tm_mday", scope: !960, file: !961, line: 12, baseType: !15, size: 32, align: 32, offset: 96)
!967 = !DIDerivedType(tag: DW_TAG_member, name: "tm_mon", scope: !960, file: !961, line: 13, baseType: !15, size: 32, align: 32, offset: 128)
!968 = !DIDerivedType(tag: DW_TAG_member, name: "tm_year", scope: !960, file: !961, line: 14, baseType: !15, size: 32, align: 32, offset: 160)
!969 = !DIDerivedType(tag: DW_TAG_member, name: "tm_wday", scope: !960, file: !961, line: 15, baseType: !15, size: 32, align: 32, offset: 192)
!970 = !DIDerivedType(tag: DW_TAG_member, name: "tm_yday", scope: !960, file: !961, line: 16, baseType: !15, size: 32, align: 32, offset: 224)
!971 = !DIDerivedType(tag: DW_TAG_member, name: "tm_isdst", scope: !960, file: !961, line: 17, baseType: !15, size: 32, align: 32, offset: 256)
!972 = !DIDerivedType(tag: DW_TAG_member, name: "tm_gmtoff", scope: !960, file: !961, line: 20, baseType: !104, size: 64, align: 64, offset: 320)
!973 = !DIDerivedType(tag: DW_TAG_member, name: "tm_zone", scope: !960, file: !961, line: 21, baseType: !71, size: 64, align: 64, offset: 384)
!974 = !DIImportedEntity(tag: DW_TAG_imported_declaration, scope: !5, entity: !975, line: 183)
!975 = !DISubprogram(name: "wcslen", scope: !834, file: !834, line: 222, type: !976, isLocal: false, isDefinition: false, flags: DIFlagPrototyped, isOptimized: false)
!976 = !DISubroutineType(types: !977)
!977 = !{!89, !700}
!978 = !DIImportedEntity(tag: DW_TAG_imported_declaration, scope: !5, entity: !979, line: 184)
!979 = !DISubprogram(name: "wcsncat", scope: !834, file: !834, line: 101, type: !980, isLocal: false, isDefinition: false, flags: DIFlagPrototyped, isOptimized: false)
!980 = !DISubroutineType(types: !981)
!981 = !{!656, !655, !699, !89}
!982 = !DIImportedEntity(tag: DW_TAG_imported_declaration, scope: !5, entity: !983, line: 185)
!983 = !DISubprogram(name: "wcsncmp", scope: !834, file: !834, line: 109, type: !984, isLocal: false, isDefinition: false, flags: DIFlagPrototyped, isOptimized: false)
!984 = !DISubroutineType(types: !985)
!985 = !{!15, !700, !700, !89}
!986 = !DIImportedEntity(tag: DW_TAG_imported_declaration, scope: !5, entity: !987, line: 186)
!987 = !DISubprogram(name: "wcsncpy", scope: !834, file: !834, line: 92, type: !980, isLocal: false, isDefinition: false, flags: DIFlagPrototyped, isOptimized: false)
!988 = !DIImportedEntity(tag: DW_TAG_imported_declaration, scope: !5, entity: !989, line: 187)
!989 = !DISubprogram(name: "wcsrtombs", scope: !834, file: !834, line: 343, type: !990, isLocal: false, isDefinition: false, flags: DIFlagPrototyped, isOptimized: false)
!990 = !DISubroutineType(types: !991)
!991 = !{!89, !65, !992, !89, !877}
!992 = !DIDerivedType(tag: DW_TAG_restrict_type, baseType: !993)
!993 = !DIDerivedType(tag: DW_TAG_pointer_type, baseType: !700, size: 64, align: 64)
!994 = !DIImportedEntity(tag: DW_TAG_imported_declaration, scope: !5, entity: !995, line: 188)
!995 = !DISubprogram(name: "wcsspn", scope: !834, file: !834, line: 191, type: !951, isLocal: false, isDefinition: false, flags: DIFlagPrototyped, isOptimized: false)
!996 = !DIImportedEntity(tag: DW_TAG_imported_declaration, scope: !5, entity: !997, line: 189)
!997 = !DISubprogram(name: "wcstod", scope: !834, file: !834, line: 377, type: !998, isLocal: false, isDefinition: false, flags: DIFlagPrototyped, isOptimized: false)
!998 = !DISubroutineType(types: !999)
!999 = !{!237, !699, !1000}
!1000 = !DIDerivedType(tag: DW_TAG_restrict_type, baseType: !1001)
!1001 = !DIDerivedType(tag: DW_TAG_pointer_type, baseType: !656, size: 64, align: 64)
!1002 = !DIImportedEntity(tag: DW_TAG_imported_declaration, scope: !5, entity: !1003, line: 191)
!1003 = !DISubprogram(name: "wcstof", scope: !834, file: !834, line: 382, type: !1004, isLocal: false, isDefinition: false, flags: DIFlagPrototyped, isOptimized: false)
!1004 = !DISubroutineType(types: !1005)
!1005 = !{!295, !699, !1000}
!1006 = !DIImportedEntity(tag: DW_TAG_imported_declaration, scope: !5, entity: !1007, line: 193)
!1007 = !DISubprogram(name: "wcstok", scope: !834, file: !834, line: 217, type: !1008, isLocal: false, isDefinition: false, flags: DIFlagPrototyped, isOptimized: false)
!1008 = !DISubroutineType(types: !1009)
!1009 = !{!656, !655, !699, !1000}
!1010 = !DIImportedEntity(tag: DW_TAG_imported_declaration, scope: !5, entity: !1011, line: 194)
!1011 = !DISubprogram(name: "wcstol", scope: !834, file: !834, line: 397, type: !1012, isLocal: false, isDefinition: false, flags: DIFlagPrototyped, isOptimized: false)
!1012 = !DISubroutineType(types: !1013)
!1013 = !{!104, !699, !1000, !15}
!1014 = !DIImportedEntity(tag: DW_TAG_imported_declaration, scope: !5, entity: !1015, line: 195)
!1015 = !DISubprogram(name: "wcstoul", scope: !834, file: !834, line: 402, type: !1016, isLocal: false, isDefinition: false, flags: DIFlagPrototyped, isOptimized: false)
!1016 = !DISubroutineType(types: !1017)
!1017 = !{!91, !699, !1000, !15}
!1018 = !DIImportedEntity(tag: DW_TAG_imported_declaration, scope: !5, entity: !1019, line: 196)
!1019 = !DISubprogram(name: "wcsxfrm", scope: !834, file: !834, line: 135, type: !1020, isLocal: false, isDefinition: false, flags: DIFlagPrototyped, isOptimized: false)
!1020 = !DISubroutineType(types: !1021)
!1021 = !{!89, !655, !699, !89}
!1022 = !DIImportedEntity(tag: DW_TAG_imported_declaration, scope: !5, entity: !1023, line: 197)
!1023 = !DISubprogram(name: "wctob", scope: !834, file: !834, line: 288, type: !1024, isLocal: false, isDefinition: false, flags: DIFlagPrototyped, isOptimized: false)
!1024 = !DISubroutineType(types: !1025)
!1025 = !{!15, !830}
!1026 = !DIImportedEntity(tag: DW_TAG_imported_declaration, scope: !5, entity: !1027, line: 198)
!1027 = !DISubprogram(name: "wmemcmp", scope: !834, file: !834, line: 258, type: !984, isLocal: false, isDefinition: false, flags: DIFlagPrototyped, isOptimized: false)
!1028 = !DIImportedEntity(tag: DW_TAG_imported_declaration, scope: !5, entity: !1029, line: 199)
!1029 = !DISubprogram(name: "wmemcpy", scope: !834, file: !834, line: 262, type: !980, isLocal: false, isDefinition: false, flags: DIFlagPrototyped, isOptimized: false)
!1030 = !DIImportedEntity(tag: DW_TAG_imported_declaration, scope: !5, entity: !1031, line: 200)
!1031 = !DISubprogram(name: "wmemmove", scope: !834, file: !834, line: 267, type: !1032, isLocal: false, isDefinition: false, flags: DIFlagPrototyped, isOptimized: false)
!1032 = !DISubroutineType(types: !1033)
!1033 = !{!656, !656, !700, !89}
!1034 = !DIImportedEntity(tag: DW_TAG_imported_declaration, scope: !5, entity: !1035, line: 201)
!1035 = !DISubprogram(name: "wmemset", scope: !834, file: !834, line: 271, type: !1036, isLocal: false, isDefinition: false, flags: DIFlagPrototyped, isOptimized: false)
!1036 = !DISubroutineType(types: !1037)
!1037 = !{!656, !656, !657, !89}
!1038 = !DIImportedEntity(tag: DW_TAG_imported_declaration, scope: !5, entity: !1039, line: 202)
!1039 = !DISubprogram(name: "wprintf", scope: !834, file: !834, line: 520, type: !1040, isLocal: false, isDefinition: false, flags: DIFlagPrototyped, isOptimized: false)
!1040 = !DISubroutineType(types: !1041)
!1041 = !{!15, !699, null}
!1042 = !DIImportedEntity(tag: DW_TAG_imported_declaration, scope: !5, entity: !1043, line: 203)
!1043 = !DISubprogram(name: "wscanf", scope: !834, file: !834, line: 561, type: !1040, isLocal: false, isDefinition: false, flags: DIFlagPrototyped, isOptimized: false)
!1044 = !DIImportedEntity(tag: DW_TAG_imported_declaration, scope: !5, entity: !1045, line: 204)
!1045 = !DISubprogram(name: "wcschr", scope: !834, file: !834, line: 164, type: !1046, isLocal: false, isDefinition: false, flags: DIFlagPrototyped, isOptimized: false)
!1046 = !DISubroutineType(types: !1047)
!1047 = !{!656, !700, !657}
!1048 = !DIImportedEntity(tag: DW_TAG_imported_declaration, scope: !5, entity: !1049, line: 205)
!1049 = !DISubprogram(name: "wcspbrk", scope: !834, file: !834, line: 201, type: !1050, isLocal: false, isDefinition: false, flags: DIFlagPrototyped, isOptimized: false)
!1050 = !DISubroutineType(types: !1051)
!1051 = !{!656, !700, !700}
!1052 = !DIImportedEntity(tag: DW_TAG_imported_declaration, scope: !5, entity: !1053, line: 206)
!1053 = !DISubprogram(name: "wcsrchr", scope: !834, file: !834, line: 174, type: !1046, isLocal: false, isDefinition: false, flags: DIFlagPrototyped, isOptimized: false)
!1054 = !DIImportedEntity(tag: DW_TAG_imported_declaration, scope: !5, entity: !1055, line: 207)
!1055 = !DISubprogram(name: "wcsstr", scope: !834, file: !834, line: 212, type: !1050, isLocal: false, isDefinition: false, flags: DIFlagPrototyped, isOptimized: false)
!1056 = !DIImportedEntity(tag: DW_TAG_imported_declaration, scope: !5, entity: !1057, line: 208)
!1057 = !DISubprogram(name: "wmemchr", scope: !834, file: !834, line: 253, type: !1058, isLocal: false, isDefinition: false, flags: DIFlagPrototyped, isOptimized: false)
!1058 = !DISubroutineType(types: !1059)
!1059 = !{!656, !700, !657, !89}
!1060 = !DIImportedEntity(tag: DW_TAG_imported_declaration, scope: !208, entity: !1061, line: 248)
!1061 = !DISubprogram(name: "wcstold", scope: !834, file: !834, line: 384, type: !1062, isLocal: false, isDefinition: false, flags: DIFlagPrototyped, isOptimized: false)
!1062 = !DISubroutineType(types: !1063)
!1063 = !{!306, !699, !1000}
!1064 = !DIImportedEntity(tag: DW_TAG_imported_declaration, scope: !208, entity: !1065, line: 257)
!1065 = !DISubprogram(name: "wcstoll", scope: !834, file: !834, line: 410, type: !1066, isLocal: false, isDefinition: false, flags: DIFlagPrototyped, isOptimized: false)
!1066 = !DISubroutineType(types: !1067)
!1067 = !{!417, !699, !1000, !15}
!1068 = !DIImportedEntity(tag: DW_TAG_imported_declaration, scope: !208, entity: !1069, line: 258)
!1069 = !DISubprogram(name: "wcstoull", scope: !834, file: !834, line: 417, type: !1070, isLocal: false, isDefinition: false, flags: DIFlagPrototyped, isOptimized: false)
!1070 = !DISubroutineType(types: !1071)
!1071 = !{!734, !699, !1000, !15}
!1072 = !DIImportedEntity(tag: DW_TAG_imported_declaration, scope: !5, entity: !1061, line: 264)
!1073 = !DIImportedEntity(tag: DW_TAG_imported_declaration, scope: !5, entity: !1065, line: 265)
!1074 = !DIImportedEntity(tag: DW_TAG_imported_declaration, scope: !5, entity: !1069, line: 266)
!1075 = !DIImportedEntity(tag: DW_TAG_imported_declaration, scope: !5, entity: !1003, line: 280)
!1076 = !DIImportedEntity(tag: DW_TAG_imported_declaration, scope: !5, entity: !918, line: 283)
!1077 = !DIImportedEntity(tag: DW_TAG_imported_declaration, scope: !5, entity: !924, line: 286)
!1078 = !DIImportedEntity(tag: DW_TAG_imported_declaration, scope: !5, entity: !932, line: 289)
!1079 = !DIImportedEntity(tag: DW_TAG_imported_declaration, scope: !5, entity: !1061, line: 293)
!1080 = !DIImportedEntity(tag: DW_TAG_imported_declaration, scope: !5, entity: !1065, line: 294)
!1081 = !DIImportedEntity(tag: DW_TAG_imported_declaration, scope: !5, entity: !1069, line: 295)
!1082 = !DIImportedEntity(tag: DW_TAG_imported_declaration, scope: !5, entity: !1083, line: 48)
!1083 = !DIDerivedType(tag: DW_TAG_typedef, name: "int8_t", file: !1084, line: 24, baseType: !1085)
!1084 = !DIFile(filename: "/apps/xilinx/2018.2/SDK/2018.2/gnu/aarch64/lin/aarch64-linux/aarch64-linux-gnu/libc/usr/include/bits/stdint-intn.h", directory: "/home/ylxiao_seas_upenn_edu/Roseetta/rosetta/digit-recognition")
!1085 = !DIDerivedType(tag: DW_TAG_typedef, name: "__int8_t", file: !1086, line: 36, baseType: !1087)
!1086 = !DIFile(filename: "/apps/xilinx/2018.2/SDK/2018.2/gnu/aarch64/lin/aarch64-linux/aarch64-linux-gnu/libc/usr/include/bits/types.h", directory: "/home/ylxiao_seas_upenn_edu/Roseetta/rosetta/digit-recognition")
!1087 = !DIBasicType(name: "signed char", size: 8, align: 8, encoding: DW_ATE_signed_char)
!1088 = !DIImportedEntity(tag: DW_TAG_imported_declaration, scope: !5, entity: !1089, line: 49)
!1089 = !DIDerivedType(tag: DW_TAG_typedef, name: "int16_t", file: !1084, line: 25, baseType: !1090)
!1090 = !DIDerivedType(tag: DW_TAG_typedef, name: "__int16_t", file: !1086, line: 38, baseType: !1091)
!1091 = !DIBasicType(name: "short", size: 16, align: 16, encoding: DW_ATE_signed)
!1092 = !DIImportedEntity(tag: DW_TAG_imported_declaration, scope: !5, entity: !1093, line: 50)
!1093 = !DIDerivedType(tag: DW_TAG_typedef, name: "int32_t", file: !1084, line: 26, baseType: !1094)
!1094 = !DIDerivedType(tag: DW_TAG_typedef, name: "__int32_t", file: !1086, line: 40, baseType: !15)
!1095 = !DIImportedEntity(tag: DW_TAG_imported_declaration, scope: !5, entity: !1096, line: 51)
!1096 = !DIDerivedType(tag: DW_TAG_typedef, name: "int64_t", file: !1084, line: 27, baseType: !1097)
!1097 = !DIDerivedType(tag: DW_TAG_typedef, name: "__int64_t", file: !1086, line: 43, baseType: !104)
!1098 = !DIImportedEntity(tag: DW_TAG_imported_declaration, scope: !5, entity: !1099, line: 53)
!1099 = !DIDerivedType(tag: DW_TAG_typedef, name: "int_fast8_t", file: !1100, line: 68, baseType: !1087)
!1100 = !DIFile(filename: "/apps/xilinx/2018.2/SDK/2018.2/gnu/aarch64/lin/aarch64-linux/aarch64-linux-gnu/libc/usr/include/stdint.h", directory: "/home/ylxiao_seas_upenn_edu/Roseetta/rosetta/digit-recognition")
!1101 = !DIImportedEntity(tag: DW_TAG_imported_declaration, scope: !5, entity: !1102, line: 54)
!1102 = !DIDerivedType(tag: DW_TAG_typedef, name: "int_fast16_t", file: !1100, line: 70, baseType: !104)
!1103 = !DIImportedEntity(tag: DW_TAG_imported_declaration, scope: !5, entity: !1104, line: 55)
!1104 = !DIDerivedType(tag: DW_TAG_typedef, name: "int_fast32_t", file: !1100, line: 71, baseType: !104)
!1105 = !DIImportedEntity(tag: DW_TAG_imported_declaration, scope: !5, entity: !1106, line: 56)
!1106 = !DIDerivedType(tag: DW_TAG_typedef, name: "int_fast64_t", file: !1100, line: 72, baseType: !104)
!1107 = !DIImportedEntity(tag: DW_TAG_imported_declaration, scope: !5, entity: !1108, line: 58)
!1108 = !DIDerivedType(tag: DW_TAG_typedef, name: "int_least8_t", file: !1100, line: 43, baseType: !1087)
!1109 = !DIImportedEntity(tag: DW_TAG_imported_declaration, scope: !5, entity: !1110, line: 59)
!1110 = !DIDerivedType(tag: DW_TAG_typedef, name: "int_least16_t", file: !1100, line: 44, baseType: !1091)
!1111 = !DIImportedEntity(tag: DW_TAG_imported_declaration, scope: !5, entity: !1112, line: 60)
!1112 = !DIDerivedType(tag: DW_TAG_typedef, name: "int_least32_t", file: !1100, line: 45, baseType: !15)
!1113 = !DIImportedEntity(tag: DW_TAG_imported_declaration, scope: !5, entity: !1114, line: 61)
!1114 = !DIDerivedType(tag: DW_TAG_typedef, name: "int_least64_t", file: !1100, line: 47, baseType: !104)
!1115 = !DIImportedEntity(tag: DW_TAG_imported_declaration, scope: !5, entity: !1116, line: 63)
!1116 = !DIDerivedType(tag: DW_TAG_typedef, name: "intmax_t", file: !1100, line: 111, baseType: !1117)
!1117 = !DIDerivedType(tag: DW_TAG_typedef, name: "__intmax_t", file: !1086, line: 61, baseType: !104)
!1118 = !DIImportedEntity(tag: DW_TAG_imported_declaration, scope: !5, entity: !1119, line: 64)
!1119 = !DIDerivedType(tag: DW_TAG_typedef, name: "intptr_t", file: !1100, line: 97, baseType: !104)
!1120 = !DIImportedEntity(tag: DW_TAG_imported_declaration, scope: !5, entity: !1121, line: 66)
!1121 = !DIDerivedType(tag: DW_TAG_typedef, name: "uint8_t", file: !1122, line: 24, baseType: !1123)
!1122 = !DIFile(filename: "/apps/xilinx/2018.2/SDK/2018.2/gnu/aarch64/lin/aarch64-linux/aarch64-linux-gnu/libc/usr/include/bits/stdint-uintn.h", directory: "/home/ylxiao_seas_upenn_edu/Roseetta/rosetta/digit-recognition")
!1123 = !DIDerivedType(tag: DW_TAG_typedef, name: "__uint8_t", file: !1086, line: 37, baseType: !1124)
!1124 = !DIBasicType(name: "unsigned char", size: 8, align: 8, encoding: DW_ATE_unsigned_char)
!1125 = !DIImportedEntity(tag: DW_TAG_imported_declaration, scope: !5, entity: !1126, line: 67)
!1126 = !DIDerivedType(tag: DW_TAG_typedef, name: "uint16_t", file: !1122, line: 25, baseType: !1127)
!1127 = !DIDerivedType(tag: DW_TAG_typedef, name: "__uint16_t", file: !1086, line: 39, baseType: !1128)
!1128 = !DIBasicType(name: "unsigned short", size: 16, align: 16, encoding: DW_ATE_unsigned)
!1129 = !DIImportedEntity(tag: DW_TAG_imported_declaration, scope: !5, entity: !1130, line: 68)
!1130 = !DIDerivedType(tag: DW_TAG_typedef, name: "uint32_t", file: !1122, line: 26, baseType: !1131)
!1131 = !DIDerivedType(tag: DW_TAG_typedef, name: "__uint32_t", file: !1086, line: 41, baseType: !678)
!1132 = !DIImportedEntity(tag: DW_TAG_imported_declaration, scope: !5, entity: !1133, line: 69)
!1133 = !DIDerivedType(tag: DW_TAG_typedef, name: "uint64_t", file: !1122, line: 27, baseType: !1134)
!1134 = !DIDerivedType(tag: DW_TAG_typedef, name: "__uint64_t", file: !1086, line: 44, baseType: !91)
!1135 = !DIImportedEntity(tag: DW_TAG_imported_declaration, scope: !5, entity: !1136, line: 71)
!1136 = !DIDerivedType(tag: DW_TAG_typedef, name: "uint_fast8_t", file: !1100, line: 81, baseType: !1124)
!1137 = !DIImportedEntity(tag: DW_TAG_imported_declaration, scope: !5, entity: !1138, line: 72)
!1138 = !DIDerivedType(tag: DW_TAG_typedef, name: "uint_fast16_t", file: !1100, line: 83, baseType: !91)
!1139 = !DIImportedEntity(tag: DW_TAG_imported_declaration, scope: !5, entity: !1140, line: 73)
!1140 = !DIDerivedType(tag: DW_TAG_typedef, name: "uint_fast32_t", file: !1100, line: 84, baseType: !91)
!1141 = !DIImportedEntity(tag: DW_TAG_imported_declaration, scope: !5, entity: !1142, line: 74)
!1142 = !DIDerivedType(tag: DW_TAG_typedef, name: "uint_fast64_t", file: !1100, line: 85, baseType: !91)
!1143 = !DIImportedEntity(tag: DW_TAG_imported_declaration, scope: !5, entity: !1144, line: 76)
!1144 = !DIDerivedType(tag: DW_TAG_typedef, name: "uint_least8_t", file: !1100, line: 54, baseType: !1124)
!1145 = !DIImportedEntity(tag: DW_TAG_imported_declaration, scope: !5, entity: !1146, line: 77)
!1146 = !DIDerivedType(tag: DW_TAG_typedef, name: "uint_least16_t", file: !1100, line: 55, baseType: !1128)
!1147 = !DIImportedEntity(tag: DW_TAG_imported_declaration, scope: !5, entity: !1148, line: 78)
!1148 = !DIDerivedType(tag: DW_TAG_typedef, name: "uint_least32_t", file: !1100, line: 56, baseType: !678)
!1149 = !DIImportedEntity(tag: DW_TAG_imported_declaration, scope: !5, entity: !1150, line: 79)
!1150 = !DIDerivedType(tag: DW_TAG_typedef, name: "uint_least64_t", file: !1100, line: 58, baseType: !91)
!1151 = !DIImportedEntity(tag: DW_TAG_imported_declaration, scope: !5, entity: !1152, line: 81)
!1152 = !DIDerivedType(tag: DW_TAG_typedef, name: "uintmax_t", file: !1100, line: 112, baseType: !1153)
!1153 = !DIDerivedType(tag: DW_TAG_typedef, name: "__uintmax_t", file: !1086, line: 62, baseType: !91)
!1154 = !DIImportedEntity(tag: DW_TAG_imported_declaration, scope: !5, entity: !1155, line: 82)
!1155 = !DIDerivedType(tag: DW_TAG_typedef, name: "uintptr_t", file: !1100, line: 100, baseType: !91)
!1156 = !DIImportedEntity(tag: DW_TAG_imported_declaration, scope: !5, entity: !1157, line: 53)
!1157 = !DICompositeType(tag: DW_TAG_structure_type, name: "lconv", file: !1158, line: 51, size: 768, align: 64, flags: DIFlagFwdDecl, identifier: "_ZTS5lconv")
!1158 = !DIFile(filename: "/apps/xilinx/2018.2/SDK/2018.2/gnu/aarch64/lin/aarch64-linux/aarch64-linux-gnu/libc/usr/include/locale.h", directory: "/home/ylxiao_seas_upenn_edu/Roseetta/rosetta/digit-recognition")
!1159 = !DIImportedEntity(tag: DW_TAG_imported_declaration, scope: !5, entity: !1160, line: 54)
!1160 = !DISubprogram(name: "setlocale", scope: !1158, file: !1158, line: 122, type: !1161, isLocal: false, isDefinition: false, flags: DIFlagPrototyped, isOptimized: false)
!1161 = !DISubroutineType(types: !1162)
!1162 = !{!63, !15, !71}
!1163 = !DIImportedEntity(tag: DW_TAG_imported_declaration, scope: !5, entity: !1164, line: 55)
!1164 = !DISubprogram(name: "localeconv", scope: !1158, file: !1158, line: 125, type: !1165, isLocal: false, isDefinition: false, flags: DIFlagPrototyped, isOptimized: false)
!1165 = !DISubroutineType(types: !1166)
!1166 = !{!1167}
!1167 = !DIDerivedType(tag: DW_TAG_pointer_type, baseType: !1157, size: 64, align: 64)
!1168 = !DIImportedEntity(tag: DW_TAG_imported_declaration, scope: !5, entity: !1169, line: 64)
!1169 = !DISubprogram(name: "isalnum", scope: !1170, file: !1170, line: 108, type: !144, isLocal: false, isDefinition: false, flags: DIFlagPrototyped, isOptimized: false)
!1170 = !DIFile(filename: "/apps/xilinx/2018.2/SDK/2018.2/gnu/aarch64/lin/aarch64-linux/aarch64-linux-gnu/libc/usr/include/ctype.h", directory: "/home/ylxiao_seas_upenn_edu/Roseetta/rosetta/digit-recognition")
!1171 = !DIImportedEntity(tag: DW_TAG_imported_declaration, scope: !5, entity: !1172, line: 65)
!1172 = !DISubprogram(name: "isalpha", scope: !1170, file: !1170, line: 109, type: !144, isLocal: false, isDefinition: false, flags: DIFlagPrototyped, isOptimized: false)
!1173 = !DIImportedEntity(tag: DW_TAG_imported_declaration, scope: !5, entity: !1174, line: 66)
!1174 = !DISubprogram(name: "iscntrl", scope: !1170, file: !1170, line: 110, type: !144, isLocal: false, isDefinition: false, flags: DIFlagPrototyped, isOptimized: false)
!1175 = !DIImportedEntity(tag: DW_TAG_imported_declaration, scope: !5, entity: !1176, line: 67)
!1176 = !DISubprogram(name: "isdigit", scope: !1170, file: !1170, line: 111, type: !144, isLocal: false, isDefinition: false, flags: DIFlagPrototyped, isOptimized: false)
!1177 = !DIImportedEntity(tag: DW_TAG_imported_declaration, scope: !5, entity: !1178, line: 68)
!1178 = !DISubprogram(name: "isgraph", scope: !1170, file: !1170, line: 113, type: !144, isLocal: false, isDefinition: false, flags: DIFlagPrototyped, isOptimized: false)
!1179 = !DIImportedEntity(tag: DW_TAG_imported_declaration, scope: !5, entity: !1180, line: 69)
!1180 = !DISubprogram(name: "islower", scope: !1170, file: !1170, line: 112, type: !144, isLocal: false, isDefinition: false, flags: DIFlagPrototyped, isOptimized: false)
!1181 = !DIImportedEntity(tag: DW_TAG_imported_declaration, scope: !5, entity: !1182, line: 70)
!1182 = !DISubprogram(name: "isprint", scope: !1170, file: !1170, line: 114, type: !144, isLocal: false, isDefinition: false, flags: DIFlagPrototyped, isOptimized: false)
!1183 = !DIImportedEntity(tag: DW_TAG_imported_declaration, scope: !5, entity: !1184, line: 71)
!1184 = !DISubprogram(name: "ispunct", scope: !1170, file: !1170, line: 115, type: !144, isLocal: false, isDefinition: false, flags: DIFlagPrototyped, isOptimized: false)
!1185 = !DIImportedEntity(tag: DW_TAG_imported_declaration, scope: !5, entity: !1186, line: 72)
!1186 = !DISubprogram(name: "isspace", scope: !1170, file: !1170, line: 116, type: !144, isLocal: false, isDefinition: false, flags: DIFlagPrototyped, isOptimized: false)
!1187 = !DIImportedEntity(tag: DW_TAG_imported_declaration, scope: !5, entity: !1188, line: 73)
!1188 = !DISubprogram(name: "isupper", scope: !1170, file: !1170, line: 117, type: !144, isLocal: false, isDefinition: false, flags: DIFlagPrototyped, isOptimized: false)
!1189 = !DIImportedEntity(tag: DW_TAG_imported_declaration, scope: !5, entity: !1190, line: 74)
!1190 = !DISubprogram(name: "isxdigit", scope: !1170, file: !1170, line: 118, type: !144, isLocal: false, isDefinition: false, flags: DIFlagPrototyped, isOptimized: false)
!1191 = !DIImportedEntity(tag: DW_TAG_imported_declaration, scope: !5, entity: !1192, line: 75)
!1192 = !DISubprogram(name: "tolower", scope: !1170, file: !1170, line: 122, type: !144, isLocal: false, isDefinition: false, flags: DIFlagPrototyped, isOptimized: false)
!1193 = !DIImportedEntity(tag: DW_TAG_imported_declaration, scope: !5, entity: !1194, line: 76)
!1194 = !DISubprogram(name: "toupper", scope: !1170, file: !1170, line: 125, type: !144, isLocal: false, isDefinition: false, flags: DIFlagPrototyped, isOptimized: false)
!1195 = !DIImportedEntity(tag: DW_TAG_imported_declaration, scope: !5, entity: !1196, line: 87)
!1196 = !DISubprogram(name: "isblank", scope: !1170, file: !1170, line: 130, type: !144, isLocal: false, isDefinition: false, flags: DIFlagPrototyped, isOptimized: false)
!1197 = !DIImportedEntity(tag: DW_TAG_imported_declaration, scope: !208, entity: !1198, line: 44)
!1198 = !DIDerivedType(tag: DW_TAG_typedef, name: "size_t", scope: !5, file: !6, line: 231, baseType: !91)
!1199 = !DIImportedEntity(tag: DW_TAG_imported_declaration, scope: !208, entity: !1200, line: 45)
!1200 = !DIDerivedType(tag: DW_TAG_typedef, name: "ptrdiff_t", scope: !5, file: !6, line: 232, baseType: !104)
!1201 = !DIImportedEntity(tag: DW_TAG_imported_declaration, scope: !5, entity: !1202, line: 82)
!1202 = !DIDerivedType(tag: DW_TAG_typedef, name: "wctrans_t", file: !1203, line: 48, baseType: !1204)
!1203 = !DIFile(filename: "/apps/xilinx/2018.2/SDK/2018.2/gnu/aarch64/lin/aarch64-linux/aarch64-linux-gnu/libc/usr/include/wctype.h", directory: "/home/ylxiao_seas_upenn_edu/Roseetta/rosetta/digit-recognition")
!1204 = !DIDerivedType(tag: DW_TAG_pointer_type, baseType: !1205, size: 64, align: 64)
!1205 = !DIDerivedType(tag: DW_TAG_const_type, baseType: !1094)
!1206 = !DIImportedEntity(tag: DW_TAG_imported_declaration, scope: !5, entity: !1207, line: 83)
!1207 = !DIDerivedType(tag: DW_TAG_typedef, name: "wctype_t", file: !1208, line: 38, baseType: !91)
!1208 = !DIFile(filename: "/apps/xilinx/2018.2/SDK/2018.2/gnu/aarch64/lin/aarch64-linux/aarch64-linux-gnu/libc/usr/include/bits/wctype-wchar.h", directory: "/home/ylxiao_seas_upenn_edu/Roseetta/rosetta/digit-recognition")
!1209 = !DIImportedEntity(tag: DW_TAG_imported_declaration, scope: !5, entity: !830, line: 84)
!1210 = !DIImportedEntity(tag: DW_TAG_imported_declaration, scope: !5, entity: !1211, line: 86)
!1211 = !DISubprogram(name: "iswalnum", scope: !1208, file: !1208, line: 95, type: !1024, isLocal: false, isDefinition: false, flags: DIFlagPrototyped, isOptimized: false)
!1212 = !DIImportedEntity(tag: DW_TAG_imported_declaration, scope: !5, entity: !1213, line: 87)
!1213 = !DISubprogram(name: "iswalpha", scope: !1208, file: !1208, line: 101, type: !1024, isLocal: false, isDefinition: false, flags: DIFlagPrototyped, isOptimized: false)
!1214 = !DIImportedEntity(tag: DW_TAG_imported_declaration, scope: !5, entity: !1215, line: 89)
!1215 = !DISubprogram(name: "iswblank", scope: !1208, file: !1208, line: 146, type: !1024, isLocal: false, isDefinition: false, flags: DIFlagPrototyped, isOptimized: false)
!1216 = !DIImportedEntity(tag: DW_TAG_imported_declaration, scope: !5, entity: !1217, line: 91)
!1217 = !DISubprogram(name: "iswcntrl", scope: !1208, file: !1208, line: 104, type: !1024, isLocal: false, isDefinition: false, flags: DIFlagPrototyped, isOptimized: false)
!1218 = !DIImportedEntity(tag: DW_TAG_imported_declaration, scope: !5, entity: !1219, line: 92)
!1219 = !DISubprogram(name: "iswctype", scope: !1208, file: !1208, line: 159, type: !1220, isLocal: false, isDefinition: false, flags: DIFlagPrototyped, isOptimized: false)
!1220 = !DISubroutineType(types: !1221)
!1221 = !{!15, !830, !1207}
!1222 = !DIImportedEntity(tag: DW_TAG_imported_declaration, scope: !5, entity: !1223, line: 93)
!1223 = !DISubprogram(name: "iswdigit", scope: !1208, file: !1208, line: 108, type: !1024, isLocal: false, isDefinition: false, flags: DIFlagPrototyped, isOptimized: false)
!1224 = !DIImportedEntity(tag: DW_TAG_imported_declaration, scope: !5, entity: !1225, line: 94)
!1225 = !DISubprogram(name: "iswgraph", scope: !1208, file: !1208, line: 112, type: !1024, isLocal: false, isDefinition: false, flags: DIFlagPrototyped, isOptimized: false)
!1226 = !DIImportedEntity(tag: DW_TAG_imported_declaration, scope: !5, entity: !1227, line: 95)
!1227 = !DISubprogram(name: "iswlower", scope: !1208, file: !1208, line: 117, type: !1024, isLocal: false, isDefinition: false, flags: DIFlagPrototyped, isOptimized: false)
!1228 = !DIImportedEntity(tag: DW_TAG_imported_declaration, scope: !5, entity: !1229, line: 96)
!1229 = !DISubprogram(name: "iswprint", scope: !1208, file: !1208, line: 120, type: !1024, isLocal: false, isDefinition: false, flags: DIFlagPrototyped, isOptimized: false)
!1230 = !DIImportedEntity(tag: DW_TAG_imported_declaration, scope: !5, entity: !1231, line: 97)
!1231 = !DISubprogram(name: "iswpunct", scope: !1208, file: !1208, line: 125, type: !1024, isLocal: false, isDefinition: false, flags: DIFlagPrototyped, isOptimized: false)
!1232 = !DIImportedEntity(tag: DW_TAG_imported_declaration, scope: !5, entity: !1233, line: 98)
!1233 = !DISubprogram(name: "iswspace", scope: !1208, file: !1208, line: 130, type: !1024, isLocal: false, isDefinition: false, flags: DIFlagPrototyped, isOptimized: false)
!1234 = !DIImportedEntity(tag: DW_TAG_imported_declaration, scope: !5, entity: !1235, line: 99)
!1235 = !DISubprogram(name: "iswupper", scope: !1208, file: !1208, line: 135, type: !1024, isLocal: false, isDefinition: false, flags: DIFlagPrototyped, isOptimized: false)
!1236 = !DIImportedEntity(tag: DW_TAG_imported_declaration, scope: !5, entity: !1237, line: 100)
!1237 = !DISubprogram(name: "iswxdigit", scope: !1208, file: !1208, line: 140, type: !1024, isLocal: false, isDefinition: false, flags: DIFlagPrototyped, isOptimized: false)
!1238 = !DIImportedEntity(tag: DW_TAG_imported_declaration, scope: !5, entity: !1239, line: 101)
!1239 = !DISubprogram(name: "towctrans", scope: !1203, file: !1203, line: 55, type: !1240, isLocal: false, isDefinition: false, flags: DIFlagPrototyped, isOptimized: false)
!1240 = !DISubroutineType(types: !1241)
!1241 = !{!830, !830, !1202}
!1242 = !DIImportedEntity(tag: DW_TAG_imported_declaration, scope: !5, entity: !1243, line: 102)
!1243 = !DISubprogram(name: "towlower", scope: !1208, file: !1208, line: 166, type: !1244, isLocal: false, isDefinition: false, flags: DIFlagPrototyped, isOptimized: false)
!1244 = !DISubroutineType(types: !1245)
!1245 = !{!830, !830}
!1246 = !DIImportedEntity(tag: DW_TAG_imported_declaration, scope: !5, entity: !1247, line: 103)
!1247 = !DISubprogram(name: "towupper", scope: !1208, file: !1208, line: 169, type: !1244, isLocal: false, isDefinition: false, flags: DIFlagPrototyped, isOptimized: false)
!1248 = !DIImportedEntity(tag: DW_TAG_imported_declaration, scope: !5, entity: !1249, line: 104)
!1249 = !DISubprogram(name: "wctrans", scope: !1203, file: !1203, line: 52, type: !1250, isLocal: false, isDefinition: false, flags: DIFlagPrototyped, isOptimized: false)
!1250 = !DISubroutineType(types: !1251)
!1251 = !{!1202, !71}
!1252 = !DIImportedEntity(tag: DW_TAG_imported_declaration, scope: !5, entity: !1253, line: 105)
!1253 = !DISubprogram(name: "wctype", scope: !1208, file: !1208, line: 155, type: !1254, isLocal: false, isDefinition: false, flags: DIFlagPrototyped, isOptimized: false)
!1254 = !DISubroutineType(types: !1255)
!1255 = !{!1207, !71}
!1256 = !DIImportedEntity(tag: DW_TAG_imported_declaration, scope: !5, entity: !1257, line: 75)
!1257 = !DISubprogram(name: "memchr", scope: !1258, file: !1258, line: 90, type: !1259, isLocal: false, isDefinition: false, flags: DIFlagPrototyped, isOptimized: false)
!1258 = !DIFile(filename: "/apps/xilinx/2018.2/SDK/2018.2/gnu/aarch64/lin/aarch64-linux/aarch64-linux-gnu/libc/usr/include/string.h", directory: "/home/ylxiao_seas_upenn_edu/Roseetta/rosetta/digit-recognition")
!1259 = !DISubroutineType(types: !1260)
!1260 = !{!93, !120, !15, !89}
!1261 = !DIImportedEntity(tag: DW_TAG_imported_declaration, scope: !5, entity: !1262, line: 76)
!1262 = !DISubprogram(name: "memcmp", scope: !1258, file: !1258, line: 63, type: !1263, isLocal: false, isDefinition: false, flags: DIFlagPrototyped, isOptimized: false)
!1263 = !DISubroutineType(types: !1264)
!1264 = !{!15, !120, !120, !89}
!1265 = !DIImportedEntity(tag: DW_TAG_imported_declaration, scope: !5, entity: !1266, line: 77)
!1266 = !DISubprogram(name: "memcpy", scope: !1258, file: !1258, line: 42, type: !1267, isLocal: false, isDefinition: false, flags: DIFlagPrototyped, isOptimized: false)
!1267 = !DISubroutineType(types: !1268)
!1268 = !{!93, !92, !119, !89}
!1269 = !DIImportedEntity(tag: DW_TAG_imported_declaration, scope: !5, entity: !1270, line: 78)
!1270 = !DISubprogram(name: "memmove", scope: !1258, file: !1258, line: 46, type: !1271, isLocal: false, isDefinition: false, flags: DIFlagPrototyped, isOptimized: false)
!1271 = !DISubroutineType(types: !1272)
!1272 = !{!93, !93, !120, !89}
!1273 = !DIImportedEntity(tag: DW_TAG_imported_declaration, scope: !5, entity: !1274, line: 79)
!1274 = !DISubprogram(name: "memset", scope: !1258, file: !1258, line: 60, type: !1275, isLocal: false, isDefinition: false, flags: DIFlagPrototyped, isOptimized: false)
!1275 = !DISubroutineType(types: !1276)
!1276 = !{!93, !93, !15, !89}
!1277 = !DIImportedEntity(tag: DW_TAG_imported_declaration, scope: !5, entity: !1278, line: 80)
!1278 = !DISubprogram(name: "strcat", scope: !1258, file: !1258, line: 129, type: !1279, isLocal: false, isDefinition: false, flags: DIFlagPrototyped, isOptimized: false)
!1279 = !DISubroutineType(types: !1280)
!1280 = !{!63, !65, !70}
!1281 = !DIImportedEntity(tag: DW_TAG_imported_declaration, scope: !5, entity: !1282, line: 81)
!1282 = !DISubprogram(name: "strcmp", scope: !1258, file: !1258, line: 136, type: !154, isLocal: false, isDefinition: false, flags: DIFlagPrototyped, isOptimized: false)
!1283 = !DIImportedEntity(tag: DW_TAG_imported_declaration, scope: !5, entity: !1284, line: 82)
!1284 = !DISubprogram(name: "strcoll", scope: !1258, file: !1258, line: 143, type: !154, isLocal: false, isDefinition: false, flags: DIFlagPrototyped, isOptimized: false)
!1285 = !DIImportedEntity(tag: DW_TAG_imported_declaration, scope: !5, entity: !1286, line: 83)
!1286 = !DISubprogram(name: "strcpy", scope: !1258, file: !1258, line: 121, type: !1279, isLocal: false, isDefinition: false, flags: DIFlagPrototyped, isOptimized: false)
!1287 = !DIImportedEntity(tag: DW_TAG_imported_declaration, scope: !5, entity: !1288, line: 84)
!1288 = !DISubprogram(name: "strcspn", scope: !1258, file: !1258, line: 272, type: !1289, isLocal: false, isDefinition: false, flags: DIFlagPrototyped, isOptimized: false)
!1289 = !DISubroutineType(types: !1290)
!1290 = !{!89, !71, !71}
!1291 = !DIImportedEntity(tag: DW_TAG_imported_declaration, scope: !5, entity: !1292, line: 85)
!1292 = !DISubprogram(name: "strerror", scope: !1258, file: !1258, line: 396, type: !1293, isLocal: false, isDefinition: false, flags: DIFlagPrototyped, isOptimized: false)
!1293 = !DISubroutineType(types: !1294)
!1294 = !{!63, !15}
!1295 = !DIImportedEntity(tag: DW_TAG_imported_declaration, scope: !5, entity: !1296, line: 86)
!1296 = !DISubprogram(name: "strlen", scope: !1258, file: !1258, line: 384, type: !1297, isLocal: false, isDefinition: false, flags: DIFlagPrototyped, isOptimized: false)
!1297 = !DISubroutineType(types: !1298)
!1298 = !{!89, !71}
!1299 = !DIImportedEntity(tag: DW_TAG_imported_declaration, scope: !5, entity: !1300, line: 87)
!1300 = !DISubprogram(name: "strncat", scope: !1258, file: !1258, line: 132, type: !1301, isLocal: false, isDefinition: false, flags: DIFlagPrototyped, isOptimized: false)
!1301 = !DISubroutineType(types: !1302)
!1302 = !{!63, !65, !70, !89}
!1303 = !DIImportedEntity(tag: DW_TAG_imported_declaration, scope: !5, entity: !1304, line: 88)
!1304 = !DISubprogram(name: "strncmp", scope: !1258, file: !1258, line: 139, type: !1305, isLocal: false, isDefinition: false, flags: DIFlagPrototyped, isOptimized: false)
!1305 = !DISubroutineType(types: !1306)
!1306 = !{!15, !71, !71, !89}
!1307 = !DIImportedEntity(tag: DW_TAG_imported_declaration, scope: !5, entity: !1308, line: 89)
!1308 = !DISubprogram(name: "strncpy", scope: !1258, file: !1258, line: 124, type: !1301, isLocal: false, isDefinition: false, flags: DIFlagPrototyped, isOptimized: false)
!1309 = !DIImportedEntity(tag: DW_TAG_imported_declaration, scope: !5, entity: !1310, line: 90)
!1310 = !DISubprogram(name: "strspn", scope: !1258, file: !1258, line: 276, type: !1289, isLocal: false, isDefinition: false, flags: DIFlagPrototyped, isOptimized: false)
!1311 = !DIImportedEntity(tag: DW_TAG_imported_declaration, scope: !5, entity: !1312, line: 91)
!1312 = !DISubprogram(name: "strtok", scope: !1258, file: !1258, line: 335, type: !1279, isLocal: false, isDefinition: false, flags: DIFlagPrototyped, isOptimized: false)
!1313 = !DIImportedEntity(tag: DW_TAG_imported_declaration, scope: !5, entity: !1314, line: 92)
!1314 = !DISubprogram(name: "strxfrm", scope: !1258, file: !1258, line: 146, type: !1315, isLocal: false, isDefinition: false, flags: DIFlagPrototyped, isOptimized: false)
!1315 = !DISubroutineType(types: !1316)
!1316 = !{!89, !65, !70, !89}
!1317 = !DIImportedEntity(tag: DW_TAG_imported_declaration, scope: !5, entity: !1318, line: 93)
!1318 = !DISubprogram(name: "strchr", scope: !1258, file: !1258, line: 225, type: !1319, isLocal: false, isDefinition: false, flags: DIFlagPrototyped, isOptimized: false)
!1319 = !DISubroutineType(types: !1320)
!1320 = !{!63, !71, !15}
!1321 = !DIImportedEntity(tag: DW_TAG_imported_declaration, scope: !5, entity: !1322, line: 94)
!1322 = !DISubprogram(name: "strpbrk", scope: !1258, file: !1258, line: 302, type: !1323, isLocal: false, isDefinition: false, flags: DIFlagPrototyped, isOptimized: false)
!1323 = !DISubroutineType(types: !1324)
!1324 = !{!63, !71, !71}
!1325 = !DIImportedEntity(tag: DW_TAG_imported_declaration, scope: !5, entity: !1326, line: 95)
!1326 = !DISubprogram(name: "strrchr", scope: !1258, file: !1258, line: 252, type: !1319, isLocal: false, isDefinition: false, flags: DIFlagPrototyped, isOptimized: false)
!1327 = !DIImportedEntity(tag: DW_TAG_imported_declaration, scope: !5, entity: !1328, line: 96)
!1328 = !DISubprogram(name: "strstr", scope: !1258, file: !1258, line: 329, type: !1323, isLocal: false, isDefinition: false, flags: DIFlagPrototyped, isOptimized: false)
!1329 = !DIImportedEntity(tag: DW_TAG_imported_declaration, scope: !1330, entity: !1332, line: 315)
!1330 = !DINamespace(name: "detail", scope: null, file: !1331, line: 307)
!1331 = !DIFile(filename: "/apps/xilinx/2018.2/Vivado/2018.2/include/hls_half.h", directory: "/home/ylxiao_seas_upenn_edu/Roseetta/rosetta/digit-recognition")
!1332 = !DIDerivedType(tag: DW_TAG_typedef, name: "true_type", scope: !5, file: !1333, line: 87, baseType: !1334)
!1333 = !DIFile(filename: "/apps/xilinx/2018.2/SDK/2018.2/gnu/aarch64/lin/aarch64-linux/aarch64-linux-gnu/include/c++/7.2.1/type_traits", directory: "/home/ylxiao_seas_upenn_edu/Roseetta/rosetta/digit-recognition")
!1334 = distinct !DICompositeType(tag: DW_TAG_structure_type, name: "integral_constant<bool, true>", scope: !5, file: !1333, line: 69, size: 8, align: 8, elements: !1335, templateParams: !1344, identifier: "_ZTSSt17integral_constantIbLb1EE")
!1335 = !{!1336, !1338}
!1336 = !DIDerivedType(tag: DW_TAG_member, name: "value", scope: !1334, file: !1333, line: 71, baseType: !1337, flags: DIFlagStaticMember, extraData: i1 true)
!1337 = !DIDerivedType(tag: DW_TAG_const_type, baseType: !17)
!1338 = !DISubprogram(name: "operator bool", linkageName: "_ZNKSt17integral_constantIbLb1EEcvbEv", scope: !1334, file: !1333, line: 74, type: !1339, isLocal: false, isDefinition: false, scopeLine: 74, flags: DIFlagPrototyped, isOptimized: false)
!1339 = !DISubroutineType(types: !1340)
!1340 = !{!1341, !1342}
!1341 = !DIDerivedType(tag: DW_TAG_typedef, name: "value_type", scope: !1334, file: !1333, line: 72, baseType: !17)
!1342 = !DIDerivedType(tag: DW_TAG_pointer_type, baseType: !1343, size: 64, align: 64, flags: DIFlagArtificial | DIFlagObjectPointer)
!1343 = !DIDerivedType(tag: DW_TAG_const_type, baseType: !1334)
!1344 = !{!1345, !1346}
!1345 = !DITemplateTypeParameter(name: "_Tp", type: !17)
!1346 = !DITemplateValueParameter(name: "__v", type: !17, value: i8 1)
!1347 = !DIImportedEntity(tag: DW_TAG_imported_declaration, scope: !1330, entity: !1348, line: 316)
!1348 = !DIDerivedType(tag: DW_TAG_typedef, name: "false_type", scope: !5, file: !1333, line: 90, baseType: !1349)
!1349 = distinct !DICompositeType(tag: DW_TAG_structure_type, name: "integral_constant<bool, false>", scope: !5, file: !1333, line: 69, size: 8, align: 8, elements: !1350, templateParams: !1358, identifier: "_ZTSSt17integral_constantIbLb0EE")
!1350 = !{!1351, !1352}
!1351 = !DIDerivedType(tag: DW_TAG_member, name: "value", scope: !1349, file: !1333, line: 71, baseType: !1337, flags: DIFlagStaticMember, extraData: i1 false)
!1352 = !DISubprogram(name: "operator bool", linkageName: "_ZNKSt17integral_constantIbLb0EEcvbEv", scope: !1349, file: !1333, line: 74, type: !1353, isLocal: false, isDefinition: false, scopeLine: 74, flags: DIFlagPrototyped, isOptimized: false)
!1353 = !DISubroutineType(types: !1354)
!1354 = !{!1355, !1356}
!1355 = !DIDerivedType(tag: DW_TAG_typedef, name: "value_type", scope: !1349, file: !1333, line: 72, baseType: !17)
!1356 = !DIDerivedType(tag: DW_TAG_pointer_type, baseType: !1357, size: 64, align: 64, flags: DIFlagArtificial | DIFlagObjectPointer)
!1357 = !DIDerivedType(tag: DW_TAG_const_type, baseType: !1349)
!1358 = !{!1345, !1359}
!1359 = !DITemplateValueParameter(name: "__v", type: !17, value: i8 0)
!1360 = !DIImportedEntity(tag: DW_TAG_imported_declaration, scope: !0, entity: !1361, line: 3143)
!1361 = !DISubprogram(name: "fpclassify", linkageName: "_ZN6detail10fpclassifyENS_4exprE", scope: !1330, file: !1331, line: 2919, type: !1362, isLocal: false, isDefinition: false, flags: DIFlagPrototyped, isOptimized: false)
!1362 = !DISubroutineType(types: !1363)
!1363 = !{!15, !1364}
!1364 = distinct !DICompositeType(tag: DW_TAG_structure_type, name: "expr", scope: !1330, file: !1331, line: 368, size: 32, align: 32, elements: !1365, identifier: "_ZTSN6detail4exprE")
!1365 = !{!1366, !1367, !1371}
!1366 = !DIDerivedType(tag: DW_TAG_member, name: "value_", scope: !1364, file: !1331, line: 380, baseType: !295, size: 32, align: 32, flags: DIFlagPrivate)
!1367 = !DISubprogram(name: "expr", scope: !1364, file: !1331, line: 372, type: !1368, isLocal: false, isDefinition: false, scopeLine: 372, flags: DIFlagExplicit | DIFlagPrototyped, isOptimized: false)
!1368 = !DISubroutineType(types: !1369)
!1369 = !{null, !1370, !295}
!1370 = !DIDerivedType(tag: DW_TAG_pointer_type, baseType: !1364, size: 64, align: 64, flags: DIFlagArtificial | DIFlagObjectPointer)
!1371 = !DISubprogram(name: "operator float", linkageName: "_ZNK6detail4exprcvfEv", scope: !1364, file: !1331, line: 376, type: !1372, isLocal: false, isDefinition: false, scopeLine: 376, flags: DIFlagPrototyped, isOptimized: false)
!1372 = !DISubroutineType(types: !1373)
!1373 = !{!295, !1374}
!1374 = !DIDerivedType(tag: DW_TAG_pointer_type, baseType: !1375, size: 64, align: 64, flags: DIFlagArtificial | DIFlagObjectPointer)
!1375 = !DIDerivedType(tag: DW_TAG_const_type, baseType: !1364)
!1376 = !DIImportedEntity(tag: DW_TAG_imported_declaration, scope: !0, entity: !1377, line: 3144)
!1377 = !DISubprogram(name: "isfinite", linkageName: "_ZN6detail8isfiniteENS_4exprE", scope: !1330, file: !1331, line: 2927, type: !1378, isLocal: false, isDefinition: false, flags: DIFlagPrototyped, isOptimized: false)
!1378 = !DISubroutineType(types: !1379)
!1379 = !{!17, !1364}
!1380 = !DIImportedEntity(tag: DW_TAG_imported_declaration, scope: !0, entity: !1381, line: 3145)
!1381 = !DISubprogram(name: "isinf", linkageName: "_ZN6detail5isinfENS_4exprE", scope: !1330, file: !1331, line: 2935, type: !1378, isLocal: false, isDefinition: false, flags: DIFlagPrototyped, isOptimized: false)
!1382 = !DIImportedEntity(tag: DW_TAG_imported_declaration, scope: !0, entity: !1383, line: 3146)
!1383 = !DISubprogram(name: "isnan", linkageName: "_ZN6detail5isnanENS_4exprE", scope: !1330, file: !1331, line: 2943, type: !1378, isLocal: false, isDefinition: false, flags: DIFlagPrototyped, isOptimized: false)
!1384 = !DIImportedEntity(tag: DW_TAG_imported_declaration, scope: !0, entity: !1385, line: 3147)
!1385 = !DISubprogram(name: "isnormal", linkageName: "_ZN6detail8isnormalENS_4exprE", scope: !1330, file: !1331, line: 2951, type: !1378, isLocal: false, isDefinition: false, flags: DIFlagPrototyped, isOptimized: false)
!1386 = !DIImportedEntity(tag: DW_TAG_imported_declaration, scope: !0, entity: !1387, line: 3148)
!1387 = !DISubprogram(name: "signbit", linkageName: "_ZN6detail7signbitENS_4exprE", scope: !1330, file: !1331, line: 2959, type: !1378, isLocal: false, isDefinition: false, flags: DIFlagPrototyped, isOptimized: false)
!1388 = !DIImportedEntity(tag: DW_TAG_imported_declaration, scope: !0, entity: !1389, line: 3149)
!1389 = !DISubprogram(name: "isgreater", linkageName: "_ZN6detail9isgreaterENS_4exprES0_", scope: !1330, file: !1331, line: 2974, type: !1390, isLocal: false, isDefinition: false, flags: DIFlagPrototyped, isOptimized: false)
!1390 = !DISubroutineType(types: !1391)
!1391 = !{!17, !1364, !1364}
!1392 = !DIImportedEntity(tag: DW_TAG_imported_declaration, scope: !0, entity: !1393, line: 3150)
!1393 = !DISubprogram(name: "isgreaterequal", linkageName: "_ZN6detail14isgreaterequalENS_4exprES0_", scope: !1330, file: !1331, line: 2985, type: !1390, isLocal: false, isDefinition: false, flags: DIFlagPrototyped, isOptimized: false)
!1394 = !DIImportedEntity(tag: DW_TAG_imported_declaration, scope: !0, entity: !1395, line: 3151)
!1395 = !DISubprogram(name: "isless", linkageName: "_ZN6detail6islessENS_4exprES0_", scope: !1330, file: !1331, line: 2996, type: !1390, isLocal: false, isDefinition: false, flags: DIFlagPrototyped, isOptimized: false)
!1396 = !DIImportedEntity(tag: DW_TAG_imported_declaration, scope: !0, entity: !1397, line: 3152)
!1397 = !DISubprogram(name: "islessequal", linkageName: "_ZN6detail11islessequalENS_4exprES0_", scope: !1330, file: !1331, line: 3007, type: !1390, isLocal: false, isDefinition: false, flags: DIFlagPrototyped, isOptimized: false)
!1398 = !DIImportedEntity(tag: DW_TAG_imported_declaration, scope: !0, entity: !1399, line: 3153)
!1399 = !DISubprogram(name: "islessgreater", linkageName: "_ZN6detail13islessgreaterENS_4exprES0_", scope: !1330, file: !1331, line: 3018, type: !1390, isLocal: false, isDefinition: false, flags: DIFlagPrototyped, isOptimized: false)
!1400 = !DIImportedEntity(tag: DW_TAG_imported_declaration, scope: !0, entity: !1401, line: 3154)
!1401 = !DISubprogram(name: "isunordered", linkageName: "_ZN6detail11isunorderedENS_4exprES0_", scope: !1330, file: !1331, line: 3029, type: !1390, isLocal: false, isDefinition: false, flags: DIFlagPrototyped, isOptimized: false)
!1402 = !DIImportedEntity(tag: DW_TAG_imported_declaration, scope: !5, entity: !1403, line: 60)
!1403 = !DIDerivedType(tag: DW_TAG_typedef, name: "clock_t", file: !1404, line: 7, baseType: !1405)
!1404 = !DIFile(filename: "/apps/xilinx/2018.2/SDK/2018.2/gnu/aarch64/lin/aarch64-linux/aarch64-linux-gnu/libc/usr/include/bits/types/clock_t.h", directory: "/home/ylxiao_seas_upenn_edu/Roseetta/rosetta/digit-recognition")
!1405 = !DIDerivedType(tag: DW_TAG_typedef, name: "__clock_t", file: !1086, line: 144, baseType: !104)
!1406 = !DIImportedEntity(tag: DW_TAG_imported_declaration, scope: !5, entity: !1407, line: 61)
!1407 = !DIDerivedType(tag: DW_TAG_typedef, name: "time_t", file: !1408, line: 7, baseType: !1409)
!1408 = !DIFile(filename: "/apps/xilinx/2018.2/SDK/2018.2/gnu/aarch64/lin/aarch64-linux/aarch64-linux-gnu/libc/usr/include/bits/types/time_t.h", directory: "/home/ylxiao_seas_upenn_edu/Roseetta/rosetta/digit-recognition")
!1409 = !DIDerivedType(tag: DW_TAG_typedef, name: "__time_t", file: !1086, line: 148, baseType: !104)
!1410 = !DIImportedEntity(tag: DW_TAG_imported_declaration, scope: !5, entity: !960, line: 62)
!1411 = !DIImportedEntity(tag: DW_TAG_imported_declaration, scope: !5, entity: !1412, line: 64)
!1412 = !DISubprogram(name: "clock", scope: !1413, file: !1413, line: 72, type: !1414, isLocal: false, isDefinition: false, flags: DIFlagPrototyped, isOptimized: false)
!1413 = !DIFile(filename: "/apps/xilinx/2018.2/SDK/2018.2/gnu/aarch64/lin/aarch64-linux/aarch64-linux-gnu/libc/usr/include/time.h", directory: "/home/ylxiao_seas_upenn_edu/Roseetta/rosetta/digit-recognition")
!1414 = !DISubroutineType(types: !1415)
!1415 = !{!1403}
!1416 = !DIImportedEntity(tag: DW_TAG_imported_declaration, scope: !5, entity: !1417, line: 65)
!1417 = !DISubprogram(name: "difftime", scope: !1413, file: !1413, line: 78, type: !1418, isLocal: false, isDefinition: false, flags: DIFlagPrototyped, isOptimized: false)
!1418 = !DISubroutineType(types: !1419)
!1419 = !{!237, !1407, !1407}
!1420 = !DIImportedEntity(tag: DW_TAG_imported_declaration, scope: !5, entity: !1421, line: 66)
!1421 = !DISubprogram(name: "mktime", scope: !1413, file: !1413, line: 82, type: !1422, isLocal: false, isDefinition: false, flags: DIFlagPrototyped, isOptimized: false)
!1422 = !DISubroutineType(types: !1423)
!1423 = !{!1407, !1424}
!1424 = !DIDerivedType(tag: DW_TAG_pointer_type, baseType: !960, size: 64, align: 64)
!1425 = !DIImportedEntity(tag: DW_TAG_imported_declaration, scope: !5, entity: !1426, line: 67)
!1426 = !DISubprogram(name: "time", scope: !1413, file: !1413, line: 75, type: !1427, isLocal: false, isDefinition: false, flags: DIFlagPrototyped, isOptimized: false)
!1427 = !DISubroutineType(types: !1428)
!1428 = !{!1407, !1429}
!1429 = !DIDerivedType(tag: DW_TAG_pointer_type, baseType: !1407, size: 64, align: 64)
!1430 = !DIImportedEntity(tag: DW_TAG_imported_declaration, scope: !5, entity: !1431, line: 68)
!1431 = !DISubprogram(name: "asctime", scope: !1413, file: !1413, line: 139, type: !1432, isLocal: false, isDefinition: false, flags: DIFlagPrototyped, isOptimized: false)
!1432 = !DISubroutineType(types: !1433)
!1433 = !{!63, !958}
!1434 = !DIImportedEntity(tag: DW_TAG_imported_declaration, scope: !5, entity: !1435, line: 69)
!1435 = !DISubprogram(name: "ctime", scope: !1413, file: !1413, line: 142, type: !1436, isLocal: false, isDefinition: false, flags: DIFlagPrototyped, isOptimized: false)
!1436 = !DISubroutineType(types: !1437)
!1437 = !{!63, !1438}
!1438 = !DIDerivedType(tag: DW_TAG_pointer_type, baseType: !1439, size: 64, align: 64)
!1439 = !DIDerivedType(tag: DW_TAG_const_type, baseType: !1407)
!1440 = !DIImportedEntity(tag: DW_TAG_imported_declaration, scope: !5, entity: !1441, line: 70)
!1441 = !DISubprogram(name: "gmtime", scope: !1413, file: !1413, line: 119, type: !1442, isLocal: false, isDefinition: false, flags: DIFlagPrototyped, isOptimized: false)
!1442 = !DISubroutineType(types: !1443)
!1443 = !{!1424, !1438}
!1444 = !DIImportedEntity(tag: DW_TAG_imported_declaration, scope: !5, entity: !1445, line: 71)
!1445 = !DISubprogram(name: "localtime", scope: !1413, file: !1413, line: 123, type: !1442, isLocal: false, isDefinition: false, flags: DIFlagPrototyped, isOptimized: false)
!1446 = !DIImportedEntity(tag: DW_TAG_imported_declaration, scope: !5, entity: !1447, line: 72)
!1447 = !DISubprogram(name: "strftime", scope: !1413, file: !1413, line: 88, type: !1448, isLocal: false, isDefinition: false, flags: DIFlagPrototyped, isOptimized: false)
!1448 = !DISubroutineType(types: !1449)
!1449 = !{!89, !65, !89, !70, !957}
!1450 = !{i32 2, !"Dwarf Version", i32 4}
!1451 = !{i32 2, !"Debug Info Version", i32 3}
!1452 = !{!"clang version 3.9.0 (tags/RELEASE_390/final)"}
!1453 = distinct !DISubprogram(name: "__cxx_global_var_init", scope: !7, file: !7, line: 74, type: !590, isLocal: true, isDefinition: true, scopeLine: 74, flags: DIFlagPrototyped, isOptimized: false, unit: !0, variables: !2)
!1454 = !DILocation(line: 74, column: 25, scope: !1453)
!1455 = !DILocation(line: 74, column: 25, scope: !1456)
!1456 = !DILexicalBlockFile(scope: !1453, file: !7, discriminator: 1)
!1457 = !{!"Init"}
!1458 = !{!"void."}
!1459 = !{!"/apps/xilinx/2018.2/SDK/2018.2/gnu/aarch64/lin/aarch64-linux/aarch64-linux-gnu/include/c++/7.2.1/bits/ios_base.h"}
!1460 = !{!"~Init"}
!1461 = distinct !DISubprogram(name: "check_results", linkageName: "_Z13check_resultsPhPKhi", scope: !1, file: !1, line: 12, type: !1462, isLocal: false, isDefinition: true, scopeLine: 13, flags: DIFlagPrototyped, isOptimized: false, unit: !0, variables: !2)
!1462 = !DISubroutineType(types: !1463)
!1463 = !{null, !1464, !1467, !15}
!1464 = !DIDerivedType(tag: DW_TAG_pointer_type, baseType: !1465, size: 64, align: 64)
!1465 = !DIDerivedType(tag: DW_TAG_typedef, name: "LabelType", file: !1466, line: 20, baseType: !1124)
!1466 = !DIFile(filename: "/home/ylxiao_seas_upenn_edu/Roseetta/rosetta/digit-recognition/src/host/typedefs.h", directory: "/home/ylxiao_seas_upenn_edu/Roseetta/rosetta/digit-recognition")
!1467 = !DIDerivedType(tag: DW_TAG_pointer_type, baseType: !1468, size: 64, align: 64)
!1468 = !DIDerivedType(tag: DW_TAG_const_type, baseType: !1465)
!1469 = !{!"check_results"}
!1470 = !{!"void.LabelType *.1.const LabelType *.1.int.0"}
!1471 = !{!"/home/ylxiao_seas_upenn_edu/Roseetta/rosetta/digit-recognition/src/host/check_result.cpp"}
!1472 = !DILocalVariable(name: "result", arg: 1, scope: !1461, file: !1, line: 12, type: !1464)
!1473 = !DIExpression()
!1474 = !DILocation(line: 12, column: 31, scope: !1461)
!1475 = !DILocalVariable(name: "expected", arg: 2, scope: !1461, file: !1, line: 12, type: !1467)
!1476 = !DILocation(line: 12, column: 56, scope: !1461)
!1477 = !DILocalVariable(name: "cnt", arg: 3, scope: !1461, file: !1, line: 12, type: !15)
!1478 = !DILocation(line: 12, column: 70, scope: !1461)
!1479 = !DILocalVariable(name: "correct_cnt", scope: !1461, file: !1, line: 14, type: !15)
!1480 = !DILocation(line: 14, column: 7, scope: !1461)
!1481 = !DILocalVariable(name: "i", scope: !1482, file: !1, line: 16, type: !15)
!1482 = distinct !DILexicalBlock(scope: !1461, file: !1, line: 16, column: 3)
!1483 = !DILocation(line: 16, column: 12, scope: !1482)
!1484 = !DILocation(line: 16, column: 8, scope: !1482)
!1485 = !DILocation(line: 16, column: 19, scope: !1486)
!1486 = !DILexicalBlockFile(scope: !1487, file: !1, discriminator: 1)
!1487 = distinct !DILexicalBlock(scope: !1482, file: !1, line: 16, column: 3)
!1488 = !DILocation(line: 16, column: 23, scope: !1486)
!1489 = !DILocation(line: 16, column: 21, scope: !1486)
!1490 = !DILocation(line: 16, column: 3, scope: !1486)
!1491 = !DILocation(line: 18, column: 16, scope: !1492)
!1492 = distinct !DILexicalBlock(scope: !1493, file: !1, line: 18, column: 9)
!1493 = distinct !DILexicalBlock(scope: !1487, file: !1, line: 17, column: 3)
!1494 = !DILocation(line: 18, column: 9, scope: !1492)
!1495 = !DILocation(line: 18, column: 31, scope: !1492)
!1496 = !DILocation(line: 18, column: 22, scope: !1492)
!1497 = !DILocation(line: 18, column: 19, scope: !1492)
!1498 = !DILocation(line: 18, column: 9, scope: !1493)
!1499 = !DILocation(line: 19, column: 55, scope: !1492)
!1500 = !DILocation(line: 19, column: 67, scope: !1492)
!1501 = !DILocation(line: 19, column: 58, scope: !1492)
!1502 = !DILocation(line: 19, column: 78, scope: !1492)
!1503 = !DILocation(line: 19, column: 71, scope: !1492)
!1504 = !DILocation(line: 19, column: 7, scope: !1492)
!1505 = !DILocation(line: 21, column: 19, scope: !1492)
!1506 = !DILocation(line: 22, column: 3, scope: !1493)
!1507 = !DILocation(line: 16, column: 30, scope: !1508)
!1508 = !DILexicalBlockFile(scope: !1487, file: !1, discriminator: 2)
!1509 = !DILocation(line: 16, column: 3, scope: !1508)
!1510 = distinct !{!1510, !1511}
!1511 = !DILocation(line: 16, column: 3, scope: !1461)
!1512 = !DILocation(line: 24, column: 37, scope: !1461)
!1513 = !DILocation(line: 24, column: 50, scope: !1461)
!1514 = !DILocation(line: 24, column: 3, scope: !1461)
!1515 = !DILocation(line: 26, column: 1, scope: !1461)
!1516 = !{!"printf"}
!1517 = !{!"int.const char *__restrict.1"}
!1518 = !{!"/apps/xilinx/2018.2/SDK/2018.2/gnu/aarch64/lin/aarch64-linux/aarch64-linux-gnu/libc/usr/include/stdio.h"}
!1519 = !{!"t"}
!1520 = distinct !DISubprogram(linkageName: "_GLOBAL__sub_I_check_result.cpp", scope: !1, file: !1, type: !1521, isLocal: true, isDefinition: true, flags: DIFlagArtificial, isOptimized: false, unit: !0, variables: !2)
!1521 = !DISubroutineType(types: !2)
!1522 = !DILocation(line: 0, scope: !1520)
