; ModuleID = '/home/ylxiao_seas_upenn_edu/Roseetta/rosetta/optical-flow/src/sdsoc/optical_flow.cpp'
source_filename = "/home/ylxiao_seas_upenn_edu/Roseetta/rosetta/optical-flow/src/sdsoc/optical_flow.cpp"
target datalayout = "e-m:e-i8:8:32-i16:16:32-i64:64-i128:128-n32:64-S128"
target triple = "aarch64--linux-gnu"

%"class.std::ios_base::Init" = type { i8 }
%class.ap_uint = type { %class.ap_private }
%class.ap_private = type { i8 }
%struct.gradient_t = type { float, float, float }
%struct.outer_t = type { [6 x float] }
%struct.tensor_t = type { [6 x float] }
%class.ap_uint.3 = type { %class.ap_private.4 }
%class.ap_private.4 = type { i64 }
%struct._IO_FILE = type { i32, i8*, i8*, i8*, i8*, i8*, i8*, i8*, i8*, i8*, i8*, i8*, %struct._IO_marker*, %struct._IO_FILE*, i32, i32, i64, i16, i8, [1 x i8], i8*, i64, i8*, i8*, i8*, i8*, i64, i32, [20 x i8] }
%struct._IO_marker = type { %struct._IO_marker*, %struct._IO_FILE*, i32 }
%"class.hls::Window" = type { [5 x [5 x float]] }
%class.ap_uint.5 = type { %class.ap_private.6 }
%class.ap_private.6 = type { i32 }
%class.ap_private.7 = type { i64 }
%"class.hls::LineBuffer" = type { [7 x [1024 x %struct.gradient_t]] }
%"class.hls::Window.0" = type { [1 x [7 x %struct.gradient_t]] }
%"class.hls::LineBuffer.1" = type { [3 x [1024 x %struct.outer_t]] }
%"class.hls::Window.2" = type { [1 x [3 x %struct.tensor_t]] }
%struct.velocity_t = type { float, float }
%struct.ap_range_ref = type { %class.ap_private.4*, i32, i32 }
%class.ap_private.8 = type { i32 }
%class.ap_private.9 = type { i64 }
%class.ap_private.10 = type { i64 }
%struct.ap_bit_ref = type <{ %class.ap_private.4*, i32, [4 x i8] }>

$_ZN7ap_uintILi8EEC2Ev = comdat any

$_ZN7ap_uintILi8EED2Ev = comdat any

$_ZN3hls6WindowILi5ELi5EfEC2Ev = comdat any

$_ZN3hls6WindowILi5ELi5EfE17shift_pixels_leftEv = comdat any

$_ZN3hls6WindowILi5ELi5EfE12insert_pixelEfii = comdat any

$_ZN3hls6WindowILi5ELi5EfE6getvalEii = comdat any

$_ZN3hls10LineBufferILi7ELi1024E10gradient_tLi0EEC2Ev = comdat any

$_ZN3hls10LineBufferILi7ELi1024E10gradient_tLi0EE15shift_pixels_upEi = comdat any

$_ZN3hls10LineBufferILi7ELi1024E10gradient_tLi0EE17insert_bottom_rowES1_i = comdat any

$_ZN3hls10LineBufferILi7ELi1024E10gradient_tLi0EE6getvalEii = comdat any

$_ZN3hls6WindowILi1ELi7E10gradient_tEC2Ev = comdat any

$_ZN3hls6WindowILi1ELi7E10gradient_tE17shift_pixels_leftEv = comdat any

$_ZN3hls6WindowILi1ELi7E10gradient_tE12insert_pixelES1_ii = comdat any

$_ZN3hls6WindowILi1ELi7E10gradient_tE6getvalEii = comdat any

$_ZN3hls10LineBufferILi3ELi1024E7outer_tLi0EEC2Ev = comdat any

$_ZN3hls10LineBufferILi3ELi1024E7outer_tLi0EE15shift_pixels_upEi = comdat any

$_ZN3hls10LineBufferILi3ELi1024E7outer_tLi0EE17insert_bottom_rowES1_i = comdat any

$_ZN3hls10LineBufferILi3ELi1024E7outer_tLi0EE6getvalEii = comdat any

$_ZN3hls6WindowILi1ELi3E8tensor_tEC2Ev = comdat any

$_ZN3hls6WindowILi1ELi3E8tensor_tE17shift_pixels_leftEv = comdat any

$_ZN3hls6WindowILi1ELi3E8tensor_tE12insert_pixelES1_ii = comdat any

$_ZN3hls6WindowILi1ELi3E8tensor_tE6getvalEii = comdat any

$_ZN7ap_uintILi64EEC2Ev = comdat any

$_ZN7ap_uintILi64EED2Ev = comdat any

$_ZN7ap_uintILi64EEaSERKS0_ = comdat any

$_ZN10ap_privateILi64ELb0ELb1EEclEii = comdat any

$_ZNK12ap_range_refILi64ELb0EEcvyEv = comdat any

$_ZN10ap_privateILi8ELb0ELb1EED2Ev = comdat any

$_ZN10ap_privateILi8ELb0ELb1EE12check_canaryEv = comdat any

$__clang_call_terminate = comdat any

$_ZN10ap_privateILi64ELb0ELb1EE12check_canaryEv = comdat any

$_ZN10ap_privateILi8ELb0ELb1EEC2Ev = comdat any

$_ZN10ap_privateILi8ELb0ELb1EE10set_canaryEv = comdat any

$_ZN10ap_privateILi8ELb0ELb1EE15clearUnusedBitsEv = comdat any

$_ZN12ap_range_refILi64ELb0EEC2EP10ap_privateILi64ELb0ELb1EEii = comdat any

$_ZN10ap_privateILi64ELb0ELb1EEC2Ev = comdat any

$_ZN10ap_privateILi64ELb0ELb1EE10set_canaryEv = comdat any

$_ZN10ap_privateILi64ELb0ELb1EE15clearUnusedBitsEv = comdat any

$_ZN7ap_uintILi32EEC2Ev = comdat any

$_ZN7ap_uintILi32EEaSERKS0_ = comdat any

$_ZN7ap_uintILi32EEC2Ei = comdat any

$_ZN7ap_uintILi32EED2Ev = comdat any

$_ZltILi32ELb0EEbRK10ap_privateIXT_EXT0_EXleT_Li64EEEi = comdat any

$_ZplILi32ELb0EEN10ap_privateIXT_EXT0_EXleT_Li64EEE5RTypeIXLi32EEXLb1EEE4plusERKS1_i = comdat any

$_ZNK10ap_privateILi34ELb1ELb1EEcvlEv = comdat any

$_ZNK10ap_privateILi32ELb0ELb1EEcvjEv = comdat any

$_ZN10ap_privateILi34ELb1ELb1EED2Ev = comdat any

$_ZN10ap_privateILi32ELb0ELb1EEppEi = comdat any

$_ZN10ap_privateILi32ELb0ELb1EED2Ev = comdat any

$_ZN10ap_privateILi32ELb0ELb1EEC2Ev = comdat any

$_ZN10ap_privateILi32ELb0ELb1EE10set_canaryEv = comdat any

$_ZN10ap_privateILi32ELb0ELb1EE15clearUnusedBitsEv = comdat any

$_ZN10ap_privateILi32ELb0ELb1EE12check_canaryEv = comdat any

$_ZN10ap_privateILi32ELb0ELb1EEaSERKS0_ = comdat any

$_ZNK10ap_privateILi32ELb0ELb1EE7get_VALEv = comdat any

$_ZN10ap_privateILi32ELb0ELb1EEC2Ei = comdat any

$_ZNK10ap_privateILi32ELb0ELb1EEltILi32ELb1EEEbRKS_IXT_EXT0_EXleT_Li64EEE = comdat any

$_ZN10ap_privateILi32ELb1ELb1EEC2Ei = comdat any

$_ZN10ap_privateILi32ELb1ELb1EED2Ev = comdat any

$_ZN10ap_privateILi33ELb0ELb1EEC2ILi32ELb0ELb1EEERKS_IXT_EXT0_EXT1_EE = comdat any

$_ZN10ap_privateILi33ELb1ELb1EEC2ILi32ELb1ELb1EEERKS_IXT_EXT0_EXT1_EE = comdat any

$_ZNK10ap_privateILi33ELb0ELb1EE3ultILi33ELb1EEEbRKS_IXT_EXT0_EXleT_Li64EEE = comdat any

$_ZN10ap_privateILi33ELb1ELb1EED2Ev = comdat any

$_ZN10ap_privateILi33ELb0ELb1EED2Ev = comdat any

$_ZN10ap_privateILi33ELb0ELb1EE10set_canaryEv = comdat any

$_ZN10ap_privateILi33ELb0ELb1EE15clearUnusedBitsEv = comdat any

$_ZN10ap_privateILi33ELb0ELb1EE12check_canaryEv = comdat any

$_ZNK10ap_privateILi32ELb1ELb1EE7get_VALEv = comdat any

$_ZN10ap_privateILi33ELb1ELb1EE10set_canaryEv = comdat any

$_ZN10ap_privateILi33ELb1ELb1EE15clearUnusedBitsEv = comdat any

$_ZN10ap_privateILi33ELb1ELb1EE12check_canaryEv = comdat any

$_ZNK10ap_privateILi33ELb1ELb1EE7get_VALEv = comdat any

$_ZN10ap_privateILi32ELb1ELb1EE10set_canaryEv = comdat any

$_ZN10ap_privateILi32ELb1ELb1EE15clearUnusedBitsEv = comdat any

$_ZN10ap_privateILi32ELb1ELb1EE12check_canaryEv = comdat any

$_ZNK10ap_privateILi32ELb0ELb1EEplILi32ELb1EEENS0_5RTypeIXT_EXT0_EE4plusERKS_IXT_EXT0_EXleT_Li64EEE = comdat any

$_ZN10ap_privateILi34ELb1ELb1EEC2Em = comdat any

$_ZN10ap_privateILi34ELb1ELb1EE10set_canaryEv = comdat any

$_ZN10ap_privateILi34ELb1ELb1EE15clearUnusedBitsEv = comdat any

$_ZN10ap_privateILi34ELb1ELb1EE12check_canaryEv = comdat any

$_ZNK10ap_privateILi34ELb1ELb1EE7get_VALEv = comdat any

$_ZN10ap_privateILi64ELb0ELb1EEaSERKS0_ = comdat any

$_ZNK10ap_privateILi64ELb0ELb1EE7get_VALEv = comdat any

$_ZNK12ap_range_refILi64ELb0EE9to_uint64Ev = comdat any

$_ZNK12ap_range_refILi64ELb0EE3getEv = comdat any

$_ZNK10ap_privateILi64ELb0ELb1EE9to_uint64Ev = comdat any

$_ZN10ap_privateILi64ELb0ELb1EED2Ev = comdat any

$_ZN10ap_privateILi64ELb0ELb1EEC2Ei = comdat any

$_ZN10ap_privateILi64ELb0ELb1EEixEi = comdat any

$_ZNK10ap_bit_refILi64ELb0EEcvbEv = comdat any

$_ZN10ap_privateILi64ELb0ELb1EE3setEj = comdat any

$_ZrSILi64ELb0EER10ap_privateIXT_EXT0_EXleT_Li64EEES2_i = comdat any

$_ZN10ap_privateILi64ELb0ELb1EEaNEm = comdat any

$_ZN10ap_bit_refILi64ELb0EEC2ER10ap_privateILi64ELb0ELb1EEi = comdat any

$_ZNK10ap_privateILi64ELb0ELb1EE7get_bitEi = comdat any

$_ZNK10ap_privateILi64ELb0ELb1EErsEi = comdat any

$_ZNK10ap_privateILi64ELb0ELb1EE10isNegativeEv = comdat any

$_ZNK10ap_privateILi64ELb0ELb1EElsEi = comdat any

$_ZNK10ap_privateILi64ELb0ELb1EE4lshrEj = comdat any

$_ZNK10ap_privateILi64ELb0ELb1EE3shlEj = comdat any

$_ZN10ap_privateILi64ELb0ELb1EEC2Em = comdat any

$_ZZNK12ap_range_refILi64ELb0EE3getEvE4mask = comdat any

$_ZZNK10ap_privateILi64ELb0ELb1EE10isNegativeEvE9sign_mask = comdat any

@_ZStL8__ioinit = internal global %"class.std::ios_base::Init" zeroinitializer, align 1
@__dso_handle = external global i8
@_ZN3hlsL3lutE = internal global [256 x %class.ap_uint] zeroinitializer, align 1
@_ZZ16gradient_xy_calcPA1024_fS0_S0_E3buf = internal global [5 x [1024 x float]] zeroinitializer, align 4
@_ZZ16gradient_xy_calcPA1024_fS0_S0_E12GRAD_WEIGHTS = internal constant [5 x i32] [i32 1, i32 -8, i32 0, i32 8, i32 -1], align 4
@_ZZ15gradient_z_calcPA1024_fS0_S0_S0_S0_S0_E12GRAD_WEIGHTS = internal constant [5 x i32] [i32 1, i32 -8, i32 0, i32 8, i32 -1], align 4
@_ZZ17gradient_weight_yPA1024_fS0_S0_PA1024_10gradient_tE11GRAD_FILTER = internal constant [7 x float] [float 0x3FB353F7C0000000, float 0x3FC10624E0000000, float 0x3FC7EC56E0000000, float 0x3FD2944680000000, float 0x3FC7EC56E0000000, float 0x3FC10624E0000000, float 0x3FB353F7C0000000], align 4
@_ZZ17gradient_weight_xPA1024_10gradient_tS1_E11GRAD_FILTER = internal constant [7 x float] [float 0x3FB353F7C0000000, float 0x3FC10624E0000000, float 0x3FC7EC56E0000000, float 0x3FD2944680000000, float 0x3FC7EC56E0000000, float 0x3FC10624E0000000, float 0x3FB353F7C0000000], align 4
@_ZZ15tensor_weight_yPA1024_7outer_tPA1024_8tensor_tE13TENSOR_FILTER = internal constant [3 x float] [float 0x3FD4C154C0000000, float 0x3FD67BB300000000, float 0x3FD4C154C0000000], align 4
@_ZZ15tensor_weight_xPA1024_8tensor_tS1_E13TENSOR_FILTER = internal constant [3 x float] [float 0x3FD4C154C0000000, float 0x3FD67BB300000000, float 0x3FD4C154C0000000], align 4
@_ZZ9flow_calcPA1024_8tensor_tPA1024_10velocity_tE3buf = internal global [2 x float] zeroinitializer, align 4
@_ZZ12optical_flowPA1024_7ap_uintILi64EEPA1024_10velocity_tE10gradient_x = internal global [436 x [1024 x float]] zeroinitializer, align 4
@_ZZ12optical_flowPA1024_7ap_uintILi64EEPA1024_10velocity_tE10gradient_y = internal global [436 x [1024 x float]] zeroinitializer, align 4
@_ZZ12optical_flowPA1024_7ap_uintILi64EEPA1024_10velocity_tE10gradient_z = internal global [436 x [1024 x float]] zeroinitializer, align 4
@_ZZ12optical_flowPA1024_7ap_uintILi64EEPA1024_10velocity_tE10y_filtered = internal global [436 x [1024 x %struct.gradient_t]] zeroinitializer, align 4
@_ZZ12optical_flowPA1024_7ap_uintILi64EEPA1024_10velocity_tE17filtered_gradient = internal global [436 x [1024 x %struct.gradient_t]] zeroinitializer, align 4
@_ZZ12optical_flowPA1024_7ap_uintILi64EEPA1024_10velocity_tE11out_product = internal global [436 x [1024 x %struct.outer_t]] zeroinitializer, align 4
@_ZZ12optical_flowPA1024_7ap_uintILi64EEPA1024_10velocity_tE8tensor_y = internal global [436 x [1024 x %struct.tensor_t]] zeroinitializer, align 4
@_ZZ12optical_flowPA1024_7ap_uintILi64EEPA1024_10velocity_tE6tensor = internal global [436 x [1024 x %struct.tensor_t]] zeroinitializer, align 4
@_ZZ12optical_flowPA1024_7ap_uintILi64EEPA1024_10velocity_tE8frame1_a = internal global [436 x [1024 x float]] zeroinitializer, align 4
@_ZZ12optical_flowPA1024_7ap_uintILi64EEPA1024_10velocity_tE8frame2_a = internal global [436 x [1024 x float]] zeroinitializer, align 4
@_ZZ12optical_flowPA1024_7ap_uintILi64EEPA1024_10velocity_tE8frame4_a = internal global [436 x [1024 x float]] zeroinitializer, align 4
@_ZZ12optical_flowPA1024_7ap_uintILi64EEPA1024_10velocity_tE8frame5_a = internal global [436 x [1024 x float]] zeroinitializer, align 4
@_ZZ12optical_flowPA1024_7ap_uintILi64EEPA1024_10velocity_tE8frame3_a = internal global [436 x [1024 x float]] zeroinitializer, align 4
@_ZZ12optical_flowPA1024_7ap_uintILi64EEPA1024_10velocity_tE8frame3_b = internal global [436 x [1024 x float]] zeroinitializer, align 4
@_ZZ12optical_flowPA1024_7ap_uintILi64EEPA1024_10velocity_tE3buf = internal global %class.ap_uint.3 zeroinitializer, align 8
@_ZGVZ12optical_flowPA1024_7ap_uintILi64EEPA1024_10velocity_tE3buf = internal global i64 0, align 8
@stderr = external global %struct._IO_FILE*, align 8
@.str = private unnamed_addr constant [69 x i8] c"Warning! Higher bound (%d) and lower bound (%d) cannot be negative.\0A\00", align 1
@.str.2 = private unnamed_addr constant [67 x i8] c"Warning! Higher bound (%d) or lower bound (%d) out of range (%d).\0A\00", align 1
@.str.3 = private unnamed_addr constant [49 x i8] c"row >= 0 && row < ROWS && col >= 0 && col < COLS\00", align 1
@.str.4 = private unnamed_addr constant [62 x i8] c"/apps/xilinx/2018.2/Vivado/2018.2/include/hls/hls_video_mem.h\00", align 1
@__PRETTY_FUNCTION__._ZN3hls6WindowILi5ELi5EfE12insert_pixelEfii = private unnamed_addr constant [89 x i8] c"void hls::Window<5, 5, float>::insert_pixel(T, int, int) [ROWS = 5, COLS = 5, T = float]\00", align 1
@__PRETTY_FUNCTION__._ZN3hls6WindowILi5ELi5EfE6getvalEii = private unnamed_addr constant [78 x i8] c"T &hls::Window<5, 5, float>::getval(int, int) [ROWS = 5, COLS = 5, T = float]\00", align 1
@.str.5 = private unnamed_addr constant [23 x i8] c"col >= 0 && col < COLS\00", align 1
@__PRETTY_FUNCTION__._ZN3hls10LineBufferILi7ELi1024E10gradient_tLi0EE15shift_pixels_upEi = private unnamed_addr constant [120 x i8] c"void hls::LineBuffer<7, 1024, gradient_t, 0>::shift_pixels_up(int) [ROWS = 7, COLS = 1024, T = gradient_t, RESHAPE = 0]\00", align 1
@__PRETTY_FUNCTION__._ZN3hls10LineBufferILi7ELi1024E10gradient_tLi0EE17insert_bottom_rowES1_i = private unnamed_addr constant [125 x i8] c"void hls::LineBuffer<7, 1024, gradient_t, 0>::insert_bottom_row(T, int) [ROWS = 7, COLS = 1024, T = gradient_t, RESHAPE = 0]\00", align 1
@__PRETTY_FUNCTION__._ZN3hls10LineBufferILi7ELi1024E10gradient_tLi0EE6getvalEii = private unnamed_addr constant [114 x i8] c"T &hls::LineBuffer<7, 1024, gradient_t, 0>::getval(int, int) [ROWS = 7, COLS = 1024, T = gradient_t, RESHAPE = 0]\00", align 1
@__PRETTY_FUNCTION__._ZN3hls6WindowILi1ELi7E10gradient_tE12insert_pixelES1_ii = private unnamed_addr constant [99 x i8] c"void hls::Window<1, 7, gradient_t>::insert_pixel(T, int, int) [ROWS = 1, COLS = 7, T = gradient_t]\00", align 1
@__PRETTY_FUNCTION__._ZN3hls6WindowILi1ELi7E10gradient_tE6getvalEii = private unnamed_addr constant [88 x i8] c"T &hls::Window<1, 7, gradient_t>::getval(int, int) [ROWS = 1, COLS = 7, T = gradient_t]\00", align 1
@__PRETTY_FUNCTION__._ZN3hls10LineBufferILi3ELi1024E7outer_tLi0EE15shift_pixels_upEi = private unnamed_addr constant [114 x i8] c"void hls::LineBuffer<3, 1024, outer_t, 0>::shift_pixels_up(int) [ROWS = 3, COLS = 1024, T = outer_t, RESHAPE = 0]\00", align 1
@__PRETTY_FUNCTION__._ZN3hls10LineBufferILi3ELi1024E7outer_tLi0EE17insert_bottom_rowES1_i = private unnamed_addr constant [119 x i8] c"void hls::LineBuffer<3, 1024, outer_t, 0>::insert_bottom_row(T, int) [ROWS = 3, COLS = 1024, T = outer_t, RESHAPE = 0]\00", align 1
@__PRETTY_FUNCTION__._ZN3hls10LineBufferILi3ELi1024E7outer_tLi0EE6getvalEii = private unnamed_addr constant [108 x i8] c"T &hls::LineBuffer<3, 1024, outer_t, 0>::getval(int, int) [ROWS = 3, COLS = 1024, T = outer_t, RESHAPE = 0]\00", align 1
@__PRETTY_FUNCTION__._ZN3hls6WindowILi1ELi3E8tensor_tE12insert_pixelES1_ii = private unnamed_addr constant [95 x i8] c"void hls::Window<1, 3, tensor_t>::insert_pixel(T, int, int) [ROWS = 1, COLS = 3, T = tensor_t]\00", align 1
@__PRETTY_FUNCTION__._ZN3hls6WindowILi1ELi3E8tensor_tE6getvalEii = private unnamed_addr constant [84 x i8] c"T &hls::Window<1, 3, tensor_t>::getval(int, int) [ROWS = 1, COLS = 3, T = tensor_t]\00", align 1
@_ZZNK12ap_range_refILi64ELb0EE3getEvE4mask = linkonce_odr constant i64 -1, comdat, align 8
@.str.6 = private unnamed_addr constant [56 x i8] c"Warning! Index of bit vector  (%d) cannot be negative.\0A\00", align 1
@.str.7 = private unnamed_addr constant [54 x i8] c"Warning! Index of bit vector (%d) out of range (%d).\0A\00", align 1
@.str.8 = private unnamed_addr constant [43 x i8] c"Attempting to read bit with negative index\00", align 1
@.str.9 = private unnamed_addr constant [55 x i8] c"i >= 0 && \22Attempting to read bit with negative index\22\00", align 1
@.str.10 = private unnamed_addr constant [59 x i8] c"/apps/xilinx/2018.2/Vivado/2018.2/include/etc/ap_private.h\00", align 1
@__PRETTY_FUNCTION__._ZNK10ap_privateILi64ELb0ELb1EE7get_bitEi = private unnamed_addr constant [95 x i8] c"bool ap_private<64, false, true>::get_bit(int) const [_AP_W = 64, _AP_S = false, _AP_C = true]\00", align 1
@.str.11 = private unnamed_addr constant [34 x i8] c"Attempting to read bit beyond MSB\00", align 1
@.str.12 = private unnamed_addr constant [49 x i8] c"i < _AP_W && \22Attempting to read bit beyond MSB\22\00", align 1
@_ZZNK10ap_privateILi64ELb0ELb1EE10isNegativeEvE9sign_mask = linkonce_odr constant i64 -9223372036854775808, comdat, align 8
@llvm.global_ctors = appending global [1 x { i32, void ()*, i8* }] [{ i32, void ()*, i8* } { i32 65535, void ()* @_GLOBAL__sub_I_optical_flow.cpp, i8* null }]

define internal void @__cxx_global_var_init() #0 section ".text.startup" !dbg !14869 {
  call void @_ZNSt8ios_base4InitC1Ev(%"class.std::ios_base::Init"* @_ZStL8__ioinit), !dbg !14870
  %1 = call i32 @__cxa_atexit(void (i8*)* bitcast (void (%"class.std::ios_base::Init"*)* @_ZNSt8ios_base4InitD1Ev to void (i8*)*), i8* getelementptr inbounds (%"class.std::ios_base::Init", %"class.std::ios_base::Init"* @_ZStL8__ioinit, i32 0, i32 0), i8* @__dso_handle) #3, !dbg !14871
  ret void, !dbg !14870
}

declare !xidane.fname !14873 !xidane.function_declaration_type !14874 !xidane.function_declaration_filename !14875 void @_ZNSt8ios_base4InitC1Ev(%"class.std::ios_base::Init"*) unnamed_addr #1

; Function Attrs: nounwind
declare !xidane.fname !14876 !xidane.function_declaration_type !14874 !xidane.function_declaration_filename !14875 void @_ZNSt8ios_base4InitD1Ev(%"class.std::ios_base::Init"*) unnamed_addr #2

; Function Attrs: nounwind
declare i32 @__cxa_atexit(void (i8*)*, i8*, i8*) #3

define internal void @__cxx_global_var_init.1() #0 section ".text.startup" personality i8* bitcast (i32 (...)* @__gxx_personality_v0 to i8*) !dbg !14877 {
  %1 = alloca i8*
  %2 = alloca i32
  br label %3, !dbg !14878

; <label>:3:                                      ; preds = %5, %0
  %4 = phi %class.ap_uint* [ getelementptr inbounds ([256 x %class.ap_uint], [256 x %class.ap_uint]* @_ZN3hlsL3lutE, i32 0, i32 0), %0 ], [ %6, %5 ], !dbg !14879
  invoke void @_ZN7ap_uintILi8EEC2Ev(%class.ap_uint* %4)
          to label %5 unwind label %10, !dbg !14879

; <label>:5:                                      ; preds = %3
  %6 = getelementptr inbounds %class.ap_uint, %class.ap_uint* %4, i64 1, !dbg !14881
  %7 = icmp eq %class.ap_uint* %6, getelementptr inbounds (%class.ap_uint, %class.ap_uint* getelementptr inbounds ([256 x %class.ap_uint], [256 x %class.ap_uint]* @_ZN3hlsL3lutE, i32 0, i32 0), i64 256), !dbg !14881
  br i1 %7, label %8, label %3, !dbg !14881

; <label>:8:                                      ; preds = %5
  %9 = call i32 @__cxa_atexit(void (i8*)* @__cxx_global_array_dtor, i8* null, i8* @__dso_handle) #3, !dbg !14883
  ret void, !dbg !14885

; <label>:10:                                     ; preds = %3
  %11 = landingpad { i8*, i32 }
          cleanup, !dbg !14886
  %12 = extractvalue { i8*, i32 } %11, 0, !dbg !14886
  store i8* %12, i8** %1, align 8, !dbg !14886
  %13 = extractvalue { i8*, i32 } %11, 1, !dbg !14886
  store i32 %13, i32* %2, align 4, !dbg !14886
  %14 = icmp eq %class.ap_uint* getelementptr inbounds ([256 x %class.ap_uint], [256 x %class.ap_uint]* @_ZN3hlsL3lutE, i32 0, i32 0), %4, !dbg !14888
  br i1 %14, label %19, label %15, !dbg !14888

; <label>:15:                                     ; preds = %15, %10
  %16 = phi %class.ap_uint* [ %4, %10 ], [ %17, %15 ], !dbg !14889
  %17 = getelementptr inbounds %class.ap_uint, %class.ap_uint* %16, i64 -1, !dbg !14889
  call void @_ZN7ap_uintILi8EED2Ev(%class.ap_uint* %17) #3, !dbg !14889
  %18 = icmp eq %class.ap_uint* %17, getelementptr inbounds ([256 x %class.ap_uint], [256 x %class.ap_uint]* @_ZN3hlsL3lutE, i32 0, i32 0), !dbg !14889
  br i1 %18, label %19, label %15, !dbg !14889

; <label>:19:                                     ; preds = %15, %10
  br label %20, !dbg !14891

; <label>:20:                                     ; preds = %19
  %21 = load i8*, i8** %1, align 8, !dbg !14893
  %22 = load i32, i32* %2, align 4, !dbg !14893
  %23 = insertvalue { i8*, i32 } undef, i8* %21, 0, !dbg !14893
  %24 = insertvalue { i8*, i32 } %23, i32 %22, 1, !dbg !14893
  resume { i8*, i32 } %24, !dbg !14893
}

; Function Attrs: inlinehint
define linkonce_odr void @_ZN7ap_uintILi8EEC2Ev(%class.ap_uint*) unnamed_addr #4 comdat align 2 !dbg !14895 !xidane.fname !14896 !xidane.function_declaration_type !14874 !xidane.function_declaration_filename !14897 {
  %2 = alloca %class.ap_uint*, align 8
  store %class.ap_uint* %0, %class.ap_uint** %2, align 8
  call void @llvm.dbg.declare(metadata %class.ap_uint** %2, metadata !14898, metadata !14900), !dbg !14901
  %3 = load %class.ap_uint*, %class.ap_uint** %2, align 8
  %4 = bitcast %class.ap_uint* %3 to %class.ap_private*, !dbg !14902
  call void @_ZN10ap_privateILi8ELb0ELb1EEC2Ev(%class.ap_private* %4), !dbg !14903
  ret void, !dbg !14904
}

declare i32 @__gxx_personality_v0(...)

; Function Attrs: inlinehint nounwind
define linkonce_odr void @_ZN7ap_uintILi8EED2Ev(%class.ap_uint*) unnamed_addr #5 comdat align 2 !dbg !14905 !xidane.fname !14907 !xidane.function_declaration_type !14874 !xidane.function_declaration_filename !14897 {
  %2 = alloca %class.ap_uint*, align 8
  store %class.ap_uint* %0, %class.ap_uint** %2, align 8
  call void @llvm.dbg.declare(metadata %class.ap_uint** %2, metadata !14908, metadata !14900), !dbg !14909
  %3 = load %class.ap_uint*, %class.ap_uint** %2, align 8
  %4 = bitcast %class.ap_uint* %3 to %class.ap_private*, !dbg !14910
  call void @_ZN10ap_privateILi8ELb0ELb1EED2Ev(%class.ap_private* %4) #3, !dbg !14910
  ret void, !dbg !14912
}

define internal void @__cxx_global_array_dtor(i8*) #0 section ".text.startup" !dbg !14913 {
  %2 = alloca i8*, align 8
  store i8* %0, i8** %2, align 8
  call void @llvm.dbg.declare(metadata i8** %2, metadata !14914, metadata !14900), !dbg !14915
  br label %3, !dbg !14916

; <label>:3:                                      ; preds = %3, %1
  %4 = phi %class.ap_uint* [ getelementptr inbounds (%class.ap_uint, %class.ap_uint* getelementptr inbounds ([256 x %class.ap_uint], [256 x %class.ap_uint]* @_ZN3hlsL3lutE, i32 0, i32 0), i64 256), %1 ], [ %5, %3 ], !dbg !14917
  %5 = getelementptr inbounds %class.ap_uint, %class.ap_uint* %4, i64 -1, !dbg !14917
  call void @_ZN7ap_uintILi8EED2Ev(%class.ap_uint* %5) #3, !dbg !14917
  %6 = icmp eq %class.ap_uint* %5, getelementptr inbounds ([256 x %class.ap_uint], [256 x %class.ap_uint]* @_ZN3hlsL3lutE, i32 0, i32 0), !dbg !14917
  br i1 %6, label %7, label %3, !dbg !14917

; <label>:7:                                      ; preds = %3
  ret void, !dbg !14919
}

; Function Attrs: nounwind readnone
declare void @llvm.dbg.declare(metadata, metadata, metadata) #6

define void @_Z16gradient_xy_calcPA1024_fS0_S0_([1024 x float]*, [1024 x float]*, [1024 x float]*) #0 !dbg !13255 !xidane.fname !14921 !xidane.function_declaration_type !14922 !xidane.function_declaration_filename !14923 {
  %4 = alloca [1024 x float]*, align 8
  %5 = alloca [1024 x float]*, align 8
  %6 = alloca [1024 x float]*, align 8
  %7 = alloca [5 x float], align 4
  %8 = alloca %"class.hls::Window", align 4
  %9 = alloca i32, align 4
  %10 = alloca i32, align 4
  %11 = alloca i32, align 4
  %12 = alloca i32, align 4
  %13 = alloca i32, align 4
  %14 = alloca i32, align 4
  %15 = alloca float, align 4
  %16 = alloca float, align 4
  %17 = alloca i32, align 4
  store [1024 x float]* %0, [1024 x float]** %4, align 8
  call void @llvm.dbg.declare(metadata [1024 x float]** %4, metadata !14924, metadata !14900), !dbg !14925
  store [1024 x float]* %1, [1024 x float]** %5, align 8
  call void @llvm.dbg.declare(metadata [1024 x float]** %5, metadata !14926, metadata !14900), !dbg !14927
  store [1024 x float]* %2, [1024 x float]** %6, align 8
  call void @llvm.dbg.declare(metadata [1024 x float]** %6, metadata !14928, metadata !14900), !dbg !14929
  call void @llvm.dbg.declare(metadata [5 x float]* %7, metadata !14930, metadata !14900), !dbg !14932
  call void @llvm.dbg.declare(metadata %"class.hls::Window"* %8, metadata !14933, metadata !14900), !dbg !14980
  call void @_ZN3hls6WindowILi5ELi5EfEC2Ev(%"class.hls::Window"* %8), !dbg !14980
  br label %18, !dbg !14981

; <label>:18:                                     ; preds = %3
  call void @llvm.dbg.declare(metadata i32* %9, metadata !14982, metadata !14900), !dbg !14984
  store i32 0, i32* %9, align 4, !dbg !14984
  br label %19, !dbg !14985

; <label>:19:                                     ; preds = %244, %18
  %20 = load i32, i32* %9, align 4, !dbg !14986
  %21 = icmp slt i32 %20, 438, !dbg !14989
  br i1 %21, label %22, label %247, !dbg !14990

; <label>:22:                                     ; preds = %19
  br label %23, !dbg !14991

; <label>:23:                                     ; preds = %22
  call void @llvm.dbg.declare(metadata i32* %10, metadata !14992, metadata !14900), !dbg !14995
  store i32 0, i32* %10, align 4, !dbg !14995
  br label %24, !dbg !14996

; <label>:24:                                     ; preds = %240, %23
  %25 = load i32, i32* %10, align 4, !dbg !14997
  %26 = icmp slt i32 %25, 1026, !dbg !15000
  br i1 %26, label %27, label %243, !dbg !15001

; <label>:27:                                     ; preds = %24
  call void @llvm.dbg.declare(metadata i32* %11, metadata !15002, metadata !14900), !dbg !15005
  store i32 0, i32* %11, align 4, !dbg !15005
  br label %28, !dbg !15006

; <label>:28:                                     ; preds = %43, %27
  %29 = load i32, i32* %11, align 4, !dbg !15007
  %30 = icmp slt i32 %29, 4, !dbg !15010
  br i1 %30, label %31, label %46, !dbg !15011

; <label>:31:                                     ; preds = %28
  %32 = load i32, i32* %10, align 4, !dbg !15012
  %33 = sext i32 %32 to i64, !dbg !15013
  %34 = load i32, i32* %11, align 4, !dbg !15014
  %35 = add nsw i32 %34, 1, !dbg !15015
  %36 = sext i32 %35 to i64, !dbg !15013
  %37 = getelementptr inbounds [5 x [1024 x float]], [5 x [1024 x float]]* @_ZZ16gradient_xy_calcPA1024_fS0_S0_E3buf, i64 0, i64 %36, !dbg !15013
  %38 = getelementptr inbounds [1024 x float], [1024 x float]* %37, i64 0, i64 %33, !dbg !15013
  %39 = load float, float* %38, align 4, !dbg !15013
  %40 = load i32, i32* %11, align 4, !dbg !15016
  %41 = sext i32 %40 to i64, !dbg !15017
  %42 = getelementptr inbounds [5 x float], [5 x float]* %7, i64 0, i64 %41, !dbg !15017
  store float %39, float* %42, align 4, !dbg !15018
  br label %43, !dbg !15017

; <label>:43:                                     ; preds = %31
  %44 = load i32, i32* %11, align 4, !dbg !15019
  %45 = add nsw i32 %44, 1, !dbg !15019
  store i32 %45, i32* %11, align 4, !dbg !15019
  br label %28, !dbg !15021, !llvm.loop !15022

; <label>:46:                                     ; preds = %28
  %47 = load i32, i32* %9, align 4, !dbg !15024
  %48 = icmp slt i32 %47, 436, !dbg !15026
  br i1 %48, label %49, label %62, !dbg !15027

; <label>:49:                                     ; preds = %46
  %50 = load i32, i32* %10, align 4, !dbg !15028
  %51 = icmp slt i32 %50, 1024, !dbg !15030
  br i1 %51, label %52, label %62, !dbg !15031

; <label>:52:                                     ; preds = %49
  %53 = load i32, i32* %10, align 4, !dbg !15032
  %54 = sext i32 %53 to i64, !dbg !15033
  %55 = load i32, i32* %9, align 4, !dbg !15034
  %56 = sext i32 %55 to i64, !dbg !15033
  %57 = load [1024 x float]*, [1024 x float]** %4, align 8, !dbg !15033
  %58 = getelementptr inbounds [1024 x float], [1024 x float]* %57, i64 %56, !dbg !15033
  %59 = getelementptr inbounds [1024 x float], [1024 x float]* %58, i64 0, i64 %54, !dbg !15033
  %60 = load float, float* %59, align 4, !dbg !15033
  %61 = getelementptr inbounds [5 x float], [5 x float]* %7, i64 0, i64 4, !dbg !15035
  store float %60, float* %61, align 4, !dbg !15036
  br label %68, !dbg !15035

; <label>:62:                                     ; preds = %49, %46
  %63 = load i32, i32* %10, align 4, !dbg !15037
  %64 = icmp slt i32 %63, 1024, !dbg !15039
  br i1 %64, label %65, label %67, !dbg !15040

; <label>:65:                                     ; preds = %62
  %66 = getelementptr inbounds [5 x float], [5 x float]* %7, i64 0, i64 4, !dbg !15041
  store float 0.000000e+00, float* %66, align 4, !dbg !15042
  br label %67, !dbg !15041

; <label>:67:                                     ; preds = %65, %62
  br label %68

; <label>:68:                                     ; preds = %67, %52
  %69 = load i32, i32* %9, align 4, !dbg !15043
  %70 = icmp slt i32 %69, 436, !dbg !15045
  br i1 %70, label %71, label %98, !dbg !15046

; <label>:71:                                     ; preds = %68
  %72 = load i32, i32* %10, align 4, !dbg !15047
  %73 = icmp slt i32 %72, 1024, !dbg !15049
  br i1 %73, label %74, label %98, !dbg !15050

; <label>:74:                                     ; preds = %71
  call void @llvm.dbg.declare(metadata i32* %12, metadata !15051, metadata !14900), !dbg !15054
  store i32 0, i32* %12, align 4, !dbg !15054
  br label %75, !dbg !15055

; <label>:75:                                     ; preds = %89, %74
  %76 = load i32, i32* %12, align 4, !dbg !15056
  %77 = icmp slt i32 %76, 4, !dbg !15059
  br i1 %77, label %78, label %92, !dbg !15060

; <label>:78:                                     ; preds = %75
  %79 = load i32, i32* %12, align 4, !dbg !15061
  %80 = sext i32 %79 to i64, !dbg !15062
  %81 = getelementptr inbounds [5 x float], [5 x float]* %7, i64 0, i64 %80, !dbg !15062
  %82 = load float, float* %81, align 4, !dbg !15062
  %83 = load i32, i32* %10, align 4, !dbg !15063
  %84 = sext i32 %83 to i64, !dbg !15064
  %85 = load i32, i32* %12, align 4, !dbg !15065
  %86 = sext i32 %85 to i64, !dbg !15064
  %87 = getelementptr inbounds [5 x [1024 x float]], [5 x [1024 x float]]* @_ZZ16gradient_xy_calcPA1024_fS0_S0_E3buf, i64 0, i64 %86, !dbg !15064
  %88 = getelementptr inbounds [1024 x float], [1024 x float]* %87, i64 0, i64 %84, !dbg !15064
  store float %82, float* %88, align 4, !dbg !15066
  br label %89, !dbg !15064

; <label>:89:                                     ; preds = %78
  %90 = load i32, i32* %12, align 4, !dbg !15067
  %91 = add nsw i32 %90, 1, !dbg !15067
  store i32 %91, i32* %12, align 4, !dbg !15067
  br label %75, !dbg !15069, !llvm.loop !15070

; <label>:92:                                     ; preds = %75
  %93 = getelementptr inbounds [5 x float], [5 x float]* %7, i64 0, i64 4, !dbg !15072
  %94 = load float, float* %93, align 4, !dbg !15072
  %95 = load i32, i32* %10, align 4, !dbg !15073
  %96 = sext i32 %95 to i64, !dbg !15074
  %97 = getelementptr inbounds [1024 x float], [1024 x float]* getelementptr inbounds ([5 x [1024 x float]], [5 x [1024 x float]]* @_ZZ16gradient_xy_calcPA1024_fS0_S0_E3buf, i64 0, i64 4), i64 0, i64 %96, !dbg !15074
  store float %94, float* %97, align 4, !dbg !15075
  br label %126, !dbg !15076

; <label>:98:                                     ; preds = %71, %68
  %99 = load i32, i32* %10, align 4, !dbg !15077
  %100 = icmp slt i32 %99, 1024, !dbg !15079
  br i1 %100, label %101, label %125, !dbg !15080

; <label>:101:                                    ; preds = %98
  call void @llvm.dbg.declare(metadata i32* %13, metadata !15081, metadata !14900), !dbg !15084
  store i32 0, i32* %13, align 4, !dbg !15084
  br label %102, !dbg !15085

; <label>:102:                                    ; preds = %116, %101
  %103 = load i32, i32* %13, align 4, !dbg !15086
  %104 = icmp slt i32 %103, 4, !dbg !15089
  br i1 %104, label %105, label %119, !dbg !15090

; <label>:105:                                    ; preds = %102
  %106 = load i32, i32* %13, align 4, !dbg !15091
  %107 = sext i32 %106 to i64, !dbg !15092
  %108 = getelementptr inbounds [5 x float], [5 x float]* %7, i64 0, i64 %107, !dbg !15092
  %109 = load float, float* %108, align 4, !dbg !15092
  %110 = load i32, i32* %10, align 4, !dbg !15093
  %111 = sext i32 %110 to i64, !dbg !15094
  %112 = load i32, i32* %13, align 4, !dbg !15095
  %113 = sext i32 %112 to i64, !dbg !15094
  %114 = getelementptr inbounds [5 x [1024 x float]], [5 x [1024 x float]]* @_ZZ16gradient_xy_calcPA1024_fS0_S0_E3buf, i64 0, i64 %113, !dbg !15094
  %115 = getelementptr inbounds [1024 x float], [1024 x float]* %114, i64 0, i64 %111, !dbg !15094
  store float %109, float* %115, align 4, !dbg !15096
  br label %116, !dbg !15094

; <label>:116:                                    ; preds = %105
  %117 = load i32, i32* %13, align 4, !dbg !15097
  %118 = add nsw i32 %117, 1, !dbg !15097
  store i32 %118, i32* %13, align 4, !dbg !15097
  br label %102, !dbg !15099, !llvm.loop !15100

; <label>:119:                                    ; preds = %102
  %120 = getelementptr inbounds [5 x float], [5 x float]* %7, i64 0, i64 4, !dbg !15102
  %121 = load float, float* %120, align 4, !dbg !15102
  %122 = load i32, i32* %10, align 4, !dbg !15103
  %123 = sext i32 %122 to i64, !dbg !15104
  %124 = getelementptr inbounds [1024 x float], [1024 x float]* getelementptr inbounds ([5 x [1024 x float]], [5 x [1024 x float]]* @_ZZ16gradient_xy_calcPA1024_fS0_S0_E3buf, i64 0, i64 4), i64 0, i64 %123, !dbg !15104
  store float %121, float* %124, align 4, !dbg !15105
  br label %125, !dbg !15106

; <label>:125:                                    ; preds = %119, %98
  br label %126

; <label>:126:                                    ; preds = %125, %92
  %127 = load i32, i32* %9, align 4, !dbg !15107
  %128 = icmp slt i32 %127, 436, !dbg !15109
  br i1 %128, label %129, label %146, !dbg !15110

; <label>:129:                                    ; preds = %126
  %130 = load i32, i32* %10, align 4, !dbg !15111
  %131 = icmp slt i32 %130, 1024, !dbg !15113
  br i1 %131, label %132, label %146, !dbg !15114

; <label>:132:                                    ; preds = %129
  call void @_ZN3hls6WindowILi5ELi5EfE17shift_pixels_leftEv(%"class.hls::Window"* %8), !dbg !15115
  call void @llvm.dbg.declare(metadata i32* %14, metadata !15117, metadata !14900), !dbg !15119
  store i32 0, i32* %14, align 4, !dbg !15119
  br label %133, !dbg !15120

; <label>:133:                                    ; preds = %142, %132
  %134 = load i32, i32* %14, align 4, !dbg !15121
  %135 = icmp slt i32 %134, 5, !dbg !15124
  br i1 %135, label %136, label %145, !dbg !15125

; <label>:136:                                    ; preds = %133
  %137 = load i32, i32* %14, align 4, !dbg !15126
  %138 = sext i32 %137 to i64, !dbg !15127
  %139 = getelementptr inbounds [5 x float], [5 x float]* %7, i64 0, i64 %138, !dbg !15127
  %140 = load float, float* %139, align 4, !dbg !15127
  %141 = load i32, i32* %14, align 4, !dbg !15128
  call void @_ZN3hls6WindowILi5ELi5EfE12insert_pixelEfii(%"class.hls::Window"* %8, float %140, i32 %141, i32 4), !dbg !15129
  br label %142, !dbg !15130

; <label>:142:                                    ; preds = %136
  %143 = load i32, i32* %14, align 4, !dbg !15131
  %144 = add nsw i32 %143, 1, !dbg !15131
  store i32 %144, i32* %14, align 4, !dbg !15131
  br label %133, !dbg !15133, !llvm.loop !15134

; <label>:145:                                    ; preds = %133
  br label %147, !dbg !15136

; <label>:146:                                    ; preds = %129, %126
  call void @_ZN3hls6WindowILi5ELi5EfE17shift_pixels_leftEv(%"class.hls::Window"* %8), !dbg !15137
  call void @_ZN3hls6WindowILi5ELi5EfE12insert_pixelEfii(%"class.hls::Window"* %8, float 0.000000e+00, i32 0, i32 4), !dbg !15139
  call void @_ZN3hls6WindowILi5ELi5EfE12insert_pixelEfii(%"class.hls::Window"* %8, float 0.000000e+00, i32 1, i32 4), !dbg !15140
  call void @_ZN3hls6WindowILi5ELi5EfE12insert_pixelEfii(%"class.hls::Window"* %8, float 0.000000e+00, i32 2, i32 4), !dbg !15141
  call void @_ZN3hls6WindowILi5ELi5EfE12insert_pixelEfii(%"class.hls::Window"* %8, float 0.000000e+00, i32 3, i32 4), !dbg !15142
  call void @_ZN3hls6WindowILi5ELi5EfE12insert_pixelEfii(%"class.hls::Window"* %8, float 0.000000e+00, i32 4, i32 4), !dbg !15143
  br label %147

; <label>:147:                                    ; preds = %146, %145
  call void @llvm.dbg.declare(metadata float* %15, metadata !15144, metadata !14900), !dbg !15145
  store float 0.000000e+00, float* %15, align 4, !dbg !15145
  call void @llvm.dbg.declare(metadata float* %16, metadata !15146, metadata !14900), !dbg !15147
  store float 0.000000e+00, float* %16, align 4, !dbg !15147
  %148 = load i32, i32* %9, align 4, !dbg !15148
  %149 = icmp sge i32 %148, 4, !dbg !15150
  br i1 %149, label %150, label %213, !dbg !15151

; <label>:150:                                    ; preds = %147
  %151 = load i32, i32* %9, align 4, !dbg !15152
  %152 = icmp slt i32 %151, 436, !dbg !15154
  br i1 %152, label %153, label %213, !dbg !15155

; <label>:153:                                    ; preds = %150
  %154 = load i32, i32* %10, align 4, !dbg !15156
  %155 = icmp sge i32 %154, 4, !dbg !15158
  br i1 %155, label %156, label %213, !dbg !15159

; <label>:156:                                    ; preds = %153
  %157 = load i32, i32* %10, align 4, !dbg !15160
  %158 = icmp slt i32 %157, 1024, !dbg !15162
  br i1 %158, label %159, label %213, !dbg !15163

; <label>:159:                                    ; preds = %156
  br label %160, !dbg !15164

; <label>:160:                                    ; preds = %159
  call void @llvm.dbg.declare(metadata i32* %17, metadata !15165, metadata !14900), !dbg !15168
  store i32 0, i32* %17, align 4, !dbg !15168
  br label %161, !dbg !15169

; <label>:161:                                    ; preds = %187, %160
  %162 = load i32, i32* %17, align 4, !dbg !15170
  %163 = icmp slt i32 %162, 5, !dbg !15173
  br i1 %163, label %164, label %190, !dbg !15174

; <label>:164:                                    ; preds = %161
  %165 = load i32, i32* %17, align 4, !dbg !15175
  %166 = call dereferenceable(4) float* @_ZN3hls6WindowILi5ELi5EfE6getvalEii(%"class.hls::Window"* %8, i32 2, i32 %165), !dbg !15177
  %167 = load float, float* %166, align 4, !dbg !15177
  %168 = load i32, i32* %17, align 4, !dbg !15178
  %169 = sext i32 %168 to i64, !dbg !15179
  %170 = getelementptr inbounds [5 x i32], [5 x i32]* @_ZZ16gradient_xy_calcPA1024_fS0_S0_E12GRAD_WEIGHTS, i64 0, i64 %169, !dbg !15179
  %171 = load i32, i32* %170, align 4, !dbg !15179
  %172 = sitofp i32 %171 to float, !dbg !15179
  %173 = fmul float %167, %172, !dbg !15180
  %174 = load float, float* %15, align 4, !dbg !15181
  %175 = fadd float %174, %173, !dbg !15181
  store float %175, float* %15, align 4, !dbg !15181
  %176 = load i32, i32* %17, align 4, !dbg !15182
  %177 = call dereferenceable(4) float* @_ZN3hls6WindowILi5ELi5EfE6getvalEii(%"class.hls::Window"* %8, i32 %176, i32 2), !dbg !15183
  %178 = load float, float* %177, align 4, !dbg !15183
  %179 = load i32, i32* %17, align 4, !dbg !15184
  %180 = sext i32 %179 to i64, !dbg !15185
  %181 = getelementptr inbounds [5 x i32], [5 x i32]* @_ZZ16gradient_xy_calcPA1024_fS0_S0_E12GRAD_WEIGHTS, i64 0, i64 %180, !dbg !15185
  %182 = load i32, i32* %181, align 4, !dbg !15185
  %183 = sitofp i32 %182 to float, !dbg !15185
  %184 = fmul float %178, %183, !dbg !15186
  %185 = load float, float* %16, align 4, !dbg !15187
  %186 = fadd float %185, %184, !dbg !15187
  store float %186, float* %16, align 4, !dbg !15187
  br label %187, !dbg !15188

; <label>:187:                                    ; preds = %164
  %188 = load i32, i32* %17, align 4, !dbg !15189
  %189 = add nsw i32 %188, 1, !dbg !15189
  store i32 %189, i32* %17, align 4, !dbg !15189
  br label %161, !dbg !15191, !llvm.loop !15192

; <label>:190:                                    ; preds = %161
  %191 = load float, float* %15, align 4, !dbg !15194
  %192 = fdiv float %191, 1.200000e+01, !dbg !15195
  %193 = load i32, i32* %10, align 4, !dbg !15196
  %194 = sub nsw i32 %193, 2, !dbg !15197
  %195 = sext i32 %194 to i64, !dbg !15198
  %196 = load i32, i32* %9, align 4, !dbg !15199
  %197 = sub nsw i32 %196, 2, !dbg !15200
  %198 = sext i32 %197 to i64, !dbg !15198
  %199 = load [1024 x float]*, [1024 x float]** %5, align 8, !dbg !15198
  %200 = getelementptr inbounds [1024 x float], [1024 x float]* %199, i64 %198, !dbg !15198
  %201 = getelementptr inbounds [1024 x float], [1024 x float]* %200, i64 0, i64 %195, !dbg !15198
  store float %192, float* %201, align 4, !dbg !15201
  %202 = load float, float* %16, align 4, !dbg !15202
  %203 = fdiv float %202, 1.200000e+01, !dbg !15203
  %204 = load i32, i32* %10, align 4, !dbg !15204
  %205 = sub nsw i32 %204, 2, !dbg !15205
  %206 = sext i32 %205 to i64, !dbg !15206
  %207 = load i32, i32* %9, align 4, !dbg !15207
  %208 = sub nsw i32 %207, 2, !dbg !15208
  %209 = sext i32 %208 to i64, !dbg !15206
  %210 = load [1024 x float]*, [1024 x float]** %6, align 8, !dbg !15206
  %211 = getelementptr inbounds [1024 x float], [1024 x float]* %210, i64 %209, !dbg !15206
  %212 = getelementptr inbounds [1024 x float], [1024 x float]* %211, i64 0, i64 %206, !dbg !15206
  store float %203, float* %212, align 4, !dbg !15209
  br label %239, !dbg !15210

; <label>:213:                                    ; preds = %156, %153, %150, %147
  %214 = load i32, i32* %9, align 4, !dbg !15211
  %215 = icmp sge i32 %214, 2, !dbg !15213
  br i1 %215, label %216, label %238, !dbg !15214

; <label>:216:                                    ; preds = %213
  %217 = load i32, i32* %10, align 4, !dbg !15215
  %218 = icmp sge i32 %217, 2, !dbg !15217
  br i1 %218, label %219, label %238, !dbg !15218

; <label>:219:                                    ; preds = %216
  %220 = load i32, i32* %10, align 4, !dbg !15219
  %221 = sub nsw i32 %220, 2, !dbg !15221
  %222 = sext i32 %221 to i64, !dbg !15222
  %223 = load i32, i32* %9, align 4, !dbg !15223
  %224 = sub nsw i32 %223, 2, !dbg !15224
  %225 = sext i32 %224 to i64, !dbg !15222
  %226 = load [1024 x float]*, [1024 x float]** %5, align 8, !dbg !15222
  %227 = getelementptr inbounds [1024 x float], [1024 x float]* %226, i64 %225, !dbg !15222
  %228 = getelementptr inbounds [1024 x float], [1024 x float]* %227, i64 0, i64 %222, !dbg !15222
  store float 0.000000e+00, float* %228, align 4, !dbg !15225
  %229 = load i32, i32* %10, align 4, !dbg !15226
  %230 = sub nsw i32 %229, 2, !dbg !15227
  %231 = sext i32 %230 to i64, !dbg !15228
  %232 = load i32, i32* %9, align 4, !dbg !15229
  %233 = sub nsw i32 %232, 2, !dbg !15230
  %234 = sext i32 %233 to i64, !dbg !15228
  %235 = load [1024 x float]*, [1024 x float]** %6, align 8, !dbg !15228
  %236 = getelementptr inbounds [1024 x float], [1024 x float]* %235, i64 %234, !dbg !15228
  %237 = getelementptr inbounds [1024 x float], [1024 x float]* %236, i64 0, i64 %231, !dbg !15228
  store float 0.000000e+00, float* %237, align 4, !dbg !15231
  br label %238, !dbg !15232

; <label>:238:                                    ; preds = %219, %216, %213
  br label %239

; <label>:239:                                    ; preds = %238, %190
  br label %240, !dbg !15233

; <label>:240:                                    ; preds = %239
  %241 = load i32, i32* %10, align 4, !dbg !15234
  %242 = add nsw i32 %241, 1, !dbg !15234
  store i32 %242, i32* %10, align 4, !dbg !15234
  br label %24, !dbg !15236, !llvm.loop !15237

; <label>:243:                                    ; preds = %24
  br label %244, !dbg !15239

; <label>:244:                                    ; preds = %243
  %245 = load i32, i32* %9, align 4, !dbg !15240
  %246 = add nsw i32 %245, 1, !dbg !15240
  store i32 %246, i32* %9, align 4, !dbg !15240
  br label %19, !dbg !15242, !llvm.loop !15243

; <label>:247:                                    ; preds = %19
  ret void, !dbg !15245
}

; Function Attrs: nounwind
define linkonce_odr void @_ZN3hls6WindowILi5ELi5EfEC2Ev(%"class.hls::Window"*) unnamed_addr #7 comdat align 2 !dbg !15246 !xidane.fname !15247 !xidane.function_declaration_type !14874 !xidane.function_declaration_filename !15248 {
  %2 = alloca %"class.hls::Window"*, align 8
  store %"class.hls::Window"* %0, %"class.hls::Window"** %2, align 8
  call void @llvm.dbg.declare(metadata %"class.hls::Window"** %2, metadata !15249, metadata !14900), !dbg !15251
  %3 = load %"class.hls::Window"*, %"class.hls::Window"** %2, align 8
  ret void, !dbg !15252
}

define linkonce_odr void @_ZN3hls6WindowILi5ELi5EfE17shift_pixels_leftEv(%"class.hls::Window"*) #0 comdat align 2 personality i8* bitcast (i32 (...)* @__gxx_personality_v0 to i8*) !dbg !15253 !xidane.fname !15254 !xidane.function_declaration_type !14874 !xidane.function_declaration_filename !15248 {
  %2 = alloca %"class.hls::Window"*, align 8
  %3 = alloca %class.ap_uint.5, align 4
  %4 = alloca %class.ap_uint.5, align 4
  %5 = alloca i8*
  %6 = alloca i32
  %7 = alloca %class.ap_uint.5, align 4
  %8 = alloca %class.ap_uint.5, align 4
  %9 = alloca %class.ap_private.7, align 8
  %10 = alloca %class.ap_private.6, align 4
  %11 = alloca %class.ap_private.6, align 4
  store %"class.hls::Window"* %0, %"class.hls::Window"** %2, align 8
  call void @llvm.dbg.declare(metadata %"class.hls::Window"** %2, metadata !15255, metadata !14900), !dbg !15256
  %12 = load %"class.hls::Window"*, %"class.hls::Window"** %2, align 8
  call void @llvm.dbg.declare(metadata %class.ap_uint.5* %3, metadata !15257, metadata !14900), !dbg !15341
  call void @_ZN7ap_uintILi32EEC2Ev(%class.ap_uint.5* %3), !dbg !15341
  call void @llvm.dbg.declare(metadata %class.ap_uint.5* %4, metadata !15342, metadata !14900), !dbg !15343
  invoke void @_ZN7ap_uintILi32EEC2Ev(%class.ap_uint.5* %4)
          to label %13 unwind label %56, !dbg !15343

; <label>:13:                                     ; preds = %1
  invoke void @_ZN7ap_uintILi32EEC2Ei(%class.ap_uint.5* %7, i32 0)
          to label %14 unwind label %60, !dbg !15344

; <label>:14:                                     ; preds = %13
  %15 = invoke dereferenceable(4) %class.ap_uint.5* @_ZN7ap_uintILi32EEaSERKS0_(%class.ap_uint.5* %3, %class.ap_uint.5* dereferenceable(4) %7)
          to label %16 unwind label %64, !dbg !15346

; <label>:16:                                     ; preds = %14
  call void @_ZN7ap_uintILi32EED2Ev(%class.ap_uint.5* %7) #3, !dbg !15348
  br label %17, !dbg !15348

; <label>:17:                                     ; preds = %79, %16
  %18 = bitcast %class.ap_uint.5* %3 to %class.ap_private.6*, !dbg !15350
  %19 = invoke i1 @_ZltILi32ELb0EEbRK10ap_privateIXT_EXT0_EXleT_Li64EEEi(%class.ap_private.6* dereferenceable(4) %18, i32 5)
          to label %20 unwind label %60, !dbg !15353

; <label>:20:                                     ; preds = %17
  br i1 %19, label %21, label %80, !dbg !15354

; <label>:21:                                     ; preds = %20
  invoke void @_ZN7ap_uintILi32EEC2Ei(%class.ap_uint.5* %8, i32 0)
          to label %22 unwind label %60, !dbg !15356

; <label>:22:                                     ; preds = %21
  %23 = invoke dereferenceable(4) %class.ap_uint.5* @_ZN7ap_uintILi32EEaSERKS0_(%class.ap_uint.5* %4, %class.ap_uint.5* dereferenceable(4) %8)
          to label %24 unwind label %68, !dbg !15359

; <label>:24:                                     ; preds = %22
  call void @_ZN7ap_uintILi32EED2Ev(%class.ap_uint.5* %8) #3, !dbg !15361
  br label %25, !dbg !15361

; <label>:25:                                     ; preds = %55, %24
  %26 = bitcast %class.ap_uint.5* %4 to %class.ap_private.6*, !dbg !15363
  %27 = invoke i1 @_ZltILi32ELb0EEbRK10ap_privateIXT_EXT0_EXleT_Li64EEEi(%class.ap_private.6* dereferenceable(4) %26, i32 4)
          to label %28 unwind label %60, !dbg !15366

; <label>:28:                                     ; preds = %25
  br i1 %27, label %29, label %76, !dbg !15367

; <label>:29:                                     ; preds = %28
  %30 = bitcast %class.ap_uint.5* %4 to %class.ap_private.6*, !dbg !15369
  invoke void @_ZplILi32ELb0EEN10ap_privateIXT_EXT0_EXleT_Li64EEE5RTypeIXLi32EEXLb1EEE4plusERKS1_i(%class.ap_private.7* sret %9, %class.ap_private.6* dereferenceable(4) %30, i32 1)
          to label %31 unwind label %60, !dbg !15371

; <label>:31:                                     ; preds = %29
  %32 = invoke i64 @_ZNK10ap_privateILi34ELb1ELb1EEcvlEv(%class.ap_private.7* %9)
          to label %33 unwind label %72, !dbg !15372

; <label>:33:                                     ; preds = %31
  %34 = bitcast %class.ap_uint.5* %3 to %class.ap_private.6*, !dbg !15374
  %35 = invoke i32 @_ZNK10ap_privateILi32ELb0ELb1EEcvjEv(%class.ap_private.6* %34)
          to label %36 unwind label %72, !dbg !15374

; <label>:36:                                     ; preds = %33
  %37 = zext i32 %35 to i64, !dbg !15376
  %38 = getelementptr inbounds %"class.hls::Window", %"class.hls::Window"* %12, i32 0, i32 0, !dbg !15378
  %39 = getelementptr inbounds [5 x [5 x float]], [5 x [5 x float]]* %38, i64 0, i64 %37, !dbg !15378
  %40 = getelementptr inbounds [5 x float], [5 x float]* %39, i64 0, i64 %32, !dbg !15378
  %41 = load float, float* %40, align 4, !dbg !15378
  %42 = bitcast %class.ap_uint.5* %4 to %class.ap_private.6*, !dbg !15379
  %43 = invoke i32 @_ZNK10ap_privateILi32ELb0ELb1EEcvjEv(%class.ap_private.6* %42)
          to label %44 unwind label %72, !dbg !15379

; <label>:44:                                     ; preds = %36
  %45 = zext i32 %43 to i64, !dbg !15380
  %46 = bitcast %class.ap_uint.5* %3 to %class.ap_private.6*, !dbg !15382
  %47 = invoke i32 @_ZNK10ap_privateILi32ELb0ELb1EEcvjEv(%class.ap_private.6* %46)
          to label %48 unwind label %72, !dbg !15382

; <label>:48:                                     ; preds = %44
  %49 = zext i32 %47 to i64, !dbg !15383
  %50 = getelementptr inbounds %"class.hls::Window", %"class.hls::Window"* %12, i32 0, i32 0, !dbg !15385
  %51 = getelementptr inbounds [5 x [5 x float]], [5 x [5 x float]]* %50, i64 0, i64 %49, !dbg !15385
  %52 = getelementptr inbounds [5 x float], [5 x float]* %51, i64 0, i64 %45, !dbg !15385
  store float %41, float* %52, align 4, !dbg !15386
  call void @_ZN10ap_privateILi34ELb1ELb1EED2Ev(%class.ap_private.7* %9) #3, !dbg !15385
  br label %53, !dbg !15387

; <label>:53:                                     ; preds = %48
  %54 = bitcast %class.ap_uint.5* %4 to %class.ap_private.6*, !dbg !15388
  invoke void @_ZN10ap_privateILi32ELb0ELb1EEppEi(%class.ap_private.6* sret %10, %class.ap_private.6* %54, i32 0)
          to label %55 unwind label %60, !dbg !15388

; <label>:55:                                     ; preds = %53
  call void @_ZN10ap_privateILi32ELb0ELb1EED2Ev(%class.ap_private.6* %10) #3, !dbg !15390
  br label %25, !dbg !15392, !llvm.loop !15393

; <label>:56:                                     ; preds = %1
  %57 = landingpad { i8*, i32 }
          cleanup, !dbg !15395
  %58 = extractvalue { i8*, i32 } %57, 0, !dbg !15395
  store i8* %58, i8** %5, align 8, !dbg !15395
  %59 = extractvalue { i8*, i32 } %57, 1, !dbg !15395
  store i32 %59, i32* %6, align 4, !dbg !15395
  br label %82, !dbg !15395

; <label>:60:                                     ; preds = %77, %53, %29, %25, %21, %17, %13
  %61 = landingpad { i8*, i32 }
          cleanup, !dbg !15396
  %62 = extractvalue { i8*, i32 } %61, 0, !dbg !15396
  store i8* %62, i8** %5, align 8, !dbg !15396
  %63 = extractvalue { i8*, i32 } %61, 1, !dbg !15396
  store i32 %63, i32* %6, align 4, !dbg !15396
  br label %81, !dbg !15396

; <label>:64:                                     ; preds = %14
  %65 = landingpad { i8*, i32 }
          cleanup, !dbg !15397
  %66 = extractvalue { i8*, i32 } %65, 0, !dbg !15397
  store i8* %66, i8** %5, align 8, !dbg !15397
  %67 = extractvalue { i8*, i32 } %65, 1, !dbg !15397
  store i32 %67, i32* %6, align 4, !dbg !15397
  call void @_ZN7ap_uintILi32EED2Ev(%class.ap_uint.5* %7) #3, !dbg !15398
  br label %81, !dbg !15398

; <label>:68:                                     ; preds = %22
  %69 = landingpad { i8*, i32 }
          cleanup, !dbg !15400
  %70 = extractvalue { i8*, i32 } %69, 0, !dbg !15400
  store i8* %70, i8** %5, align 8, !dbg !15400
  %71 = extractvalue { i8*, i32 } %69, 1, !dbg !15400
  store i32 %71, i32* %6, align 4, !dbg !15400
  call void @_ZN7ap_uintILi32EED2Ev(%class.ap_uint.5* %8) #3, !dbg !15402
  br label %81, !dbg !15402

; <label>:72:                                     ; preds = %44, %36, %33, %31
  %73 = landingpad { i8*, i32 }
          cleanup, !dbg !15404
  %74 = extractvalue { i8*, i32 } %73, 0, !dbg !15404
  store i8* %74, i8** %5, align 8, !dbg !15404
  %75 = extractvalue { i8*, i32 } %73, 1, !dbg !15404
  store i32 %75, i32* %6, align 4, !dbg !15404
  call void @_ZN10ap_privateILi34ELb1ELb1EED2Ev(%class.ap_private.7* %9) #3, !dbg !15405
  br label %81, !dbg !15405

; <label>:76:                                     ; preds = %28
  br label %77, !dbg !15407

; <label>:77:                                     ; preds = %76
  %78 = bitcast %class.ap_uint.5* %3 to %class.ap_private.6*, !dbg !15408
  invoke void @_ZN10ap_privateILi32ELb0ELb1EEppEi(%class.ap_private.6* sret %11, %class.ap_private.6* %78, i32 0)
          to label %79 unwind label %60, !dbg !15408

; <label>:79:                                     ; preds = %77
  call void @_ZN10ap_privateILi32ELb0ELb1EED2Ev(%class.ap_private.6* %11) #3, !dbg !15410
  br label %17, !dbg !15412, !llvm.loop !15413

; <label>:80:                                     ; preds = %20
  call void @_ZN7ap_uintILi32EED2Ev(%class.ap_uint.5* %4) #3, !dbg !15415
  call void @_ZN7ap_uintILi32EED2Ev(%class.ap_uint.5* %3) #3, !dbg !15417
  ret void, !dbg !15415

; <label>:81:                                     ; preds = %72, %68, %64, %60
  call void @_ZN7ap_uintILi32EED2Ev(%class.ap_uint.5* %4) #3, !dbg !15419
  br label %82, !dbg !15419

; <label>:82:                                     ; preds = %81, %56
  call void @_ZN7ap_uintILi32EED2Ev(%class.ap_uint.5* %3) #3, !dbg !15421
  br label %83, !dbg !15421

; <label>:83:                                     ; preds = %82
  %84 = load i8*, i8** %5, align 8, !dbg !15423
  %85 = load i32, i32* %6, align 4, !dbg !15423
  %86 = insertvalue { i8*, i32 } undef, i8* %84, 0, !dbg !15423
  %87 = insertvalue { i8*, i32 } %86, i32 %85, 1, !dbg !15423
  resume { i8*, i32 } %87, !dbg !15423
}

; Function Attrs: nounwind
define linkonce_odr void @_ZN3hls6WindowILi5ELi5EfE12insert_pixelEfii(%"class.hls::Window"*, float, i32, i32) #7 comdat align 2 !dbg !15425 !xidane.fname !15426 !xidane.function_declaration_type !15427 !xidane.function_declaration_filename !15248 {
  %5 = alloca %"class.hls::Window"*, align 8
  %6 = alloca float, align 4
  %7 = alloca i32, align 4
  %8 = alloca i32, align 4
  store %"class.hls::Window"* %0, %"class.hls::Window"** %5, align 8
  call void @llvm.dbg.declare(metadata %"class.hls::Window"** %5, metadata !15428, metadata !14900), !dbg !15429
  store float %1, float* %6, align 4
  call void @llvm.dbg.declare(metadata float* %6, metadata !15430, metadata !14900), !dbg !15431
  store i32 %2, i32* %7, align 4
  call void @llvm.dbg.declare(metadata i32* %7, metadata !15432, metadata !14900), !dbg !15433
  store i32 %3, i32* %8, align 4
  call void @llvm.dbg.declare(metadata i32* %8, metadata !15434, metadata !14900), !dbg !15435
  %9 = load %"class.hls::Window"*, %"class.hls::Window"** %5, align 8
  %10 = load i32, i32* %7, align 4, !dbg !15436
  %11 = icmp sge i32 %10, 0, !dbg !15436
  br i1 %11, label %12, label %21, !dbg !15436

; <label>:12:                                     ; preds = %4
  %13 = load i32, i32* %7, align 4, !dbg !15437
  %14 = icmp slt i32 %13, 5, !dbg !15437
  br i1 %14, label %15, label %21, !dbg !15437

; <label>:15:                                     ; preds = %12
  %16 = load i32, i32* %8, align 4, !dbg !15439
  %17 = icmp sge i32 %16, 0, !dbg !15439
  br i1 %17, label %18, label %21, !dbg !15439

; <label>:18:                                     ; preds = %15
  %19 = load i32, i32* %8, align 4, !dbg !15441
  %20 = icmp slt i32 %19, 5, !dbg !15441
  br label %21

; <label>:21:                                     ; preds = %18, %15, %12, %4
  %22 = phi i1 [ false, %15 ], [ false, %12 ], [ false, %4 ], [ %20, %18 ]
  br i1 %22, label %23, label %24, !dbg !15443

; <label>:23:                                     ; preds = %21
  br label %26, !dbg !15445

; <label>:24:                                     ; preds = %21
  call void @__assert_fail(i8* getelementptr inbounds ([49 x i8], [49 x i8]* @.str.3, i32 0, i32 0), i8* getelementptr inbounds ([62 x i8], [62 x i8]* @.str.4, i32 0, i32 0), i32 266, i8* getelementptr inbounds ([89 x i8], [89 x i8]* @__PRETTY_FUNCTION__._ZN3hls6WindowILi5ELi5EfE12insert_pixelEfii, i32 0, i32 0)) #11, !dbg !15447
  unreachable, !dbg !15447
                                                  ; No predecessors!
  br label %26, !dbg !15449

; <label>:26:                                     ; preds = %25, %23
  %27 = load float, float* %6, align 4, !dbg !15451
  %28 = load i32, i32* %8, align 4, !dbg !15452
  %29 = sext i32 %28 to i64, !dbg !15453
  %30 = load i32, i32* %7, align 4, !dbg !15454
  %31 = sext i32 %30 to i64, !dbg !15453
  %32 = getelementptr inbounds %"class.hls::Window", %"class.hls::Window"* %9, i32 0, i32 0, !dbg !15453
  %33 = getelementptr inbounds [5 x [5 x float]], [5 x [5 x float]]* %32, i64 0, i64 %31, !dbg !15453
  %34 = getelementptr inbounds [5 x float], [5 x float]* %33, i64 0, i64 %29, !dbg !15453
  store float %27, float* %34, align 4, !dbg !15455
  ret void, !dbg !15456
}

; Function Attrs: nounwind
define linkonce_odr dereferenceable(4) float* @_ZN3hls6WindowILi5ELi5EfE6getvalEii(%"class.hls::Window"*, i32, i32) #7 comdat align 2 !dbg !15457 !xidane.fname !15458 !xidane.function_declaration_type !15459 !xidane.function_declaration_filename !15248 {
  %4 = alloca %"class.hls::Window"*, align 8
  %5 = alloca i32, align 4
  %6 = alloca i32, align 4
  store %"class.hls::Window"* %0, %"class.hls::Window"** %4, align 8
  call void @llvm.dbg.declare(metadata %"class.hls::Window"** %4, metadata !15460, metadata !14900), !dbg !15461
  store i32 %1, i32* %5, align 4
  call void @llvm.dbg.declare(metadata i32* %5, metadata !15462, metadata !14900), !dbg !15463
  store i32 %2, i32* %6, align 4
  call void @llvm.dbg.declare(metadata i32* %6, metadata !15464, metadata !14900), !dbg !15465
  %7 = load %"class.hls::Window"*, %"class.hls::Window"** %4, align 8
  %8 = load i32, i32* %5, align 4, !dbg !15466
  %9 = icmp sge i32 %8, 0, !dbg !15466
  br i1 %9, label %10, label %19, !dbg !15466

; <label>:10:                                     ; preds = %3
  %11 = load i32, i32* %5, align 4, !dbg !15467
  %12 = icmp slt i32 %11, 5, !dbg !15467
  br i1 %12, label %13, label %19, !dbg !15467

; <label>:13:                                     ; preds = %10
  %14 = load i32, i32* %6, align 4, !dbg !15469
  %15 = icmp sge i32 %14, 0, !dbg !15469
  br i1 %15, label %16, label %19, !dbg !15469

; <label>:16:                                     ; preds = %13
  %17 = load i32, i32* %6, align 4, !dbg !15471
  %18 = icmp slt i32 %17, 5, !dbg !15471
  br label %19

; <label>:19:                                     ; preds = %16, %13, %10, %3
  %20 = phi i1 [ false, %13 ], [ false, %10 ], [ false, %3 ], [ %18, %16 ]
  br i1 %20, label %21, label %22, !dbg !15473

; <label>:21:                                     ; preds = %19
  br label %24, !dbg !15475

; <label>:22:                                     ; preds = %19
  call void @__assert_fail(i8* getelementptr inbounds ([49 x i8], [49 x i8]* @.str.3, i32 0, i32 0), i8* getelementptr inbounds ([62 x i8], [62 x i8]* @.str.4, i32 0, i32 0), i32 492, i8* getelementptr inbounds ([78 x i8], [78 x i8]* @__PRETTY_FUNCTION__._ZN3hls6WindowILi5ELi5EfE6getvalEii, i32 0, i32 0)) #11, !dbg !15477
  unreachable, !dbg !15477
                                                  ; No predecessors!
  br label %24, !dbg !15479

; <label>:24:                                     ; preds = %23, %21
  %25 = load i32, i32* %6, align 4, !dbg !15481
  %26 = sext i32 %25 to i64, !dbg !15482
  %27 = load i32, i32* %5, align 4, !dbg !15483
  %28 = sext i32 %27 to i64, !dbg !15482
  %29 = getelementptr inbounds %"class.hls::Window", %"class.hls::Window"* %7, i32 0, i32 0, !dbg !15482
  %30 = getelementptr inbounds [5 x [5 x float]], [5 x [5 x float]]* %29, i64 0, i64 %28, !dbg !15482
  %31 = getelementptr inbounds [5 x float], [5 x float]* %30, i64 0, i64 %26, !dbg !15482
  ret float* %31, !dbg !15484
}

; Function Attrs: nounwind
define void @_Z15gradient_z_calcPA1024_fS0_S0_S0_S0_S0_([1024 x float]*, [1024 x float]*, [1024 x float]*, [1024 x float]*, [1024 x float]*, [1024 x float]*) #7 !dbg !13271 !xidane.fname !15485 !xidane.function_declaration_type !15486 !xidane.function_declaration_filename !14923 {
  %7 = alloca [1024 x float]*, align 8
  %8 = alloca [1024 x float]*, align 8
  %9 = alloca [1024 x float]*, align 8
  %10 = alloca [1024 x float]*, align 8
  %11 = alloca [1024 x float]*, align 8
  %12 = alloca [1024 x float]*, align 8
  %13 = alloca i32, align 4
  %14 = alloca i32, align 4
  store [1024 x float]* %0, [1024 x float]** %7, align 8
  call void @llvm.dbg.declare(metadata [1024 x float]** %7, metadata !15487, metadata !14900), !dbg !15488
  store [1024 x float]* %1, [1024 x float]** %8, align 8
  call void @llvm.dbg.declare(metadata [1024 x float]** %8, metadata !15489, metadata !14900), !dbg !15490
  store [1024 x float]* %2, [1024 x float]** %9, align 8
  call void @llvm.dbg.declare(metadata [1024 x float]** %9, metadata !15491, metadata !14900), !dbg !15492
  store [1024 x float]* %3, [1024 x float]** %10, align 8
  call void @llvm.dbg.declare(metadata [1024 x float]** %10, metadata !15493, metadata !14900), !dbg !15494
  store [1024 x float]* %4, [1024 x float]** %11, align 8
  call void @llvm.dbg.declare(metadata [1024 x float]** %11, metadata !15495, metadata !14900), !dbg !15496
  store [1024 x float]* %5, [1024 x float]** %12, align 8
  call void @llvm.dbg.declare(metadata [1024 x float]** %12, metadata !15497, metadata !14900), !dbg !15498
  br label %15, !dbg !15499

; <label>:15:                                     ; preds = %6
  call void @llvm.dbg.declare(metadata i32* %13, metadata !15500, metadata !14900), !dbg !15502
  store i32 0, i32* %13, align 4, !dbg !15502
  br label %16, !dbg !15503

; <label>:16:                                     ; preds = %96, %15
  %17 = load i32, i32* %13, align 4, !dbg !15504
  %18 = icmp slt i32 %17, 436, !dbg !15507
  br i1 %18, label %19, label %99, !dbg !15508

; <label>:19:                                     ; preds = %16
  br label %20, !dbg !15509

; <label>:20:                                     ; preds = %19
  call void @llvm.dbg.declare(metadata i32* %14, metadata !15510, metadata !14900), !dbg !15513
  store i32 0, i32* %14, align 4, !dbg !15513
  br label %21, !dbg !15514

; <label>:21:                                     ; preds = %92, %20
  %22 = load i32, i32* %14, align 4, !dbg !15515
  %23 = icmp slt i32 %22, 1024, !dbg !15518
  br i1 %23, label %24, label %95, !dbg !15519

; <label>:24:                                     ; preds = %21
  %25 = load i32, i32* %14, align 4, !dbg !15520
  %26 = sext i32 %25 to i64, !dbg !15522
  %27 = load i32, i32* %13, align 4, !dbg !15523
  %28 = sext i32 %27 to i64, !dbg !15522
  %29 = load [1024 x float]*, [1024 x float]** %7, align 8, !dbg !15522
  %30 = getelementptr inbounds [1024 x float], [1024 x float]* %29, i64 %28, !dbg !15522
  %31 = getelementptr inbounds [1024 x float], [1024 x float]* %30, i64 0, i64 %26, !dbg !15522
  %32 = load float, float* %31, align 4, !dbg !15522
  %33 = load i32, i32* getelementptr inbounds ([5 x i32], [5 x i32]* @_ZZ15gradient_z_calcPA1024_fS0_S0_S0_S0_S0_E12GRAD_WEIGHTS, i64 0, i64 0), align 4, !dbg !15524
  %34 = sitofp i32 %33 to float, !dbg !15524
  %35 = fmul float %32, %34, !dbg !15525
  %36 = load i32, i32* %14, align 4, !dbg !15526
  %37 = sext i32 %36 to i64, !dbg !15527
  %38 = load i32, i32* %13, align 4, !dbg !15528
  %39 = sext i32 %38 to i64, !dbg !15527
  %40 = load [1024 x float]*, [1024 x float]** %8, align 8, !dbg !15527
  %41 = getelementptr inbounds [1024 x float], [1024 x float]* %40, i64 %39, !dbg !15527
  %42 = getelementptr inbounds [1024 x float], [1024 x float]* %41, i64 0, i64 %37, !dbg !15527
  %43 = load float, float* %42, align 4, !dbg !15527
  %44 = load i32, i32* getelementptr inbounds ([5 x i32], [5 x i32]* @_ZZ15gradient_z_calcPA1024_fS0_S0_S0_S0_S0_E12GRAD_WEIGHTS, i64 0, i64 1), align 4, !dbg !15529
  %45 = sitofp i32 %44 to float, !dbg !15529
  %46 = fmul float %43, %45, !dbg !15530
  %47 = fadd float %35, %46, !dbg !15531
  %48 = load i32, i32* %14, align 4, !dbg !15532
  %49 = sext i32 %48 to i64, !dbg !15533
  %50 = load i32, i32* %13, align 4, !dbg !15534
  %51 = sext i32 %50 to i64, !dbg !15533
  %52 = load [1024 x float]*, [1024 x float]** %9, align 8, !dbg !15533
  %53 = getelementptr inbounds [1024 x float], [1024 x float]* %52, i64 %51, !dbg !15533
  %54 = getelementptr inbounds [1024 x float], [1024 x float]* %53, i64 0, i64 %49, !dbg !15533
  %55 = load float, float* %54, align 4, !dbg !15533
  %56 = load i32, i32* getelementptr inbounds ([5 x i32], [5 x i32]* @_ZZ15gradient_z_calcPA1024_fS0_S0_S0_S0_S0_E12GRAD_WEIGHTS, i64 0, i64 2), align 4, !dbg !15535
  %57 = sitofp i32 %56 to float, !dbg !15535
  %58 = fmul float %55, %57, !dbg !15536
  %59 = fadd float %47, %58, !dbg !15537
  %60 = load i32, i32* %14, align 4, !dbg !15538
  %61 = sext i32 %60 to i64, !dbg !15539
  %62 = load i32, i32* %13, align 4, !dbg !15540
  %63 = sext i32 %62 to i64, !dbg !15539
  %64 = load [1024 x float]*, [1024 x float]** %10, align 8, !dbg !15539
  %65 = getelementptr inbounds [1024 x float], [1024 x float]* %64, i64 %63, !dbg !15539
  %66 = getelementptr inbounds [1024 x float], [1024 x float]* %65, i64 0, i64 %61, !dbg !15539
  %67 = load float, float* %66, align 4, !dbg !15539
  %68 = load i32, i32* getelementptr inbounds ([5 x i32], [5 x i32]* @_ZZ15gradient_z_calcPA1024_fS0_S0_S0_S0_S0_E12GRAD_WEIGHTS, i64 0, i64 3), align 4, !dbg !15541
  %69 = sitofp i32 %68 to float, !dbg !15541
  %70 = fmul float %67, %69, !dbg !15542
  %71 = fadd float %59, %70, !dbg !15543
  %72 = load i32, i32* %14, align 4, !dbg !15544
  %73 = sext i32 %72 to i64, !dbg !15545
  %74 = load i32, i32* %13, align 4, !dbg !15546
  %75 = sext i32 %74 to i64, !dbg !15545
  %76 = load [1024 x float]*, [1024 x float]** %11, align 8, !dbg !15545
  %77 = getelementptr inbounds [1024 x float], [1024 x float]* %76, i64 %75, !dbg !15545
  %78 = getelementptr inbounds [1024 x float], [1024 x float]* %77, i64 0, i64 %73, !dbg !15545
  %79 = load float, float* %78, align 4, !dbg !15545
  %80 = load i32, i32* getelementptr inbounds ([5 x i32], [5 x i32]* @_ZZ15gradient_z_calcPA1024_fS0_S0_S0_S0_S0_E12GRAD_WEIGHTS, i64 0, i64 4), align 4, !dbg !15547
  %81 = sitofp i32 %80 to float, !dbg !15547
  %82 = fmul float %79, %81, !dbg !15548
  %83 = fadd float %71, %82, !dbg !15549
  %84 = fdiv float %83, 1.200000e+01, !dbg !15550
  %85 = load i32, i32* %14, align 4, !dbg !15551
  %86 = sext i32 %85 to i64, !dbg !15552
  %87 = load i32, i32* %13, align 4, !dbg !15553
  %88 = sext i32 %87 to i64, !dbg !15552
  %89 = load [1024 x float]*, [1024 x float]** %12, align 8, !dbg !15552
  %90 = getelementptr inbounds [1024 x float], [1024 x float]* %89, i64 %88, !dbg !15552
  %91 = getelementptr inbounds [1024 x float], [1024 x float]* %90, i64 0, i64 %86, !dbg !15552
  store float %84, float* %91, align 4, !dbg !15554
  br label %92, !dbg !15555

; <label>:92:                                     ; preds = %24
  %93 = load i32, i32* %14, align 4, !dbg !15556
  %94 = add nsw i32 %93, 1, !dbg !15556
  store i32 %94, i32* %14, align 4, !dbg !15556
  br label %21, !dbg !15558, !llvm.loop !15559

; <label>:95:                                     ; preds = %21
  br label %96, !dbg !15561

; <label>:96:                                     ; preds = %95
  %97 = load i32, i32* %13, align 4, !dbg !15562
  %98 = add nsw i32 %97, 1, !dbg !15562
  store i32 %98, i32* %13, align 4, !dbg !15562
  br label %16, !dbg !15564, !llvm.loop !15565

; <label>:99:                                     ; preds = %16
  ret void, !dbg !15567
}

define void @_Z17gradient_weight_yPA1024_fS0_S0_PA1024_10gradient_t([1024 x float]*, [1024 x float]*, [1024 x float]*, [1024 x %struct.gradient_t]*) #0 !dbg !13275 !xidane.fname !15568 !xidane.function_declaration_type !15569 !xidane.function_declaration_filename !14923 {
  %5 = alloca [1024 x float]*, align 8
  %6 = alloca [1024 x float]*, align 8
  %7 = alloca [1024 x float]*, align 8
  %8 = alloca [1024 x %struct.gradient_t]*, align 8
  %9 = alloca %"class.hls::LineBuffer", align 4
  %10 = alloca i32, align 4
  %11 = alloca i32, align 4
  %12 = alloca %struct.gradient_t, align 4
  %13 = alloca %struct.gradient_t, align 4
  %14 = alloca %struct.gradient_t, align 4
  %15 = alloca %struct.gradient_t, align 4
  %16 = alloca %struct.gradient_t, align 4
  %17 = alloca i32, align 4
  store [1024 x float]* %0, [1024 x float]** %5, align 8
  call void @llvm.dbg.declare(metadata [1024 x float]** %5, metadata !15570, metadata !14900), !dbg !15571
  store [1024 x float]* %1, [1024 x float]** %6, align 8
  call void @llvm.dbg.declare(metadata [1024 x float]** %6, metadata !15572, metadata !14900), !dbg !15573
  store [1024 x float]* %2, [1024 x float]** %7, align 8
  call void @llvm.dbg.declare(metadata [1024 x float]** %7, metadata !15574, metadata !14900), !dbg !15575
  store [1024 x %struct.gradient_t]* %3, [1024 x %struct.gradient_t]** %8, align 8
  call void @llvm.dbg.declare(metadata [1024 x %struct.gradient_t]** %8, metadata !15576, metadata !14900), !dbg !15577
  call void @llvm.dbg.declare(metadata %"class.hls::LineBuffer"* %9, metadata !15578, metadata !14900), !dbg !15614
  call void @_ZN3hls10LineBufferILi7ELi1024E10gradient_tLi0EEC2Ev(%"class.hls::LineBuffer"* %9), !dbg !15614
  br label %18, !dbg !15615

; <label>:18:                                     ; preds = %4
  call void @llvm.dbg.declare(metadata i32* %10, metadata !15616, metadata !14900), !dbg !15618
  store i32 0, i32* %10, align 4, !dbg !15618
  br label %19, !dbg !15619

; <label>:19:                                     ; preds = %162, %18
  %20 = load i32, i32* %10, align 4, !dbg !15620
  %21 = icmp slt i32 %20, 439, !dbg !15623
  br i1 %21, label %22, label %165, !dbg !15624

; <label>:22:                                     ; preds = %19
  br label %23, !dbg !15625

; <label>:23:                                     ; preds = %22
  call void @llvm.dbg.declare(metadata i32* %11, metadata !15626, metadata !14900), !dbg !15629
  store i32 0, i32* %11, align 4, !dbg !15629
  br label %24, !dbg !15630

; <label>:24:                                     ; preds = %158, %23
  %25 = load i32, i32* %11, align 4, !dbg !15631
  %26 = icmp slt i32 %25, 1024, !dbg !15634
  br i1 %26, label %27, label %161, !dbg !15635

; <label>:27:                                     ; preds = %24
  %28 = load i32, i32* %10, align 4, !dbg !15636
  %29 = icmp slt i32 %28, 436, !dbg !15639
  br i1 %29, label %30, label %64, !dbg !15640

; <label>:30:                                     ; preds = %27
  %31 = load i32, i32* %11, align 4, !dbg !15641
  call void @_ZN3hls10LineBufferILi7ELi1024E10gradient_tLi0EE15shift_pixels_upEi(%"class.hls::LineBuffer"* %9, i32 %31), !dbg !15643
  call void @llvm.dbg.declare(metadata %struct.gradient_t* %12, metadata !15644, metadata !14900), !dbg !15645
  %32 = load i32, i32* %11, align 4, !dbg !15646
  %33 = sext i32 %32 to i64, !dbg !15647
  %34 = load i32, i32* %10, align 4, !dbg !15648
  %35 = sext i32 %34 to i64, !dbg !15647
  %36 = load [1024 x float]*, [1024 x float]** %5, align 8, !dbg !15647
  %37 = getelementptr inbounds [1024 x float], [1024 x float]* %36, i64 %35, !dbg !15647
  %38 = getelementptr inbounds [1024 x float], [1024 x float]* %37, i64 0, i64 %33, !dbg !15647
  %39 = load float, float* %38, align 4, !dbg !15647
  %40 = getelementptr inbounds %struct.gradient_t, %struct.gradient_t* %12, i32 0, i32 0, !dbg !15649
  store float %39, float* %40, align 4, !dbg !15650
  %41 = load i32, i32* %11, align 4, !dbg !15651
  %42 = sext i32 %41 to i64, !dbg !15652
  %43 = load i32, i32* %10, align 4, !dbg !15653
  %44 = sext i32 %43 to i64, !dbg !15652
  %45 = load [1024 x float]*, [1024 x float]** %6, align 8, !dbg !15652
  %46 = getelementptr inbounds [1024 x float], [1024 x float]* %45, i64 %44, !dbg !15652
  %47 = getelementptr inbounds [1024 x float], [1024 x float]* %46, i64 0, i64 %42, !dbg !15652
  %48 = load float, float* %47, align 4, !dbg !15652
  %49 = getelementptr inbounds %struct.gradient_t, %struct.gradient_t* %12, i32 0, i32 1, !dbg !15654
  store float %48, float* %49, align 4, !dbg !15655
  %50 = load i32, i32* %11, align 4, !dbg !15656
  %51 = sext i32 %50 to i64, !dbg !15657
  %52 = load i32, i32* %10, align 4, !dbg !15658
  %53 = sext i32 %52 to i64, !dbg !15657
  %54 = load [1024 x float]*, [1024 x float]** %7, align 8, !dbg !15657
  %55 = getelementptr inbounds [1024 x float], [1024 x float]* %54, i64 %53, !dbg !15657
  %56 = getelementptr inbounds [1024 x float], [1024 x float]* %55, i64 0, i64 %51, !dbg !15657
  %57 = load float, float* %56, align 4, !dbg !15657
  %58 = getelementptr inbounds %struct.gradient_t, %struct.gradient_t* %12, i32 0, i32 2, !dbg !15659
  store float %57, float* %58, align 4, !dbg !15660
  %59 = bitcast %struct.gradient_t* %13 to i8*, !dbg !15661
  %60 = bitcast %struct.gradient_t* %12 to i8*, !dbg !15661
  call void @llvm.memcpy.p0i8.p0i8.i64(i8* %59, i8* %60, i64 12, i32 4, i1 false), !dbg !15661
  %61 = load i32, i32* %11, align 4, !dbg !15662
  %62 = bitcast %struct.gradient_t* %13 to [3 x float]*, !dbg !15663
  %63 = load [3 x float], [3 x float]* %62, align 4, !dbg !15663
  call void @_ZN3hls10LineBufferILi7ELi1024E10gradient_tLi0EE17insert_bottom_rowES1_i(%"class.hls::LineBuffer"* %9, [3 x float] %63, i32 %61), !dbg !15664
  br label %74, !dbg !15666

; <label>:64:                                     ; preds = %27
  %65 = load i32, i32* %11, align 4, !dbg !15667
  call void @_ZN3hls10LineBufferILi7ELi1024E10gradient_tLi0EE15shift_pixels_upEi(%"class.hls::LineBuffer"* %9, i32 %65), !dbg !15669
  call void @llvm.dbg.declare(metadata %struct.gradient_t* %14, metadata !15670, metadata !14900), !dbg !15671
  %66 = getelementptr inbounds %struct.gradient_t, %struct.gradient_t* %14, i32 0, i32 0, !dbg !15672
  store float 0.000000e+00, float* %66, align 4, !dbg !15673
  %67 = getelementptr inbounds %struct.gradient_t, %struct.gradient_t* %14, i32 0, i32 1, !dbg !15674
  store float 0.000000e+00, float* %67, align 4, !dbg !15675
  %68 = getelementptr inbounds %struct.gradient_t, %struct.gradient_t* %14, i32 0, i32 2, !dbg !15676
  store float 0.000000e+00, float* %68, align 4, !dbg !15677
  %69 = bitcast %struct.gradient_t* %15 to i8*, !dbg !15678
  %70 = bitcast %struct.gradient_t* %14 to i8*, !dbg !15678
  call void @llvm.memcpy.p0i8.p0i8.i64(i8* %69, i8* %70, i64 12, i32 4, i1 false), !dbg !15678
  %71 = load i32, i32* %11, align 4, !dbg !15679
  %72 = bitcast %struct.gradient_t* %15 to [3 x float]*, !dbg !15680
  %73 = load [3 x float], [3 x float]* %72, align 4, !dbg !15680
  call void @_ZN3hls10LineBufferILi7ELi1024E10gradient_tLi0EE17insert_bottom_rowES1_i(%"class.hls::LineBuffer"* %9, [3 x float] %73, i32 %71), !dbg !15681
  br label %74

; <label>:74:                                     ; preds = %64, %30
  call void @llvm.dbg.declare(metadata %struct.gradient_t* %16, metadata !15683, metadata !14900), !dbg !15684
  %75 = getelementptr inbounds %struct.gradient_t, %struct.gradient_t* %16, i32 0, i32 0, !dbg !15685
  store float 0.000000e+00, float* %75, align 4, !dbg !15686
  %76 = getelementptr inbounds %struct.gradient_t, %struct.gradient_t* %16, i32 0, i32 1, !dbg !15687
  store float 0.000000e+00, float* %76, align 4, !dbg !15688
  %77 = getelementptr inbounds %struct.gradient_t, %struct.gradient_t* %16, i32 0, i32 2, !dbg !15689
  store float 0.000000e+00, float* %77, align 4, !dbg !15690
  %78 = load i32, i32* %10, align 4, !dbg !15691
  %79 = icmp sge i32 %78, 6, !dbg !15693
  br i1 %79, label %80, label %142, !dbg !15694

; <label>:80:                                     ; preds = %74
  %81 = load i32, i32* %10, align 4, !dbg !15695
  %82 = icmp slt i32 %81, 436, !dbg !15697
  br i1 %82, label %83, label %142, !dbg !15698

; <label>:83:                                     ; preds = %80
  br label %84, !dbg !15699

; <label>:84:                                     ; preds = %83
  call void @llvm.dbg.declare(metadata i32* %17, metadata !15700, metadata !14900), !dbg !15703
  store i32 0, i32* %17, align 4, !dbg !15703
  br label %85, !dbg !15704

; <label>:85:                                     ; preds = %128, %84
  %86 = load i32, i32* %17, align 4, !dbg !15705
  %87 = icmp slt i32 %86, 7, !dbg !15708
  br i1 %87, label %88, label %131, !dbg !15709

; <label>:88:                                     ; preds = %85
  %89 = load i32, i32* %17, align 4, !dbg !15710
  %90 = load i32, i32* %11, align 4, !dbg !15712
  %91 = call dereferenceable(12) %struct.gradient_t* @_ZN3hls10LineBufferILi7ELi1024E10gradient_tLi0EE6getvalEii(%"class.hls::LineBuffer"* %9, i32 %89, i32 %90), !dbg !15713
  %92 = getelementptr inbounds %struct.gradient_t, %struct.gradient_t* %91, i32 0, i32 0, !dbg !15714
  %93 = load float, float* %92, align 4, !dbg !15714
  %94 = load i32, i32* %17, align 4, !dbg !15715
  %95 = sext i32 %94 to i64, !dbg !15716
  %96 = getelementptr inbounds [7 x float], [7 x float]* @_ZZ17gradient_weight_yPA1024_fS0_S0_PA1024_10gradient_tE11GRAD_FILTER, i64 0, i64 %95, !dbg !15716
  %97 = load float, float* %96, align 4, !dbg !15716
  %98 = fmul float %93, %97, !dbg !15717
  %99 = getelementptr inbounds %struct.gradient_t, %struct.gradient_t* %16, i32 0, i32 0, !dbg !15718
  %100 = load float, float* %99, align 4, !dbg !15719
  %101 = fadd float %100, %98, !dbg !15719
  store float %101, float* %99, align 4, !dbg !15719
  %102 = load i32, i32* %17, align 4, !dbg !15720
  %103 = load i32, i32* %11, align 4, !dbg !15721
  %104 = call dereferenceable(12) %struct.gradient_t* @_ZN3hls10LineBufferILi7ELi1024E10gradient_tLi0EE6getvalEii(%"class.hls::LineBuffer"* %9, i32 %102, i32 %103), !dbg !15722
  %105 = getelementptr inbounds %struct.gradient_t, %struct.gradient_t* %104, i32 0, i32 1, !dbg !15723
  %106 = load float, float* %105, align 4, !dbg !15723
  %107 = load i32, i32* %17, align 4, !dbg !15724
  %108 = sext i32 %107 to i64, !dbg !15725
  %109 = getelementptr inbounds [7 x float], [7 x float]* @_ZZ17gradient_weight_yPA1024_fS0_S0_PA1024_10gradient_tE11GRAD_FILTER, i64 0, i64 %108, !dbg !15725
  %110 = load float, float* %109, align 4, !dbg !15725
  %111 = fmul float %106, %110, !dbg !15726
  %112 = getelementptr inbounds %struct.gradient_t, %struct.gradient_t* %16, i32 0, i32 1, !dbg !15727
  %113 = load float, float* %112, align 4, !dbg !15728
  %114 = fadd float %113, %111, !dbg !15728
  store float %114, float* %112, align 4, !dbg !15728
  %115 = load i32, i32* %17, align 4, !dbg !15729
  %116 = load i32, i32* %11, align 4, !dbg !15730
  %117 = call dereferenceable(12) %struct.gradient_t* @_ZN3hls10LineBufferILi7ELi1024E10gradient_tLi0EE6getvalEii(%"class.hls::LineBuffer"* %9, i32 %115, i32 %116), !dbg !15731
  %118 = getelementptr inbounds %struct.gradient_t, %struct.gradient_t* %117, i32 0, i32 2, !dbg !15732
  %119 = load float, float* %118, align 4, !dbg !15732
  %120 = load i32, i32* %17, align 4, !dbg !15733
  %121 = sext i32 %120 to i64, !dbg !15734
  %122 = getelementptr inbounds [7 x float], [7 x float]* @_ZZ17gradient_weight_yPA1024_fS0_S0_PA1024_10gradient_tE11GRAD_FILTER, i64 0, i64 %121, !dbg !15734
  %123 = load float, float* %122, align 4, !dbg !15734
  %124 = fmul float %119, %123, !dbg !15735
  %125 = getelementptr inbounds %struct.gradient_t, %struct.gradient_t* %16, i32 0, i32 2, !dbg !15736
  %126 = load float, float* %125, align 4, !dbg !15737
  %127 = fadd float %126, %124, !dbg !15737
  store float %127, float* %125, align 4, !dbg !15737
  br label %128, !dbg !15738

; <label>:128:                                    ; preds = %88
  %129 = load i32, i32* %17, align 4, !dbg !15739
  %130 = add nsw i32 %129, 1, !dbg !15739
  store i32 %130, i32* %17, align 4, !dbg !15739
  br label %85, !dbg !15741, !llvm.loop !15742

; <label>:131:                                    ; preds = %85
  %132 = load i32, i32* %11, align 4, !dbg !15744
  %133 = sext i32 %132 to i64, !dbg !15745
  %134 = load i32, i32* %10, align 4, !dbg !15746
  %135 = sub nsw i32 %134, 3, !dbg !15747
  %136 = sext i32 %135 to i64, !dbg !15745
  %137 = load [1024 x %struct.gradient_t]*, [1024 x %struct.gradient_t]** %8, align 8, !dbg !15745
  %138 = getelementptr inbounds [1024 x %struct.gradient_t], [1024 x %struct.gradient_t]* %137, i64 %136, !dbg !15745
  %139 = getelementptr inbounds [1024 x %struct.gradient_t], [1024 x %struct.gradient_t]* %138, i64 0, i64 %133, !dbg !15745
  %140 = bitcast %struct.gradient_t* %139 to i8*, !dbg !15748
  %141 = bitcast %struct.gradient_t* %16 to i8*, !dbg !15748
  call void @llvm.memcpy.p0i8.p0i8.i64(i8* %140, i8* %141, i64 12, i32 4, i1 false), !dbg !15748
  br label %157, !dbg !15749

; <label>:142:                                    ; preds = %80, %74
  %143 = load i32, i32* %10, align 4, !dbg !15750
  %144 = icmp sge i32 %143, 2, !dbg !15752
  br i1 %144, label %145, label %156, !dbg !15753

; <label>:145:                                    ; preds = %142
  %146 = load i32, i32* %11, align 4, !dbg !15754
  %147 = sext i32 %146 to i64, !dbg !15756
  %148 = load i32, i32* %10, align 4, !dbg !15757
  %149 = sub nsw i32 %148, 3, !dbg !15758
  %150 = sext i32 %149 to i64, !dbg !15756
  %151 = load [1024 x %struct.gradient_t]*, [1024 x %struct.gradient_t]** %8, align 8, !dbg !15756
  %152 = getelementptr inbounds [1024 x %struct.gradient_t], [1024 x %struct.gradient_t]* %151, i64 %150, !dbg !15756
  %153 = getelementptr inbounds [1024 x %struct.gradient_t], [1024 x %struct.gradient_t]* %152, i64 0, i64 %147, !dbg !15756
  %154 = bitcast %struct.gradient_t* %153 to i8*, !dbg !15759
  %155 = bitcast %struct.gradient_t* %16 to i8*, !dbg !15759
  call void @llvm.memcpy.p0i8.p0i8.i64(i8* %154, i8* %155, i64 12, i32 4, i1 false), !dbg !15759
  br label %156, !dbg !15760

; <label>:156:                                    ; preds = %145, %142
  br label %157

; <label>:157:                                    ; preds = %156, %131
  br label %158, !dbg !15761

; <label>:158:                                    ; preds = %157
  %159 = load i32, i32* %11, align 4, !dbg !15762
  %160 = add nsw i32 %159, 1, !dbg !15762
  store i32 %160, i32* %11, align 4, !dbg !15762
  br label %24, !dbg !15764, !llvm.loop !15765

; <label>:161:                                    ; preds = %24
  br label %162, !dbg !15767

; <label>:162:                                    ; preds = %161
  %163 = load i32, i32* %10, align 4, !dbg !15768
  %164 = add nsw i32 %163, 1, !dbg !15768
  store i32 %164, i32* %10, align 4, !dbg !15768
  br label %19, !dbg !15770, !llvm.loop !15771

; <label>:165:                                    ; preds = %19
  ret void, !dbg !15773
}

; Function Attrs: nounwind
define linkonce_odr void @_ZN3hls10LineBufferILi7ELi1024E10gradient_tLi0EEC2Ev(%"class.hls::LineBuffer"*) unnamed_addr #7 comdat align 2 !dbg !15774 !xidane.fname !15775 !xidane.function_declaration_type !14874 !xidane.function_declaration_filename !15248 {
  %2 = alloca %"class.hls::LineBuffer"*, align 8
  store %"class.hls::LineBuffer"* %0, %"class.hls::LineBuffer"** %2, align 8
  call void @llvm.dbg.declare(metadata %"class.hls::LineBuffer"** %2, metadata !15776, metadata !14900), !dbg !15778
  %3 = load %"class.hls::LineBuffer"*, %"class.hls::LineBuffer"** %2, align 8
  %4 = getelementptr inbounds %"class.hls::LineBuffer", %"class.hls::LineBuffer"* %3, i32 0, i32 0, !dbg !15779
  ret void, !dbg !15780
}

define linkonce_odr void @_ZN3hls10LineBufferILi7ELi1024E10gradient_tLi0EE15shift_pixels_upEi(%"class.hls::LineBuffer"*, i32) #0 comdat align 2 personality i8* bitcast (i32 (...)* @__gxx_personality_v0 to i8*) !dbg !15781 !xidane.fname !15782 !xidane.function_declaration_type !15783 !xidane.function_declaration_filename !15248 {
  %3 = alloca %"class.hls::LineBuffer"*, align 8
  %4 = alloca i32, align 4
  %5 = alloca %class.ap_uint.5, align 4
  %6 = alloca %class.ap_uint.5, align 4
  %7 = alloca i8*
  %8 = alloca i32
  %9 = alloca %class.ap_private.7, align 8
  %10 = alloca %class.ap_private.6, align 4
  store %"class.hls::LineBuffer"* %0, %"class.hls::LineBuffer"** %3, align 8
  call void @llvm.dbg.declare(metadata %"class.hls::LineBuffer"** %3, metadata !15784, metadata !14900), !dbg !15785
  store i32 %1, i32* %4, align 4
  call void @llvm.dbg.declare(metadata i32* %4, metadata !15786, metadata !14900), !dbg !15787
  %11 = load %"class.hls::LineBuffer"*, %"class.hls::LineBuffer"** %3, align 8
  %12 = load i32, i32* %4, align 4, !dbg !15788
  %13 = icmp sge i32 %12, 0, !dbg !15788
  br i1 %13, label %14, label %17, !dbg !15788

; <label>:14:                                     ; preds = %2
  %15 = load i32, i32* %4, align 4, !dbg !15789
  %16 = icmp slt i32 %15, 1024, !dbg !15789
  br label %17

; <label>:17:                                     ; preds = %14, %2
  %18 = phi i1 [ false, %2 ], [ %16, %14 ]
  br i1 %18, label %19, label %20, !dbg !15791

; <label>:19:                                     ; preds = %17
  br label %22, !dbg !15793

; <label>:20:                                     ; preds = %17
  call void @__assert_fail(i8* getelementptr inbounds ([23 x i8], [23 x i8]* @.str.5, i32 0, i32 0), i8* getelementptr inbounds ([62 x i8], [62 x i8]* @.str.4, i32 0, i32 0), i32 718, i8* getelementptr inbounds ([120 x i8], [120 x i8]* @__PRETTY_FUNCTION__._ZN3hls10LineBufferILi7ELi1024E10gradient_tLi0EE15shift_pixels_upEi, i32 0, i32 0)) #11, !dbg !15795
  unreachable, !dbg !15795
                                                  ; No predecessors!
  br label %22, !dbg !15797

; <label>:22:                                     ; preds = %21, %19
  call void @llvm.dbg.declare(metadata %class.ap_uint.5* %5, metadata !15799, metadata !14900), !dbg !15800
  call void @_ZN7ap_uintILi32EEC2Ev(%class.ap_uint.5* %5), !dbg !15800
  invoke void @_ZN7ap_uintILi32EEC2Ei(%class.ap_uint.5* %6, i32 0)
          to label %23 unwind label %54, !dbg !15801

; <label>:23:                                     ; preds = %22
  %24 = invoke dereferenceable(4) %class.ap_uint.5* @_ZN7ap_uintILi32EEaSERKS0_(%class.ap_uint.5* %5, %class.ap_uint.5* dereferenceable(4) %6)
          to label %25 unwind label %58, !dbg !15803

; <label>:25:                                     ; preds = %23
  call void @_ZN7ap_uintILi32EED2Ev(%class.ap_uint.5* %6) #3, !dbg !15805
  br label %26, !dbg !15805

; <label>:26:                                     ; preds = %53, %25
  %27 = bitcast %class.ap_uint.5* %5 to %class.ap_private.6*, !dbg !15807
  %28 = invoke i1 @_ZltILi32ELb0EEbRK10ap_privateIXT_EXT0_EXleT_Li64EEEi(%class.ap_private.6* dereferenceable(4) %27, i32 6)
          to label %29 unwind label %54, !dbg !15810

; <label>:29:                                     ; preds = %26
  br i1 %28, label %30, label %66, !dbg !15811

; <label>:30:                                     ; preds = %29
  %31 = load i32, i32* %4, align 4, !dbg !15813
  %32 = sext i32 %31 to i64, !dbg !15815
  %33 = bitcast %class.ap_uint.5* %5 to %class.ap_private.6*, !dbg !15816
  %34 = invoke i32 @_ZNK10ap_privateILi32ELb0ELb1EEcvjEv(%class.ap_private.6* %33)
          to label %35 unwind label %54, !dbg !15816

; <label>:35:                                     ; preds = %30
  %36 = zext i32 %34 to i64, !dbg !15817
  %37 = getelementptr inbounds %"class.hls::LineBuffer", %"class.hls::LineBuffer"* %11, i32 0, i32 0, !dbg !15819
  %38 = getelementptr inbounds [7 x [1024 x %struct.gradient_t]], [7 x [1024 x %struct.gradient_t]]* %37, i64 0, i64 %36, !dbg !15819
  %39 = getelementptr inbounds [1024 x %struct.gradient_t], [1024 x %struct.gradient_t]* %38, i64 0, i64 %32, !dbg !15819
  %40 = load i32, i32* %4, align 4, !dbg !15820
  %41 = sext i32 %40 to i64, !dbg !15821
  %42 = bitcast %class.ap_uint.5* %5 to %class.ap_private.6*, !dbg !15822
  invoke void @_ZplILi32ELb0EEN10ap_privateIXT_EXT0_EXleT_Li64EEE5RTypeIXLi32EEXLb1EEE4plusERKS1_i(%class.ap_private.7* sret %9, %class.ap_private.6* dereferenceable(4) %42, i32 1)
          to label %43 unwind label %54, !dbg !15823

; <label>:43:                                     ; preds = %35
  %44 = invoke i64 @_ZNK10ap_privateILi34ELb1ELb1EEcvlEv(%class.ap_private.7* %9)
          to label %45 unwind label %62, !dbg !15824

; <label>:45:                                     ; preds = %43
  %46 = getelementptr inbounds %"class.hls::LineBuffer", %"class.hls::LineBuffer"* %11, i32 0, i32 0, !dbg !15826
  %47 = getelementptr inbounds [7 x [1024 x %struct.gradient_t]], [7 x [1024 x %struct.gradient_t]]* %46, i64 0, i64 %44, !dbg !15826
  %48 = getelementptr inbounds [1024 x %struct.gradient_t], [1024 x %struct.gradient_t]* %47, i64 0, i64 %41, !dbg !15826
  %49 = bitcast %struct.gradient_t* %39 to i8*, !dbg !15828
  %50 = bitcast %struct.gradient_t* %48 to i8*, !dbg !15828
  call void @llvm.memcpy.p0i8.p0i8.i64(i8* %49, i8* %50, i64 12, i32 4, i1 false), !dbg !15828
  call void @_ZN10ap_privateILi34ELb1ELb1EED2Ev(%class.ap_private.7* %9) #3, !dbg !15829
  br label %51, !dbg !15831

; <label>:51:                                     ; preds = %45
  %52 = bitcast %class.ap_uint.5* %5 to %class.ap_private.6*, !dbg !15832
  invoke void @_ZN10ap_privateILi32ELb0ELb1EEppEi(%class.ap_private.6* sret %10, %class.ap_private.6* %52, i32 0)
          to label %53 unwind label %54, !dbg !15832

; <label>:53:                                     ; preds = %51
  call void @_ZN10ap_privateILi32ELb0ELb1EED2Ev(%class.ap_private.6* %10) #3, !dbg !15834
  br label %26, !dbg !15836, !llvm.loop !15837

; <label>:54:                                     ; preds = %51, %35, %30, %26, %22
  %55 = landingpad { i8*, i32 }
          cleanup, !dbg !15839
  %56 = extractvalue { i8*, i32 } %55, 0, !dbg !15839
  store i8* %56, i8** %7, align 8, !dbg !15839
  %57 = extractvalue { i8*, i32 } %55, 1, !dbg !15839
  store i32 %57, i32* %8, align 4, !dbg !15839
  br label %67, !dbg !15839

; <label>:58:                                     ; preds = %23
  %59 = landingpad { i8*, i32 }
          cleanup, !dbg !15840
  %60 = extractvalue { i8*, i32 } %59, 0, !dbg !15840
  store i8* %60, i8** %7, align 8, !dbg !15840
  %61 = extractvalue { i8*, i32 } %59, 1, !dbg !15840
  store i32 %61, i32* %8, align 4, !dbg !15840
  call void @_ZN7ap_uintILi32EED2Ev(%class.ap_uint.5* %6) #3, !dbg !15841
  br label %67, !dbg !15841

; <label>:62:                                     ; preds = %43
  %63 = landingpad { i8*, i32 }
          cleanup, !dbg !15843
  %64 = extractvalue { i8*, i32 } %63, 0, !dbg !15843
  store i8* %64, i8** %7, align 8, !dbg !15843
  %65 = extractvalue { i8*, i32 } %63, 1, !dbg !15843
  store i32 %65, i32* %8, align 4, !dbg !15843
  call void @_ZN10ap_privateILi34ELb1ELb1EED2Ev(%class.ap_private.7* %9) #3, !dbg !15844
  br label %67, !dbg !15844

; <label>:66:                                     ; preds = %29
  call void @_ZN7ap_uintILi32EED2Ev(%class.ap_uint.5* %5) #3, !dbg !15846
  ret void, !dbg !15846

; <label>:67:                                     ; preds = %62, %58, %54
  call void @_ZN7ap_uintILi32EED2Ev(%class.ap_uint.5* %5) #3, !dbg !15847
  br label %68, !dbg !15847

; <label>:68:                                     ; preds = %67
  %69 = load i8*, i8** %7, align 8, !dbg !15848
  %70 = load i32, i32* %8, align 4, !dbg !15848
  %71 = insertvalue { i8*, i32 } undef, i8* %69, 0, !dbg !15848
  %72 = insertvalue { i8*, i32 } %71, i32 %70, 1, !dbg !15848
  resume { i8*, i32 } %72, !dbg !15848
}

; Function Attrs: nounwind
define linkonce_odr void @_ZN3hls10LineBufferILi7ELi1024E10gradient_tLi0EE17insert_bottom_rowES1_i(%"class.hls::LineBuffer"*, [3 x float], i32) #7 comdat align 2 !dbg !15849 !xidane.fname !15850 !xidane.function_declaration_type !15851 !xidane.function_declaration_filename !15248 {
  %4 = alloca %struct.gradient_t, align 4
  %5 = alloca %"class.hls::LineBuffer"*, align 8
  %6 = alloca i32, align 4
  %7 = bitcast %struct.gradient_t* %4 to [3 x float]*
  store [3 x float] %1, [3 x float]* %7, align 4
  store %"class.hls::LineBuffer"* %0, %"class.hls::LineBuffer"** %5, align 8
  call void @llvm.dbg.declare(metadata %"class.hls::LineBuffer"** %5, metadata !15852, metadata !14900), !dbg !15853
  call void @llvm.dbg.declare(metadata %struct.gradient_t* %4, metadata !15854, metadata !14900), !dbg !15855
  store i32 %2, i32* %6, align 4
  call void @llvm.dbg.declare(metadata i32* %6, metadata !15856, metadata !14900), !dbg !15857
  %8 = load %"class.hls::LineBuffer"*, %"class.hls::LineBuffer"** %5, align 8
  %9 = load i32, i32* %6, align 4, !dbg !15858
  %10 = icmp sge i32 %9, 0, !dbg !15858
  br i1 %10, label %11, label %14, !dbg !15858

; <label>:11:                                     ; preds = %3
  %12 = load i32, i32* %6, align 4, !dbg !15859
  %13 = icmp slt i32 %12, 1024, !dbg !15859
  br label %14

; <label>:14:                                     ; preds = %11, %3
  %15 = phi i1 [ false, %3 ], [ %13, %11 ]
  br i1 %15, label %16, label %17, !dbg !15861

; <label>:16:                                     ; preds = %14
  br label %19, !dbg !15863

; <label>:17:                                     ; preds = %14
  call void @__assert_fail(i8* getelementptr inbounds ([23 x i8], [23 x i8]* @.str.5, i32 0, i32 0), i8* getelementptr inbounds ([62 x i8], [62 x i8]* @.str.4, i32 0, i32 0), i32 757, i8* getelementptr inbounds ([125 x i8], [125 x i8]* @__PRETTY_FUNCTION__._ZN3hls10LineBufferILi7ELi1024E10gradient_tLi0EE17insert_bottom_rowES1_i, i32 0, i32 0)) #11, !dbg !15865
  unreachable, !dbg !15865
                                                  ; No predecessors!
  br label %19, !dbg !15867

; <label>:19:                                     ; preds = %18, %16
  %20 = load i32, i32* %6, align 4, !dbg !15869
  %21 = sext i32 %20 to i64, !dbg !15870
  %22 = getelementptr inbounds %"class.hls::LineBuffer", %"class.hls::LineBuffer"* %8, i32 0, i32 0, !dbg !15870
  %23 = getelementptr inbounds [7 x [1024 x %struct.gradient_t]], [7 x [1024 x %struct.gradient_t]]* %22, i64 0, i64 6, !dbg !15870
  %24 = getelementptr inbounds [1024 x %struct.gradient_t], [1024 x %struct.gradient_t]* %23, i64 0, i64 %21, !dbg !15870
  %25 = bitcast %struct.gradient_t* %24 to i8*, !dbg !15871
  %26 = bitcast %struct.gradient_t* %4 to i8*, !dbg !15871
  call void @llvm.memcpy.p0i8.p0i8.i64(i8* %25, i8* %26, i64 12, i32 4, i1 false), !dbg !15871
  ret void, !dbg !15872
}

; Function Attrs: argmemonly nounwind
declare void @llvm.memcpy.p0i8.p0i8.i64(i8* nocapture writeonly, i8* nocapture readonly, i64, i32, i1) #8

; Function Attrs: nounwind
define linkonce_odr dereferenceable(12) %struct.gradient_t* @_ZN3hls10LineBufferILi7ELi1024E10gradient_tLi0EE6getvalEii(%"class.hls::LineBuffer"*, i32, i32) #7 comdat align 2 !dbg !15873 !xidane.fname !15458 !xidane.function_declaration_type !15874 !xidane.function_declaration_filename !15248 {
  %4 = alloca %"class.hls::LineBuffer"*, align 8
  %5 = alloca i32, align 4
  %6 = alloca i32, align 4
  store %"class.hls::LineBuffer"* %0, %"class.hls::LineBuffer"** %4, align 8
  call void @llvm.dbg.declare(metadata %"class.hls::LineBuffer"** %4, metadata !15875, metadata !14900), !dbg !15876
  store i32 %1, i32* %5, align 4
  call void @llvm.dbg.declare(metadata i32* %5, metadata !15877, metadata !14900), !dbg !15878
  store i32 %2, i32* %6, align 4
  call void @llvm.dbg.declare(metadata i32* %6, metadata !15879, metadata !14900), !dbg !15880
  %7 = load %"class.hls::LineBuffer"*, %"class.hls::LineBuffer"** %4, align 8
  %8 = load i32, i32* %5, align 4, !dbg !15881
  %9 = icmp sge i32 %8, 0, !dbg !15881
  br i1 %9, label %10, label %19, !dbg !15881

; <label>:10:                                     ; preds = %3
  %11 = load i32, i32* %5, align 4, !dbg !15882
  %12 = icmp slt i32 %11, 7, !dbg !15882
  br i1 %12, label %13, label %19, !dbg !15882

; <label>:13:                                     ; preds = %10
  %14 = load i32, i32* %6, align 4, !dbg !15884
  %15 = icmp sge i32 %14, 0, !dbg !15884
  br i1 %15, label %16, label %19, !dbg !15884

; <label>:16:                                     ; preds = %13
  %17 = load i32, i32* %6, align 4, !dbg !15886
  %18 = icmp slt i32 %17, 1024, !dbg !15886
  br label %19

; <label>:19:                                     ; preds = %16, %13, %10, %3
  %20 = phi i1 [ false, %13 ], [ false, %10 ], [ false, %3 ], [ %18, %16 ]
  br i1 %20, label %21, label %22, !dbg !15888

; <label>:21:                                     ; preds = %19
  br label %24, !dbg !15890

; <label>:22:                                     ; preds = %19
  call void @__assert_fail(i8* getelementptr inbounds ([49 x i8], [49 x i8]* @.str.3, i32 0, i32 0), i8* getelementptr inbounds ([62 x i8], [62 x i8]* @.str.4, i32 0, i32 0), i32 834, i8* getelementptr inbounds ([114 x i8], [114 x i8]* @__PRETTY_FUNCTION__._ZN3hls10LineBufferILi7ELi1024E10gradient_tLi0EE6getvalEii, i32 0, i32 0)) #11, !dbg !15892
  unreachable, !dbg !15892
                                                  ; No predecessors!
  br label %24, !dbg !15894

; <label>:24:                                     ; preds = %23, %21
  %25 = load i32, i32* %6, align 4, !dbg !15896
  %26 = sext i32 %25 to i64, !dbg !15897
  %27 = load i32, i32* %5, align 4, !dbg !15898
  %28 = sext i32 %27 to i64, !dbg !15897
  %29 = getelementptr inbounds %"class.hls::LineBuffer", %"class.hls::LineBuffer"* %7, i32 0, i32 0, !dbg !15897
  %30 = getelementptr inbounds [7 x [1024 x %struct.gradient_t]], [7 x [1024 x %struct.gradient_t]]* %29, i64 0, i64 %28, !dbg !15897
  %31 = getelementptr inbounds [1024 x %struct.gradient_t], [1024 x %struct.gradient_t]* %30, i64 0, i64 %26, !dbg !15897
  ret %struct.gradient_t* %31, !dbg !15899
}

define void @_Z17gradient_weight_xPA1024_10gradient_tS1_([1024 x %struct.gradient_t]*, [1024 x %struct.gradient_t]*) #0 !dbg !13291 !xidane.fname !15900 !xidane.function_declaration_type !15901 !xidane.function_declaration_filename !14923 {
  %3 = alloca [1024 x %struct.gradient_t]*, align 8
  %4 = alloca [1024 x %struct.gradient_t]*, align 8
  %5 = alloca %"class.hls::Window.0", align 4
  %6 = alloca i32, align 4
  %7 = alloca i32, align 4
  %8 = alloca %struct.gradient_t, align 4
  %9 = alloca %struct.gradient_t, align 4
  %10 = alloca %struct.gradient_t, align 4
  %11 = alloca i32, align 4
  store [1024 x %struct.gradient_t]* %0, [1024 x %struct.gradient_t]** %3, align 8
  call void @llvm.dbg.declare(metadata [1024 x %struct.gradient_t]** %3, metadata !15902, metadata !14900), !dbg !15903
  store [1024 x %struct.gradient_t]* %1, [1024 x %struct.gradient_t]** %4, align 8
  call void @llvm.dbg.declare(metadata [1024 x %struct.gradient_t]** %4, metadata !15904, metadata !14900), !dbg !15905
  call void @llvm.dbg.declare(metadata %"class.hls::Window.0"* %5, metadata !15906, metadata !14900), !dbg !15950
  call void @_ZN3hls6WindowILi1ELi7E10gradient_tEC2Ev(%"class.hls::Window.0"* %5), !dbg !15950
  br label %12, !dbg !15951

; <label>:12:                                     ; preds = %2
  call void @llvm.dbg.declare(metadata i32* %6, metadata !15952, metadata !14900), !dbg !15954
  store i32 0, i32* %6, align 4, !dbg !15954
  br label %13, !dbg !15955

; <label>:13:                                     ; preds = %127, %12
  %14 = load i32, i32* %6, align 4, !dbg !15956
  %15 = icmp slt i32 %14, 436, !dbg !15959
  br i1 %15, label %16, label %130, !dbg !15960

; <label>:16:                                     ; preds = %13
  br label %17, !dbg !15961

; <label>:17:                                     ; preds = %16
  call void @llvm.dbg.declare(metadata i32* %7, metadata !15962, metadata !14900), !dbg !15965
  store i32 0, i32* %7, align 4, !dbg !15965
  br label %18, !dbg !15966

; <label>:18:                                     ; preds = %123, %17
  %19 = load i32, i32* %7, align 4, !dbg !15967
  %20 = icmp slt i32 %19, 1027, !dbg !15970
  br i1 %20, label %21, label %126, !dbg !15971

; <label>:21:                                     ; preds = %18
  call void @_ZN3hls6WindowILi1ELi7E10gradient_tE17shift_pixels_leftEv(%"class.hls::Window.0"* %5), !dbg !15972
  call void @llvm.dbg.declare(metadata %struct.gradient_t* %8, metadata !15974, metadata !14900), !dbg !15975
  %22 = load i32, i32* %7, align 4, !dbg !15976
  %23 = icmp slt i32 %22, 1024, !dbg !15978
  br i1 %23, label %24, label %34, !dbg !15979

; <label>:24:                                     ; preds = %21
  %25 = load i32, i32* %7, align 4, !dbg !15980
  %26 = sext i32 %25 to i64, !dbg !15982
  %27 = load i32, i32* %6, align 4, !dbg !15983
  %28 = sext i32 %27 to i64, !dbg !15982
  %29 = load [1024 x %struct.gradient_t]*, [1024 x %struct.gradient_t]** %3, align 8, !dbg !15982
  %30 = getelementptr inbounds [1024 x %struct.gradient_t], [1024 x %struct.gradient_t]* %29, i64 %28, !dbg !15982
  %31 = getelementptr inbounds [1024 x %struct.gradient_t], [1024 x %struct.gradient_t]* %30, i64 0, i64 %26, !dbg !15982
  %32 = bitcast %struct.gradient_t* %8 to i8*, !dbg !15984
  %33 = bitcast %struct.gradient_t* %31 to i8*, !dbg !15984
  call void @llvm.memcpy.p0i8.p0i8.i64(i8* %32, i8* %33, i64 12, i32 4, i1 false), !dbg !15984
  br label %38, !dbg !15985

; <label>:34:                                     ; preds = %21
  %35 = getelementptr inbounds %struct.gradient_t, %struct.gradient_t* %8, i32 0, i32 0, !dbg !15986
  store float 0.000000e+00, float* %35, align 4, !dbg !15988
  %36 = getelementptr inbounds %struct.gradient_t, %struct.gradient_t* %8, i32 0, i32 1, !dbg !15989
  store float 0.000000e+00, float* %36, align 4, !dbg !15990
  %37 = getelementptr inbounds %struct.gradient_t, %struct.gradient_t* %8, i32 0, i32 2, !dbg !15991
  store float 0.000000e+00, float* %37, align 4, !dbg !15992
  br label %38

; <label>:38:                                     ; preds = %34, %24
  %39 = bitcast %struct.gradient_t* %9 to i8*, !dbg !15993
  %40 = bitcast %struct.gradient_t* %8 to i8*, !dbg !15993
  call void @llvm.memcpy.p0i8.p0i8.i64(i8* %39, i8* %40, i64 12, i32 4, i1 false), !dbg !15993
  %41 = bitcast %struct.gradient_t* %9 to [3 x float]*, !dbg !15994
  %42 = load [3 x float], [3 x float]* %41, align 4, !dbg !15994
  call void @_ZN3hls6WindowILi1ELi7E10gradient_tE12insert_pixelES1_ii(%"class.hls::Window.0"* %5, [3 x float] %42, i32 0, i32 6), !dbg !15995
  call void @llvm.dbg.declare(metadata %struct.gradient_t* %10, metadata !15997, metadata !14900), !dbg !15998
  %43 = getelementptr inbounds %struct.gradient_t, %struct.gradient_t* %10, i32 0, i32 0, !dbg !15999
  store float 0.000000e+00, float* %43, align 4, !dbg !16000
  %44 = getelementptr inbounds %struct.gradient_t, %struct.gradient_t* %10, i32 0, i32 1, !dbg !16001
  store float 0.000000e+00, float* %44, align 4, !dbg !16002
  %45 = getelementptr inbounds %struct.gradient_t, %struct.gradient_t* %10, i32 0, i32 2, !dbg !16003
  store float 0.000000e+00, float* %45, align 4, !dbg !16004
  %46 = load i32, i32* %7, align 4, !dbg !16005
  %47 = icmp sge i32 %46, 6, !dbg !16007
  br i1 %47, label %48, label %107, !dbg !16008

; <label>:48:                                     ; preds = %38
  %49 = load i32, i32* %7, align 4, !dbg !16009
  %50 = icmp slt i32 %49, 1024, !dbg !16011
  br i1 %50, label %51, label %107, !dbg !16012

; <label>:51:                                     ; preds = %48
  br label %52, !dbg !16013

; <label>:52:                                     ; preds = %51
  call void @llvm.dbg.declare(metadata i32* %11, metadata !16014, metadata !14900), !dbg !16017
  store i32 0, i32* %11, align 4, !dbg !16017
  br label %53, !dbg !16018

; <label>:53:                                     ; preds = %93, %52
  %54 = load i32, i32* %11, align 4, !dbg !16019
  %55 = icmp slt i32 %54, 7, !dbg !16022
  br i1 %55, label %56, label %96, !dbg !16023

; <label>:56:                                     ; preds = %53
  %57 = load i32, i32* %11, align 4, !dbg !16024
  %58 = call dereferenceable(12) %struct.gradient_t* @_ZN3hls6WindowILi1ELi7E10gradient_tE6getvalEii(%"class.hls::Window.0"* %5, i32 0, i32 %57), !dbg !16026
  %59 = getelementptr inbounds %struct.gradient_t, %struct.gradient_t* %58, i32 0, i32 0, !dbg !16027
  %60 = load float, float* %59, align 4, !dbg !16027
  %61 = load i32, i32* %11, align 4, !dbg !16028
  %62 = sext i32 %61 to i64, !dbg !16029
  %63 = getelementptr inbounds [7 x float], [7 x float]* @_ZZ17gradient_weight_xPA1024_10gradient_tS1_E11GRAD_FILTER, i64 0, i64 %62, !dbg !16029
  %64 = load float, float* %63, align 4, !dbg !16029
  %65 = fmul float %60, %64, !dbg !16030
  %66 = getelementptr inbounds %struct.gradient_t, %struct.gradient_t* %10, i32 0, i32 0, !dbg !16031
  %67 = load float, float* %66, align 4, !dbg !16032
  %68 = fadd float %67, %65, !dbg !16032
  store float %68, float* %66, align 4, !dbg !16032
  %69 = load i32, i32* %11, align 4, !dbg !16033
  %70 = call dereferenceable(12) %struct.gradient_t* @_ZN3hls6WindowILi1ELi7E10gradient_tE6getvalEii(%"class.hls::Window.0"* %5, i32 0, i32 %69), !dbg !16034
  %71 = getelementptr inbounds %struct.gradient_t, %struct.gradient_t* %70, i32 0, i32 1, !dbg !16035
  %72 = load float, float* %71, align 4, !dbg !16035
  %73 = load i32, i32* %11, align 4, !dbg !16036
  %74 = sext i32 %73 to i64, !dbg !16037
  %75 = getelementptr inbounds [7 x float], [7 x float]* @_ZZ17gradient_weight_xPA1024_10gradient_tS1_E11GRAD_FILTER, i64 0, i64 %74, !dbg !16037
  %76 = load float, float* %75, align 4, !dbg !16037
  %77 = fmul float %72, %76, !dbg !16038
  %78 = getelementptr inbounds %struct.gradient_t, %struct.gradient_t* %10, i32 0, i32 1, !dbg !16039
  %79 = load float, float* %78, align 4, !dbg !16040
  %80 = fadd float %79, %77, !dbg !16040
  store float %80, float* %78, align 4, !dbg !16040
  %81 = load i32, i32* %11, align 4, !dbg !16041
  %82 = call dereferenceable(12) %struct.gradient_t* @_ZN3hls6WindowILi1ELi7E10gradient_tE6getvalEii(%"class.hls::Window.0"* %5, i32 0, i32 %81), !dbg !16042
  %83 = getelementptr inbounds %struct.gradient_t, %struct.gradient_t* %82, i32 0, i32 2, !dbg !16043
  %84 = load float, float* %83, align 4, !dbg !16043
  %85 = load i32, i32* %11, align 4, !dbg !16044
  %86 = sext i32 %85 to i64, !dbg !16045
  %87 = getelementptr inbounds [7 x float], [7 x float]* @_ZZ17gradient_weight_xPA1024_10gradient_tS1_E11GRAD_FILTER, i64 0, i64 %86, !dbg !16045
  %88 = load float, float* %87, align 4, !dbg !16045
  %89 = fmul float %84, %88, !dbg !16046
  %90 = getelementptr inbounds %struct.gradient_t, %struct.gradient_t* %10, i32 0, i32 2, !dbg !16047
  %91 = load float, float* %90, align 4, !dbg !16048
  %92 = fadd float %91, %89, !dbg !16048
  store float %92, float* %90, align 4, !dbg !16048
  br label %93, !dbg !16049

; <label>:93:                                     ; preds = %56
  %94 = load i32, i32* %11, align 4, !dbg !16050
  %95 = add nsw i32 %94, 1, !dbg !16050
  store i32 %95, i32* %11, align 4, !dbg !16050
  br label %53, !dbg !16052, !llvm.loop !16053

; <label>:96:                                     ; preds = %53
  %97 = load i32, i32* %7, align 4, !dbg !16055
  %98 = sub nsw i32 %97, 3, !dbg !16056
  %99 = sext i32 %98 to i64, !dbg !16057
  %100 = load i32, i32* %6, align 4, !dbg !16058
  %101 = sext i32 %100 to i64, !dbg !16057
  %102 = load [1024 x %struct.gradient_t]*, [1024 x %struct.gradient_t]** %4, align 8, !dbg !16057
  %103 = getelementptr inbounds [1024 x %struct.gradient_t], [1024 x %struct.gradient_t]* %102, i64 %101, !dbg !16057
  %104 = getelementptr inbounds [1024 x %struct.gradient_t], [1024 x %struct.gradient_t]* %103, i64 0, i64 %99, !dbg !16057
  %105 = bitcast %struct.gradient_t* %104 to i8*, !dbg !16059
  %106 = bitcast %struct.gradient_t* %10 to i8*, !dbg !16059
  call void @llvm.memcpy.p0i8.p0i8.i64(i8* %105, i8* %106, i64 12, i32 4, i1 false), !dbg !16059
  br label %122, !dbg !16060

; <label>:107:                                    ; preds = %48, %38
  %108 = load i32, i32* %7, align 4, !dbg !16061
  %109 = icmp sge i32 %108, 3, !dbg !16063
  br i1 %109, label %110, label %121, !dbg !16064

; <label>:110:                                    ; preds = %107
  %111 = load i32, i32* %7, align 4, !dbg !16065
  %112 = sub nsw i32 %111, 3, !dbg !16067
  %113 = sext i32 %112 to i64, !dbg !16068
  %114 = load i32, i32* %6, align 4, !dbg !16069
  %115 = sext i32 %114 to i64, !dbg !16068
  %116 = load [1024 x %struct.gradient_t]*, [1024 x %struct.gradient_t]** %4, align 8, !dbg !16068
  %117 = getelementptr inbounds [1024 x %struct.gradient_t], [1024 x %struct.gradient_t]* %116, i64 %115, !dbg !16068
  %118 = getelementptr inbounds [1024 x %struct.gradient_t], [1024 x %struct.gradient_t]* %117, i64 0, i64 %113, !dbg !16068
  %119 = bitcast %struct.gradient_t* %118 to i8*, !dbg !16070
  %120 = bitcast %struct.gradient_t* %10 to i8*, !dbg !16070
  call void @llvm.memcpy.p0i8.p0i8.i64(i8* %119, i8* %120, i64 12, i32 4, i1 false), !dbg !16070
  br label %121, !dbg !16071

; <label>:121:                                    ; preds = %110, %107
  br label %122

; <label>:122:                                    ; preds = %121, %96
  br label %123, !dbg !16072

; <label>:123:                                    ; preds = %122
  %124 = load i32, i32* %7, align 4, !dbg !16073
  %125 = add nsw i32 %124, 1, !dbg !16073
  store i32 %125, i32* %7, align 4, !dbg !16073
  br label %18, !dbg !16075, !llvm.loop !16076

; <label>:126:                                    ; preds = %18
  br label %127, !dbg !16078

; <label>:127:                                    ; preds = %126
  %128 = load i32, i32* %6, align 4, !dbg !16079
  %129 = add nsw i32 %128, 1, !dbg !16079
  store i32 %129, i32* %6, align 4, !dbg !16079
  br label %13, !dbg !16081, !llvm.loop !16082

; <label>:130:                                    ; preds = %13
  ret void, !dbg !16084
}

; Function Attrs: nounwind
define linkonce_odr void @_ZN3hls6WindowILi1ELi7E10gradient_tEC2Ev(%"class.hls::Window.0"*) unnamed_addr #7 comdat align 2 !dbg !16085 !xidane.fname !15247 !xidane.function_declaration_type !14874 !xidane.function_declaration_filename !15248 {
  %2 = alloca %"class.hls::Window.0"*, align 8
  store %"class.hls::Window.0"* %0, %"class.hls::Window.0"** %2, align 8
  call void @llvm.dbg.declare(metadata %"class.hls::Window.0"** %2, metadata !16086, metadata !14900), !dbg !16088
  %3 = load %"class.hls::Window.0"*, %"class.hls::Window.0"** %2, align 8
  %4 = getelementptr inbounds %"class.hls::Window.0", %"class.hls::Window.0"* %3, i32 0, i32 0, !dbg !16089
  ret void, !dbg !16090
}

define linkonce_odr void @_ZN3hls6WindowILi1ELi7E10gradient_tE17shift_pixels_leftEv(%"class.hls::Window.0"*) #0 comdat align 2 personality i8* bitcast (i32 (...)* @__gxx_personality_v0 to i8*) !dbg !16091 !xidane.fname !15254 !xidane.function_declaration_type !14874 !xidane.function_declaration_filename !15248 {
  %2 = alloca %"class.hls::Window.0"*, align 8
  %3 = alloca %class.ap_uint.5, align 4
  %4 = alloca %class.ap_uint.5, align 4
  %5 = alloca i8*
  %6 = alloca i32
  %7 = alloca %class.ap_uint.5, align 4
  %8 = alloca %class.ap_uint.5, align 4
  %9 = alloca %class.ap_private.7, align 8
  %10 = alloca %class.ap_private.6, align 4
  %11 = alloca %class.ap_private.6, align 4
  store %"class.hls::Window.0"* %0, %"class.hls::Window.0"** %2, align 8
  call void @llvm.dbg.declare(metadata %"class.hls::Window.0"** %2, metadata !16092, metadata !14900), !dbg !16093
  %12 = load %"class.hls::Window.0"*, %"class.hls::Window.0"** %2, align 8
  call void @llvm.dbg.declare(metadata %class.ap_uint.5* %3, metadata !16094, metadata !14900), !dbg !16095
  call void @_ZN7ap_uintILi32EEC2Ev(%class.ap_uint.5* %3), !dbg !16095
  call void @llvm.dbg.declare(metadata %class.ap_uint.5* %4, metadata !16096, metadata !14900), !dbg !16097
  invoke void @_ZN7ap_uintILi32EEC2Ev(%class.ap_uint.5* %4)
          to label %13 unwind label %57, !dbg !16097

; <label>:13:                                     ; preds = %1
  invoke void @_ZN7ap_uintILi32EEC2Ei(%class.ap_uint.5* %7, i32 0)
          to label %14 unwind label %61, !dbg !16098

; <label>:14:                                     ; preds = %13
  %15 = invoke dereferenceable(4) %class.ap_uint.5* @_ZN7ap_uintILi32EEaSERKS0_(%class.ap_uint.5* %3, %class.ap_uint.5* dereferenceable(4) %7)
          to label %16 unwind label %65, !dbg !16100

; <label>:16:                                     ; preds = %14
  call void @_ZN7ap_uintILi32EED2Ev(%class.ap_uint.5* %7) #3, !dbg !16102
  br label %17, !dbg !16102

; <label>:17:                                     ; preds = %80, %16
  %18 = bitcast %class.ap_uint.5* %3 to %class.ap_private.6*, !dbg !16104
  %19 = invoke i1 @_ZltILi32ELb0EEbRK10ap_privateIXT_EXT0_EXleT_Li64EEEi(%class.ap_private.6* dereferenceable(4) %18, i32 1)
          to label %20 unwind label %61, !dbg !16107

; <label>:20:                                     ; preds = %17
  br i1 %19, label %21, label %81, !dbg !16108

; <label>:21:                                     ; preds = %20
  invoke void @_ZN7ap_uintILi32EEC2Ei(%class.ap_uint.5* %8, i32 0)
          to label %22 unwind label %61, !dbg !16110

; <label>:22:                                     ; preds = %21
  %23 = invoke dereferenceable(4) %class.ap_uint.5* @_ZN7ap_uintILi32EEaSERKS0_(%class.ap_uint.5* %4, %class.ap_uint.5* dereferenceable(4) %8)
          to label %24 unwind label %69, !dbg !16113

; <label>:24:                                     ; preds = %22
  call void @_ZN7ap_uintILi32EED2Ev(%class.ap_uint.5* %8) #3, !dbg !16115
  br label %25, !dbg !16115

; <label>:25:                                     ; preds = %56, %24
  %26 = bitcast %class.ap_uint.5* %4 to %class.ap_private.6*, !dbg !16117
  %27 = invoke i1 @_ZltILi32ELb0EEbRK10ap_privateIXT_EXT0_EXleT_Li64EEEi(%class.ap_private.6* dereferenceable(4) %26, i32 6)
          to label %28 unwind label %61, !dbg !16120

; <label>:28:                                     ; preds = %25
  br i1 %27, label %29, label %77, !dbg !16121

; <label>:29:                                     ; preds = %28
  %30 = bitcast %class.ap_uint.5* %4 to %class.ap_private.6*, !dbg !16123
  %31 = invoke i32 @_ZNK10ap_privateILi32ELb0ELb1EEcvjEv(%class.ap_private.6* %30)
          to label %32 unwind label %61, !dbg !16123

; <label>:32:                                     ; preds = %29
  %33 = zext i32 %31 to i64, !dbg !16125
  %34 = bitcast %class.ap_uint.5* %3 to %class.ap_private.6*, !dbg !16127
  %35 = invoke i32 @_ZNK10ap_privateILi32ELb0ELb1EEcvjEv(%class.ap_private.6* %34)
          to label %36 unwind label %61, !dbg !16127

; <label>:36:                                     ; preds = %32
  %37 = zext i32 %35 to i64, !dbg !16128
  %38 = getelementptr inbounds %"class.hls::Window.0", %"class.hls::Window.0"* %12, i32 0, i32 0, !dbg !16130
  %39 = getelementptr inbounds [1 x [7 x %struct.gradient_t]], [1 x [7 x %struct.gradient_t]]* %38, i64 0, i64 %37, !dbg !16130
  %40 = getelementptr inbounds [7 x %struct.gradient_t], [7 x %struct.gradient_t]* %39, i64 0, i64 %33, !dbg !16130
  %41 = bitcast %class.ap_uint.5* %4 to %class.ap_private.6*, !dbg !16131
  invoke void @_ZplILi32ELb0EEN10ap_privateIXT_EXT0_EXleT_Li64EEE5RTypeIXLi32EEXLb1EEE4plusERKS1_i(%class.ap_private.7* sret %9, %class.ap_private.6* dereferenceable(4) %41, i32 1)
          to label %42 unwind label %61, !dbg !16132

; <label>:42:                                     ; preds = %36
  %43 = invoke i64 @_ZNK10ap_privateILi34ELb1ELb1EEcvlEv(%class.ap_private.7* %9)
          to label %44 unwind label %73, !dbg !16133

; <label>:44:                                     ; preds = %42
  %45 = bitcast %class.ap_uint.5* %3 to %class.ap_private.6*, !dbg !16135
  %46 = invoke i32 @_ZNK10ap_privateILi32ELb0ELb1EEcvjEv(%class.ap_private.6* %45)
          to label %47 unwind label %73, !dbg !16135

; <label>:47:                                     ; preds = %44
  %48 = zext i32 %46 to i64, !dbg !16137
  %49 = getelementptr inbounds %"class.hls::Window.0", %"class.hls::Window.0"* %12, i32 0, i32 0, !dbg !16139
  %50 = getelementptr inbounds [1 x [7 x %struct.gradient_t]], [1 x [7 x %struct.gradient_t]]* %49, i64 0, i64 %48, !dbg !16139
  %51 = getelementptr inbounds [7 x %struct.gradient_t], [7 x %struct.gradient_t]* %50, i64 0, i64 %43, !dbg !16139
  %52 = bitcast %struct.gradient_t* %40 to i8*, !dbg !16140
  %53 = bitcast %struct.gradient_t* %51 to i8*, !dbg !16140
  call void @llvm.memcpy.p0i8.p0i8.i64(i8* %52, i8* %53, i64 12, i32 4, i1 false), !dbg !16140
  call void @_ZN10ap_privateILi34ELb1ELb1EED2Ev(%class.ap_private.7* %9) #3, !dbg !16141
  br label %54, !dbg !16143

; <label>:54:                                     ; preds = %47
  %55 = bitcast %class.ap_uint.5* %4 to %class.ap_private.6*, !dbg !16144
  invoke void @_ZN10ap_privateILi32ELb0ELb1EEppEi(%class.ap_private.6* sret %10, %class.ap_private.6* %55, i32 0)
          to label %56 unwind label %61, !dbg !16144

; <label>:56:                                     ; preds = %54
  call void @_ZN10ap_privateILi32ELb0ELb1EED2Ev(%class.ap_private.6* %10) #3, !dbg !16146
  br label %25, !dbg !16148, !llvm.loop !16149

; <label>:57:                                     ; preds = %1
  %58 = landingpad { i8*, i32 }
          cleanup, !dbg !16151
  %59 = extractvalue { i8*, i32 } %58, 0, !dbg !16151
  store i8* %59, i8** %5, align 8, !dbg !16151
  %60 = extractvalue { i8*, i32 } %58, 1, !dbg !16151
  store i32 %60, i32* %6, align 4, !dbg !16151
  br label %83, !dbg !16151

; <label>:61:                                     ; preds = %78, %54, %36, %32, %29, %25, %21, %17, %13
  %62 = landingpad { i8*, i32 }
          cleanup, !dbg !16152
  %63 = extractvalue { i8*, i32 } %62, 0, !dbg !16152
  store i8* %63, i8** %5, align 8, !dbg !16152
  %64 = extractvalue { i8*, i32 } %62, 1, !dbg !16152
  store i32 %64, i32* %6, align 4, !dbg !16152
  br label %82, !dbg !16152

; <label>:65:                                     ; preds = %14
  %66 = landingpad { i8*, i32 }
          cleanup, !dbg !16153
  %67 = extractvalue { i8*, i32 } %66, 0, !dbg !16153
  store i8* %67, i8** %5, align 8, !dbg !16153
  %68 = extractvalue { i8*, i32 } %66, 1, !dbg !16153
  store i32 %68, i32* %6, align 4, !dbg !16153
  call void @_ZN7ap_uintILi32EED2Ev(%class.ap_uint.5* %7) #3, !dbg !16154
  br label %82, !dbg !16154

; <label>:69:                                     ; preds = %22
  %70 = landingpad { i8*, i32 }
          cleanup, !dbg !16156
  %71 = extractvalue { i8*, i32 } %70, 0, !dbg !16156
  store i8* %71, i8** %5, align 8, !dbg !16156
  %72 = extractvalue { i8*, i32 } %70, 1, !dbg !16156
  store i32 %72, i32* %6, align 4, !dbg !16156
  call void @_ZN7ap_uintILi32EED2Ev(%class.ap_uint.5* %8) #3, !dbg !16158
  br label %82, !dbg !16158

; <label>:73:                                     ; preds = %44, %42
  %74 = landingpad { i8*, i32 }
          cleanup, !dbg !16160
  %75 = extractvalue { i8*, i32 } %74, 0, !dbg !16160
  store i8* %75, i8** %5, align 8, !dbg !16160
  %76 = extractvalue { i8*, i32 } %74, 1, !dbg !16160
  store i32 %76, i32* %6, align 4, !dbg !16160
  call void @_ZN10ap_privateILi34ELb1ELb1EED2Ev(%class.ap_private.7* %9) #3, !dbg !16161
  br label %82, !dbg !16161

; <label>:77:                                     ; preds = %28
  br label %78, !dbg !16163

; <label>:78:                                     ; preds = %77
  %79 = bitcast %class.ap_uint.5* %3 to %class.ap_private.6*, !dbg !16164
  invoke void @_ZN10ap_privateILi32ELb0ELb1EEppEi(%class.ap_private.6* sret %11, %class.ap_private.6* %79, i32 0)
          to label %80 unwind label %61, !dbg !16164

; <label>:80:                                     ; preds = %78
  call void @_ZN10ap_privateILi32ELb0ELb1EED2Ev(%class.ap_private.6* %11) #3, !dbg !16166
  br label %17, !dbg !16168, !llvm.loop !16169

; <label>:81:                                     ; preds = %20
  call void @_ZN7ap_uintILi32EED2Ev(%class.ap_uint.5* %4) #3, !dbg !16171
  call void @_ZN7ap_uintILi32EED2Ev(%class.ap_uint.5* %3) #3, !dbg !16173
  ret void, !dbg !16171

; <label>:82:                                     ; preds = %73, %69, %65, %61
  call void @_ZN7ap_uintILi32EED2Ev(%class.ap_uint.5* %4) #3, !dbg !16175
  br label %83, !dbg !16175

; <label>:83:                                     ; preds = %82, %57
  call void @_ZN7ap_uintILi32EED2Ev(%class.ap_uint.5* %3) #3, !dbg !16177
  br label %84, !dbg !16177

; <label>:84:                                     ; preds = %83
  %85 = load i8*, i8** %5, align 8, !dbg !16179
  %86 = load i32, i32* %6, align 4, !dbg !16179
  %87 = insertvalue { i8*, i32 } undef, i8* %85, 0, !dbg !16179
  %88 = insertvalue { i8*, i32 } %87, i32 %86, 1, !dbg !16179
  resume { i8*, i32 } %88, !dbg !16179
}

; Function Attrs: nounwind
define linkonce_odr void @_ZN3hls6WindowILi1ELi7E10gradient_tE12insert_pixelES1_ii(%"class.hls::Window.0"*, [3 x float], i32, i32) #7 comdat align 2 !dbg !16181 !xidane.fname !15426 !xidane.function_declaration_type !16182 !xidane.function_declaration_filename !15248 {
  %5 = alloca %struct.gradient_t, align 4
  %6 = alloca %"class.hls::Window.0"*, align 8
  %7 = alloca i32, align 4
  %8 = alloca i32, align 4
  %9 = bitcast %struct.gradient_t* %5 to [3 x float]*
  store [3 x float] %1, [3 x float]* %9, align 4
  store %"class.hls::Window.0"* %0, %"class.hls::Window.0"** %6, align 8
  call void @llvm.dbg.declare(metadata %"class.hls::Window.0"** %6, metadata !16183, metadata !14900), !dbg !16184
  call void @llvm.dbg.declare(metadata %struct.gradient_t* %5, metadata !16185, metadata !14900), !dbg !16186
  store i32 %2, i32* %7, align 4
  call void @llvm.dbg.declare(metadata i32* %7, metadata !16187, metadata !14900), !dbg !16188
  store i32 %3, i32* %8, align 4
  call void @llvm.dbg.declare(metadata i32* %8, metadata !16189, metadata !14900), !dbg !16190
  %10 = load %"class.hls::Window.0"*, %"class.hls::Window.0"** %6, align 8
  %11 = load i32, i32* %7, align 4, !dbg !16191
  %12 = icmp sge i32 %11, 0, !dbg !16191
  br i1 %12, label %13, label %22, !dbg !16191

; <label>:13:                                     ; preds = %4
  %14 = load i32, i32* %7, align 4, !dbg !16192
  %15 = icmp slt i32 %14, 1, !dbg !16192
  br i1 %15, label %16, label %22, !dbg !16192

; <label>:16:                                     ; preds = %13
  %17 = load i32, i32* %8, align 4, !dbg !16194
  %18 = icmp sge i32 %17, 0, !dbg !16194
  br i1 %18, label %19, label %22, !dbg !16194

; <label>:19:                                     ; preds = %16
  %20 = load i32, i32* %8, align 4, !dbg !16196
  %21 = icmp slt i32 %20, 7, !dbg !16196
  br label %22

; <label>:22:                                     ; preds = %19, %16, %13, %4
  %23 = phi i1 [ false, %16 ], [ false, %13 ], [ false, %4 ], [ %21, %19 ]
  br i1 %23, label %24, label %25, !dbg !16198

; <label>:24:                                     ; preds = %22
  br label %27, !dbg !16200

; <label>:25:                                     ; preds = %22
  call void @__assert_fail(i8* getelementptr inbounds ([49 x i8], [49 x i8]* @.str.3, i32 0, i32 0), i8* getelementptr inbounds ([62 x i8], [62 x i8]* @.str.4, i32 0, i32 0), i32 266, i8* getelementptr inbounds ([99 x i8], [99 x i8]* @__PRETTY_FUNCTION__._ZN3hls6WindowILi1ELi7E10gradient_tE12insert_pixelES1_ii, i32 0, i32 0)) #11, !dbg !16202
  unreachable, !dbg !16202
                                                  ; No predecessors!
  br label %27, !dbg !16204

; <label>:27:                                     ; preds = %26, %24
  %28 = load i32, i32* %8, align 4, !dbg !16206
  %29 = sext i32 %28 to i64, !dbg !16207
  %30 = load i32, i32* %7, align 4, !dbg !16208
  %31 = sext i32 %30 to i64, !dbg !16207
  %32 = getelementptr inbounds %"class.hls::Window.0", %"class.hls::Window.0"* %10, i32 0, i32 0, !dbg !16207
  %33 = getelementptr inbounds [1 x [7 x %struct.gradient_t]], [1 x [7 x %struct.gradient_t]]* %32, i64 0, i64 %31, !dbg !16207
  %34 = getelementptr inbounds [7 x %struct.gradient_t], [7 x %struct.gradient_t]* %33, i64 0, i64 %29, !dbg !16207
  %35 = bitcast %struct.gradient_t* %34 to i8*, !dbg !16209
  %36 = bitcast %struct.gradient_t* %5 to i8*, !dbg !16209
  call void @llvm.memcpy.p0i8.p0i8.i64(i8* %35, i8* %36, i64 12, i32 4, i1 false), !dbg !16209
  ret void, !dbg !16210
}

; Function Attrs: nounwind
define linkonce_odr dereferenceable(12) %struct.gradient_t* @_ZN3hls6WindowILi1ELi7E10gradient_tE6getvalEii(%"class.hls::Window.0"*, i32, i32) #7 comdat align 2 !dbg !16211 !xidane.fname !15458 !xidane.function_declaration_type !15874 !xidane.function_declaration_filename !15248 {
  %4 = alloca %"class.hls::Window.0"*, align 8
  %5 = alloca i32, align 4
  %6 = alloca i32, align 4
  store %"class.hls::Window.0"* %0, %"class.hls::Window.0"** %4, align 8
  call void @llvm.dbg.declare(metadata %"class.hls::Window.0"** %4, metadata !16212, metadata !14900), !dbg !16213
  store i32 %1, i32* %5, align 4
  call void @llvm.dbg.declare(metadata i32* %5, metadata !16214, metadata !14900), !dbg !16215
  store i32 %2, i32* %6, align 4
  call void @llvm.dbg.declare(metadata i32* %6, metadata !16216, metadata !14900), !dbg !16217
  %7 = load %"class.hls::Window.0"*, %"class.hls::Window.0"** %4, align 8
  %8 = load i32, i32* %5, align 4, !dbg !16218
  %9 = icmp sge i32 %8, 0, !dbg !16218
  br i1 %9, label %10, label %19, !dbg !16218

; <label>:10:                                     ; preds = %3
  %11 = load i32, i32* %5, align 4, !dbg !16219
  %12 = icmp slt i32 %11, 1, !dbg !16219
  br i1 %12, label %13, label %19, !dbg !16219

; <label>:13:                                     ; preds = %10
  %14 = load i32, i32* %6, align 4, !dbg !16221
  %15 = icmp sge i32 %14, 0, !dbg !16221
  br i1 %15, label %16, label %19, !dbg !16221

; <label>:16:                                     ; preds = %13
  %17 = load i32, i32* %6, align 4, !dbg !16223
  %18 = icmp slt i32 %17, 7, !dbg !16223
  br label %19

; <label>:19:                                     ; preds = %16, %13, %10, %3
  %20 = phi i1 [ false, %13 ], [ false, %10 ], [ false, %3 ], [ %18, %16 ]
  br i1 %20, label %21, label %22, !dbg !16225

; <label>:21:                                     ; preds = %19
  br label %24, !dbg !16227

; <label>:22:                                     ; preds = %19
  call void @__assert_fail(i8* getelementptr inbounds ([49 x i8], [49 x i8]* @.str.3, i32 0, i32 0), i8* getelementptr inbounds ([62 x i8], [62 x i8]* @.str.4, i32 0, i32 0), i32 492, i8* getelementptr inbounds ([88 x i8], [88 x i8]* @__PRETTY_FUNCTION__._ZN3hls6WindowILi1ELi7E10gradient_tE6getvalEii, i32 0, i32 0)) #11, !dbg !16229
  unreachable, !dbg !16229
                                                  ; No predecessors!
  br label %24, !dbg !16231

; <label>:24:                                     ; preds = %23, %21
  %25 = load i32, i32* %6, align 4, !dbg !16233
  %26 = sext i32 %25 to i64, !dbg !16234
  %27 = load i32, i32* %5, align 4, !dbg !16235
  %28 = sext i32 %27 to i64, !dbg !16234
  %29 = getelementptr inbounds %"class.hls::Window.0", %"class.hls::Window.0"* %7, i32 0, i32 0, !dbg !16234
  %30 = getelementptr inbounds [1 x [7 x %struct.gradient_t]], [1 x [7 x %struct.gradient_t]]* %29, i64 0, i64 %28, !dbg !16234
  %31 = getelementptr inbounds [7 x %struct.gradient_t], [7 x %struct.gradient_t]* %30, i64 0, i64 %26, !dbg !16234
  ret %struct.gradient_t* %31, !dbg !16236
}

; Function Attrs: nounwind
define void @_Z13outer_productPA1024_10gradient_tPA1024_7outer_t([1024 x %struct.gradient_t]*, [1024 x %struct.outer_t]*) #7 !dbg !16237 !xidane.fname !16240 !xidane.function_declaration_type !16241 !xidane.function_declaration_filename !14923 {
  %3 = alloca [1024 x %struct.gradient_t]*, align 8
  %4 = alloca [1024 x %struct.outer_t]*, align 8
  %5 = alloca i32, align 4
  %6 = alloca i32, align 4
  %7 = alloca %struct.gradient_t, align 4
  %8 = alloca %struct.outer_t, align 4
  store [1024 x %struct.gradient_t]* %0, [1024 x %struct.gradient_t]** %3, align 8
  call void @llvm.dbg.declare(metadata [1024 x %struct.gradient_t]** %3, metadata !16242, metadata !14900), !dbg !16243
  store [1024 x %struct.outer_t]* %1, [1024 x %struct.outer_t]** %4, align 8
  call void @llvm.dbg.declare(metadata [1024 x %struct.outer_t]** %4, metadata !16244, metadata !14900), !dbg !16245
  br label %9, !dbg !16246

; <label>:9:                                      ; preds = %2
  call void @llvm.dbg.declare(metadata i32* %5, metadata !16247, metadata !14900), !dbg !16249
  store i32 0, i32* %5, align 4, !dbg !16249
  br label %10, !dbg !16250

; <label>:10:                                     ; preds = %83, %9
  %11 = load i32, i32* %5, align 4, !dbg !16251
  %12 = icmp slt i32 %11, 436, !dbg !16254
  br i1 %12, label %13, label %86, !dbg !16255

; <label>:13:                                     ; preds = %10
  br label %14, !dbg !16256

; <label>:14:                                     ; preds = %13
  call void @llvm.dbg.declare(metadata i32* %6, metadata !16257, metadata !14900), !dbg !16260
  store i32 0, i32* %6, align 4, !dbg !16260
  br label %15, !dbg !16261

; <label>:15:                                     ; preds = %79, %14
  %16 = load i32, i32* %6, align 4, !dbg !16262
  %17 = icmp slt i32 %16, 1024, !dbg !16265
  br i1 %17, label %18, label %82, !dbg !16266

; <label>:18:                                     ; preds = %15
  call void @llvm.dbg.declare(metadata %struct.gradient_t* %7, metadata !16267, metadata !14900), !dbg !16269
  %19 = load i32, i32* %6, align 4, !dbg !16270
  %20 = sext i32 %19 to i64, !dbg !16271
  %21 = load i32, i32* %5, align 4, !dbg !16272
  %22 = sext i32 %21 to i64, !dbg !16271
  %23 = load [1024 x %struct.gradient_t]*, [1024 x %struct.gradient_t]** %3, align 8, !dbg !16271
  %24 = getelementptr inbounds [1024 x %struct.gradient_t], [1024 x %struct.gradient_t]* %23, i64 %22, !dbg !16271
  %25 = getelementptr inbounds [1024 x %struct.gradient_t], [1024 x %struct.gradient_t]* %24, i64 0, i64 %20, !dbg !16271
  %26 = bitcast %struct.gradient_t* %7 to i8*, !dbg !16271
  %27 = bitcast %struct.gradient_t* %25 to i8*, !dbg !16271
  call void @llvm.memcpy.p0i8.p0i8.i64(i8* %26, i8* %27, i64 12, i32 4, i1 false), !dbg !16271
  call void @llvm.dbg.declare(metadata %struct.outer_t* %8, metadata !16273, metadata !14900), !dbg !16274
  %28 = getelementptr inbounds %struct.gradient_t, %struct.gradient_t* %7, i32 0, i32 0, !dbg !16275
  %29 = load float, float* %28, align 4, !dbg !16275
  %30 = getelementptr inbounds %struct.gradient_t, %struct.gradient_t* %7, i32 0, i32 0, !dbg !16276
  %31 = load float, float* %30, align 4, !dbg !16276
  %32 = fmul float %29, %31, !dbg !16277
  %33 = getelementptr inbounds %struct.outer_t, %struct.outer_t* %8, i32 0, i32 0, !dbg !16278
  %34 = getelementptr inbounds [6 x float], [6 x float]* %33, i64 0, i64 0, !dbg !16279
  store float %32, float* %34, align 4, !dbg !16280
  %35 = getelementptr inbounds %struct.gradient_t, %struct.gradient_t* %7, i32 0, i32 1, !dbg !16281
  %36 = load float, float* %35, align 4, !dbg !16281
  %37 = getelementptr inbounds %struct.gradient_t, %struct.gradient_t* %7, i32 0, i32 1, !dbg !16282
  %38 = load float, float* %37, align 4, !dbg !16282
  %39 = fmul float %36, %38, !dbg !16283
  %40 = getelementptr inbounds %struct.outer_t, %struct.outer_t* %8, i32 0, i32 0, !dbg !16284
  %41 = getelementptr inbounds [6 x float], [6 x float]* %40, i64 0, i64 1, !dbg !16285
  store float %39, float* %41, align 4, !dbg !16286
  %42 = getelementptr inbounds %struct.gradient_t, %struct.gradient_t* %7, i32 0, i32 2, !dbg !16287
  %43 = load float, float* %42, align 4, !dbg !16287
  %44 = getelementptr inbounds %struct.gradient_t, %struct.gradient_t* %7, i32 0, i32 2, !dbg !16288
  %45 = load float, float* %44, align 4, !dbg !16288
  %46 = fmul float %43, %45, !dbg !16289
  %47 = getelementptr inbounds %struct.outer_t, %struct.outer_t* %8, i32 0, i32 0, !dbg !16290
  %48 = getelementptr inbounds [6 x float], [6 x float]* %47, i64 0, i64 2, !dbg !16291
  store float %46, float* %48, align 4, !dbg !16292
  %49 = getelementptr inbounds %struct.gradient_t, %struct.gradient_t* %7, i32 0, i32 0, !dbg !16293
  %50 = load float, float* %49, align 4, !dbg !16293
  %51 = getelementptr inbounds %struct.gradient_t, %struct.gradient_t* %7, i32 0, i32 1, !dbg !16294
  %52 = load float, float* %51, align 4, !dbg !16294
  %53 = fmul float %50, %52, !dbg !16295
  %54 = getelementptr inbounds %struct.outer_t, %struct.outer_t* %8, i32 0, i32 0, !dbg !16296
  %55 = getelementptr inbounds [6 x float], [6 x float]* %54, i64 0, i64 3, !dbg !16297
  store float %53, float* %55, align 4, !dbg !16298
  %56 = getelementptr inbounds %struct.gradient_t, %struct.gradient_t* %7, i32 0, i32 0, !dbg !16299
  %57 = load float, float* %56, align 4, !dbg !16299
  %58 = getelementptr inbounds %struct.gradient_t, %struct.gradient_t* %7, i32 0, i32 2, !dbg !16300
  %59 = load float, float* %58, align 4, !dbg !16300
  %60 = fmul float %57, %59, !dbg !16301
  %61 = getelementptr inbounds %struct.outer_t, %struct.outer_t* %8, i32 0, i32 0, !dbg !16302
  %62 = getelementptr inbounds [6 x float], [6 x float]* %61, i64 0, i64 4, !dbg !16303
  store float %60, float* %62, align 4, !dbg !16304
  %63 = getelementptr inbounds %struct.gradient_t, %struct.gradient_t* %7, i32 0, i32 1, !dbg !16305
  %64 = load float, float* %63, align 4, !dbg !16305
  %65 = getelementptr inbounds %struct.gradient_t, %struct.gradient_t* %7, i32 0, i32 2, !dbg !16306
  %66 = load float, float* %65, align 4, !dbg !16306
  %67 = fmul float %64, %66, !dbg !16307
  %68 = getelementptr inbounds %struct.outer_t, %struct.outer_t* %8, i32 0, i32 0, !dbg !16308
  %69 = getelementptr inbounds [6 x float], [6 x float]* %68, i64 0, i64 5, !dbg !16309
  store float %67, float* %69, align 4, !dbg !16310
  %70 = load i32, i32* %6, align 4, !dbg !16311
  %71 = sext i32 %70 to i64, !dbg !16312
  %72 = load i32, i32* %5, align 4, !dbg !16313
  %73 = sext i32 %72 to i64, !dbg !16312
  %74 = load [1024 x %struct.outer_t]*, [1024 x %struct.outer_t]** %4, align 8, !dbg !16312
  %75 = getelementptr inbounds [1024 x %struct.outer_t], [1024 x %struct.outer_t]* %74, i64 %73, !dbg !16312
  %76 = getelementptr inbounds [1024 x %struct.outer_t], [1024 x %struct.outer_t]* %75, i64 0, i64 %71, !dbg !16312
  %77 = bitcast %struct.outer_t* %76 to i8*, !dbg !16314
  %78 = bitcast %struct.outer_t* %8 to i8*, !dbg !16314
  call void @llvm.memcpy.p0i8.p0i8.i64(i8* %77, i8* %78, i64 24, i32 4, i1 false), !dbg !16314
  br label %79, !dbg !16315

; <label>:79:                                     ; preds = %18
  %80 = load i32, i32* %6, align 4, !dbg !16316
  %81 = add nsw i32 %80, 1, !dbg !16316
  store i32 %81, i32* %6, align 4, !dbg !16316
  br label %15, !dbg !16318, !llvm.loop !16319

; <label>:82:                                     ; preds = %15
  br label %83, !dbg !16321

; <label>:83:                                     ; preds = %82
  %84 = load i32, i32* %5, align 4, !dbg !16322
  %85 = add nsw i32 %84, 1, !dbg !16322
  store i32 %85, i32* %5, align 4, !dbg !16322
  br label %10, !dbg !16324, !llvm.loop !16325

; <label>:86:                                     ; preds = %10
  ret void, !dbg !16327
}

define void @_Z15tensor_weight_yPA1024_7outer_tPA1024_8tensor_t([1024 x %struct.outer_t]*, [1024 x %struct.tensor_t]*) #0 !dbg !13295 !xidane.fname !16328 !xidane.function_declaration_type !16329 !xidane.function_declaration_filename !14923 {
  %3 = alloca [1024 x %struct.outer_t]*, align 8
  %4 = alloca [1024 x %struct.tensor_t]*, align 8
  %5 = alloca %"class.hls::LineBuffer.1", align 4
  %6 = alloca i32, align 4
  %7 = alloca i32, align 4
  %8 = alloca %struct.outer_t, align 4
  %9 = alloca i32, align 4
  %10 = alloca %struct.outer_t, align 4
  %11 = alloca %struct.tensor_t, align 4
  %12 = alloca i32, align 4
  %13 = alloca i32, align 4
  %14 = alloca float, align 4
  %15 = alloca i32, align 4
  store [1024 x %struct.outer_t]* %0, [1024 x %struct.outer_t]** %3, align 8
  call void @llvm.dbg.declare(metadata [1024 x %struct.outer_t]** %3, metadata !16330, metadata !14900), !dbg !16331
  store [1024 x %struct.tensor_t]* %1, [1024 x %struct.tensor_t]** %4, align 8
  call void @llvm.dbg.declare(metadata [1024 x %struct.tensor_t]** %4, metadata !16332, metadata !14900), !dbg !16333
  call void @llvm.dbg.declare(metadata %"class.hls::LineBuffer.1"* %5, metadata !16334, metadata !14900), !dbg !16368
  call void @_ZN3hls10LineBufferILi3ELi1024E7outer_tLi0EEC2Ev(%"class.hls::LineBuffer.1"* %5), !dbg !16368
  br label %16, !dbg !16369

; <label>:16:                                     ; preds = %2
  call void @llvm.dbg.declare(metadata i32* %6, metadata !16370, metadata !14900), !dbg !16372
  store i32 0, i32* %6, align 4, !dbg !16372
  br label %17, !dbg !16373

; <label>:17:                                     ; preds = %135, %16
  %18 = load i32, i32* %6, align 4, !dbg !16374
  %19 = icmp slt i32 %18, 437, !dbg !16377
  br i1 %19, label %20, label %138, !dbg !16378

; <label>:20:                                     ; preds = %17
  br label %21, !dbg !16379

; <label>:21:                                     ; preds = %20
  call void @llvm.dbg.declare(metadata i32* %7, metadata !16380, metadata !14900), !dbg !16383
  store i32 0, i32* %7, align 4, !dbg !16383
  br label %22, !dbg !16384

; <label>:22:                                     ; preds = %131, %21
  %23 = load i32, i32* %7, align 4, !dbg !16385
  %24 = icmp slt i32 %23, 1024, !dbg !16388
  br i1 %24, label %25, label %134, !dbg !16389

; <label>:25:                                     ; preds = %22
  call void @llvm.dbg.declare(metadata %struct.outer_t* %8, metadata !16390, metadata !14900), !dbg !16392
  %26 = load i32, i32* %7, align 4, !dbg !16393
  call void @_ZN3hls10LineBufferILi3ELi1024E7outer_tLi0EE15shift_pixels_upEi(%"class.hls::LineBuffer.1"* %5, i32 %26), !dbg !16394
  %27 = load i32, i32* %6, align 4, !dbg !16395
  %28 = icmp slt i32 %27, 436, !dbg !16397
  br i1 %28, label %29, label %39, !dbg !16398

; <label>:29:                                     ; preds = %25
  %30 = load i32, i32* %7, align 4, !dbg !16399
  %31 = sext i32 %30 to i64, !dbg !16401
  %32 = load i32, i32* %6, align 4, !dbg !16402
  %33 = sext i32 %32 to i64, !dbg !16401
  %34 = load [1024 x %struct.outer_t]*, [1024 x %struct.outer_t]** %3, align 8, !dbg !16401
  %35 = getelementptr inbounds [1024 x %struct.outer_t], [1024 x %struct.outer_t]* %34, i64 %33, !dbg !16401
  %36 = getelementptr inbounds [1024 x %struct.outer_t], [1024 x %struct.outer_t]* %35, i64 0, i64 %31, !dbg !16401
  %37 = bitcast %struct.outer_t* %8 to i8*, !dbg !16403
  %38 = bitcast %struct.outer_t* %36 to i8*, !dbg !16403
  call void @llvm.memcpy.p0i8.p0i8.i64(i8* %37, i8* %38, i64 24, i32 4, i1 false), !dbg !16403
  br label %53, !dbg !16404

; <label>:39:                                     ; preds = %25
  br label %40, !dbg !16405

; <label>:40:                                     ; preds = %39
  call void @llvm.dbg.declare(metadata i32* %9, metadata !16406, metadata !14900), !dbg !16409
  store i32 0, i32* %9, align 4, !dbg !16409
  br label %41, !dbg !16410

; <label>:41:                                     ; preds = %49, %40
  %42 = load i32, i32* %9, align 4, !dbg !16411
  %43 = icmp slt i32 %42, 6, !dbg !16414
  br i1 %43, label %44, label %52, !dbg !16415

; <label>:44:                                     ; preds = %41
  %45 = load i32, i32* %9, align 4, !dbg !16416
  %46 = sext i32 %45 to i64, !dbg !16417
  %47 = getelementptr inbounds %struct.outer_t, %struct.outer_t* %8, i32 0, i32 0, !dbg !16418
  %48 = getelementptr inbounds [6 x float], [6 x float]* %47, i64 0, i64 %46, !dbg !16417
  store float 0.000000e+00, float* %48, align 4, !dbg !16419
  br label %49, !dbg !16417

; <label>:49:                                     ; preds = %44
  %50 = load i32, i32* %9, align 4, !dbg !16420
  %51 = add nsw i32 %50, 1, !dbg !16420
  store i32 %51, i32* %9, align 4, !dbg !16420
  br label %41, !dbg !16422, !llvm.loop !16423

; <label>:52:                                     ; preds = %41
  br label %53

; <label>:53:                                     ; preds = %52, %29
  %54 = bitcast %struct.outer_t* %10 to i8*, !dbg !16425
  %55 = bitcast %struct.outer_t* %8 to i8*, !dbg !16425
  call void @llvm.memcpy.p0i8.p0i8.i64(i8* %54, i8* %55, i64 24, i32 4, i1 false), !dbg !16425
  %56 = load i32, i32* %7, align 4, !dbg !16426
  call void @_ZN3hls10LineBufferILi3ELi1024E7outer_tLi0EE17insert_bottom_rowES1_i(%"class.hls::LineBuffer.1"* %5, %struct.outer_t* %10, i32 %56), !dbg !16427
  call void @llvm.dbg.declare(metadata %struct.tensor_t* %11, metadata !16429, metadata !14900), !dbg !16430
  br label %57, !dbg !16431

; <label>:57:                                     ; preds = %53
  call void @llvm.dbg.declare(metadata i32* %12, metadata !16432, metadata !14900), !dbg !16434
  store i32 0, i32* %12, align 4, !dbg !16434
  br label %58, !dbg !16435

; <label>:58:                                     ; preds = %66, %57
  %59 = load i32, i32* %12, align 4, !dbg !16436
  %60 = icmp slt i32 %59, 6, !dbg !16439
  br i1 %60, label %61, label %69, !dbg !16440

; <label>:61:                                     ; preds = %58
  %62 = load i32, i32* %12, align 4, !dbg !16441
  %63 = sext i32 %62 to i64, !dbg !16442
  %64 = getelementptr inbounds %struct.tensor_t, %struct.tensor_t* %11, i32 0, i32 0, !dbg !16443
  %65 = getelementptr inbounds [6 x float], [6 x float]* %64, i64 0, i64 %63, !dbg !16442
  store float 0.000000e+00, float* %65, align 4, !dbg !16444
  br label %66, !dbg !16442

; <label>:66:                                     ; preds = %61
  %67 = load i32, i32* %12, align 4, !dbg !16445
  %68 = add nsw i32 %67, 1, !dbg !16445
  store i32 %68, i32* %12, align 4, !dbg !16445
  br label %58, !dbg !16447, !llvm.loop !16448

; <label>:69:                                     ; preds = %58
  %70 = load i32, i32* %6, align 4, !dbg !16450
  %71 = icmp sge i32 %70, 2, !dbg !16452
  br i1 %71, label %72, label %116, !dbg !16453

; <label>:72:                                     ; preds = %69
  %73 = load i32, i32* %6, align 4, !dbg !16454
  %74 = icmp slt i32 %73, 436, !dbg !16456
  br i1 %74, label %75, label %116, !dbg !16457

; <label>:75:                                     ; preds = %72
  br label %76, !dbg !16458

; <label>:76:                                     ; preds = %75
  call void @llvm.dbg.declare(metadata i32* %13, metadata !16459, metadata !14900), !dbg !16462
  store i32 0, i32* %13, align 4, !dbg !16462
  br label %77, !dbg !16463

; <label>:77:                                     ; preds = %112, %76
  %78 = load i32, i32* %13, align 4, !dbg !16464
  %79 = icmp slt i32 %78, 3, !dbg !16467
  br i1 %79, label %80, label %115, !dbg !16468

; <label>:80:                                     ; preds = %77
  %81 = load i32, i32* %13, align 4, !dbg !16469
  %82 = load i32, i32* %7, align 4, !dbg !16471
  %83 = call dereferenceable(24) %struct.outer_t* @_ZN3hls10LineBufferILi3ELi1024E7outer_tLi0EE6getvalEii(%"class.hls::LineBuffer.1"* %5, i32 %81, i32 %82), !dbg !16472
  %84 = bitcast %struct.outer_t* %8 to i8*, !dbg !16473
  %85 = bitcast %struct.outer_t* %83 to i8*, !dbg !16473
  call void @llvm.memcpy.p0i8.p0i8.i64(i8* %84, i8* %85, i64 24, i32 4, i1 false), !dbg !16474
  call void @llvm.dbg.declare(metadata float* %14, metadata !16476, metadata !14900), !dbg !16477
  %86 = load i32, i32* %13, align 4, !dbg !16478
  %87 = sext i32 %86 to i64, !dbg !16479
  %88 = getelementptr inbounds [3 x float], [3 x float]* @_ZZ15tensor_weight_yPA1024_7outer_tPA1024_8tensor_tE13TENSOR_FILTER, i64 0, i64 %87, !dbg !16479
  %89 = load float, float* %88, align 4, !dbg !16479
  store float %89, float* %14, align 4, !dbg !16477
  br label %90, !dbg !16480

; <label>:90:                                     ; preds = %80
  call void @llvm.dbg.declare(metadata i32* %15, metadata !16481, metadata !14900), !dbg !16483
  store i32 0, i32* %15, align 4, !dbg !16483
  br label %91, !dbg !16484

; <label>:91:                                     ; preds = %108, %90
  %92 = load i32, i32* %15, align 4, !dbg !16485
  %93 = icmp slt i32 %92, 6, !dbg !16488
  br i1 %93, label %94, label %111, !dbg !16489

; <label>:94:                                     ; preds = %91
  %95 = load i32, i32* %15, align 4, !dbg !16490
  %96 = sext i32 %95 to i64, !dbg !16492
  %97 = getelementptr inbounds %struct.outer_t, %struct.outer_t* %8, i32 0, i32 0, !dbg !16493
  %98 = getelementptr inbounds [6 x float], [6 x float]* %97, i64 0, i64 %96, !dbg !16492
  %99 = load float, float* %98, align 4, !dbg !16492
  %100 = load float, float* %14, align 4, !dbg !16494
  %101 = fmul float %99, %100, !dbg !16495
  %102 = load i32, i32* %15, align 4, !dbg !16496
  %103 = sext i32 %102 to i64, !dbg !16497
  %104 = getelementptr inbounds %struct.tensor_t, %struct.tensor_t* %11, i32 0, i32 0, !dbg !16498
  %105 = getelementptr inbounds [6 x float], [6 x float]* %104, i64 0, i64 %103, !dbg !16497
  %106 = load float, float* %105, align 4, !dbg !16499
  %107 = fadd float %106, %101, !dbg !16499
  store float %107, float* %105, align 4, !dbg !16499
  br label %108, !dbg !16500

; <label>:108:                                    ; preds = %94
  %109 = load i32, i32* %15, align 4, !dbg !16501
  %110 = add nsw i32 %109, 1, !dbg !16501
  store i32 %110, i32* %15, align 4, !dbg !16501
  br label %91, !dbg !16503, !llvm.loop !16504

; <label>:111:                                    ; preds = %91
  br label %112, !dbg !16506

; <label>:112:                                    ; preds = %111
  %113 = load i32, i32* %13, align 4, !dbg !16507
  %114 = add nsw i32 %113, 1, !dbg !16507
  store i32 %114, i32* %13, align 4, !dbg !16507
  br label %77, !dbg !16509, !llvm.loop !16510

; <label>:115:                                    ; preds = %77
  br label %116, !dbg !16512

; <label>:116:                                    ; preds = %115, %72, %69
  %117 = load i32, i32* %6, align 4, !dbg !16513
  %118 = icmp sge i32 %117, 1, !dbg !16515
  br i1 %118, label %119, label %130, !dbg !16516

; <label>:119:                                    ; preds = %116
  %120 = load i32, i32* %7, align 4, !dbg !16517
  %121 = sext i32 %120 to i64, !dbg !16519
  %122 = load i32, i32* %6, align 4, !dbg !16520
  %123 = sub nsw i32 %122, 1, !dbg !16521
  %124 = sext i32 %123 to i64, !dbg !16519
  %125 = load [1024 x %struct.tensor_t]*, [1024 x %struct.tensor_t]** %4, align 8, !dbg !16519
  %126 = getelementptr inbounds [1024 x %struct.tensor_t], [1024 x %struct.tensor_t]* %125, i64 %124, !dbg !16519
  %127 = getelementptr inbounds [1024 x %struct.tensor_t], [1024 x %struct.tensor_t]* %126, i64 0, i64 %121, !dbg !16519
  %128 = bitcast %struct.tensor_t* %127 to i8*, !dbg !16522
  %129 = bitcast %struct.tensor_t* %11 to i8*, !dbg !16522
  call void @llvm.memcpy.p0i8.p0i8.i64(i8* %128, i8* %129, i64 24, i32 4, i1 false), !dbg !16522
  br label %130, !dbg !16523

; <label>:130:                                    ; preds = %119, %116
  br label %131, !dbg !16524

; <label>:131:                                    ; preds = %130
  %132 = load i32, i32* %7, align 4, !dbg !16525
  %133 = add nsw i32 %132, 1, !dbg !16525
  store i32 %133, i32* %7, align 4, !dbg !16525
  br label %22, !dbg !16527, !llvm.loop !16528

; <label>:134:                                    ; preds = %22
  br label %135, !dbg !16530

; <label>:135:                                    ; preds = %134
  %136 = load i32, i32* %6, align 4, !dbg !16531
  %137 = add nsw i32 %136, 1, !dbg !16531
  store i32 %137, i32* %6, align 4, !dbg !16531
  br label %17, !dbg !16533, !llvm.loop !16534

; <label>:138:                                    ; preds = %17
  ret void, !dbg !16536
}

; Function Attrs: nounwind
define linkonce_odr void @_ZN3hls10LineBufferILi3ELi1024E7outer_tLi0EEC2Ev(%"class.hls::LineBuffer.1"*) unnamed_addr #7 comdat align 2 !dbg !16537 !xidane.fname !15775 !xidane.function_declaration_type !14874 !xidane.function_declaration_filename !15248 {
  %2 = alloca %"class.hls::LineBuffer.1"*, align 8
  store %"class.hls::LineBuffer.1"* %0, %"class.hls::LineBuffer.1"** %2, align 8
  call void @llvm.dbg.declare(metadata %"class.hls::LineBuffer.1"** %2, metadata !16538, metadata !14900), !dbg !16540
  %3 = load %"class.hls::LineBuffer.1"*, %"class.hls::LineBuffer.1"** %2, align 8
  %4 = getelementptr inbounds %"class.hls::LineBuffer.1", %"class.hls::LineBuffer.1"* %3, i32 0, i32 0, !dbg !16541
  ret void, !dbg !16542
}

define linkonce_odr void @_ZN3hls10LineBufferILi3ELi1024E7outer_tLi0EE15shift_pixels_upEi(%"class.hls::LineBuffer.1"*, i32) #0 comdat align 2 personality i8* bitcast (i32 (...)* @__gxx_personality_v0 to i8*) !dbg !16543 !xidane.fname !15782 !xidane.function_declaration_type !15783 !xidane.function_declaration_filename !15248 {
  %3 = alloca %"class.hls::LineBuffer.1"*, align 8
  %4 = alloca i32, align 4
  %5 = alloca %class.ap_uint.5, align 4
  %6 = alloca %class.ap_uint.5, align 4
  %7 = alloca i8*
  %8 = alloca i32
  %9 = alloca %class.ap_private.7, align 8
  %10 = alloca %class.ap_private.6, align 4
  store %"class.hls::LineBuffer.1"* %0, %"class.hls::LineBuffer.1"** %3, align 8
  call void @llvm.dbg.declare(metadata %"class.hls::LineBuffer.1"** %3, metadata !16544, metadata !14900), !dbg !16545
  store i32 %1, i32* %4, align 4
  call void @llvm.dbg.declare(metadata i32* %4, metadata !16546, metadata !14900), !dbg !16547
  %11 = load %"class.hls::LineBuffer.1"*, %"class.hls::LineBuffer.1"** %3, align 8
  %12 = load i32, i32* %4, align 4, !dbg !16548
  %13 = icmp sge i32 %12, 0, !dbg !16548
  br i1 %13, label %14, label %17, !dbg !16548

; <label>:14:                                     ; preds = %2
  %15 = load i32, i32* %4, align 4, !dbg !16549
  %16 = icmp slt i32 %15, 1024, !dbg !16549
  br label %17

; <label>:17:                                     ; preds = %14, %2
  %18 = phi i1 [ false, %2 ], [ %16, %14 ]
  br i1 %18, label %19, label %20, !dbg !16551

; <label>:19:                                     ; preds = %17
  br label %22, !dbg !16553

; <label>:20:                                     ; preds = %17
  call void @__assert_fail(i8* getelementptr inbounds ([23 x i8], [23 x i8]* @.str.5, i32 0, i32 0), i8* getelementptr inbounds ([62 x i8], [62 x i8]* @.str.4, i32 0, i32 0), i32 718, i8* getelementptr inbounds ([114 x i8], [114 x i8]* @__PRETTY_FUNCTION__._ZN3hls10LineBufferILi3ELi1024E7outer_tLi0EE15shift_pixels_upEi, i32 0, i32 0)) #11, !dbg !16555
  unreachable, !dbg !16555
                                                  ; No predecessors!
  br label %22, !dbg !16557

; <label>:22:                                     ; preds = %21, %19
  call void @llvm.dbg.declare(metadata %class.ap_uint.5* %5, metadata !16559, metadata !14900), !dbg !16560
  call void @_ZN7ap_uintILi32EEC2Ev(%class.ap_uint.5* %5), !dbg !16560
  invoke void @_ZN7ap_uintILi32EEC2Ei(%class.ap_uint.5* %6, i32 0)
          to label %23 unwind label %54, !dbg !16561

; <label>:23:                                     ; preds = %22
  %24 = invoke dereferenceable(4) %class.ap_uint.5* @_ZN7ap_uintILi32EEaSERKS0_(%class.ap_uint.5* %5, %class.ap_uint.5* dereferenceable(4) %6)
          to label %25 unwind label %58, !dbg !16563

; <label>:25:                                     ; preds = %23
  call void @_ZN7ap_uintILi32EED2Ev(%class.ap_uint.5* %6) #3, !dbg !16565
  br label %26, !dbg !16565

; <label>:26:                                     ; preds = %53, %25
  %27 = bitcast %class.ap_uint.5* %5 to %class.ap_private.6*, !dbg !16567
  %28 = invoke i1 @_ZltILi32ELb0EEbRK10ap_privateIXT_EXT0_EXleT_Li64EEEi(%class.ap_private.6* dereferenceable(4) %27, i32 2)
          to label %29 unwind label %54, !dbg !16570

; <label>:29:                                     ; preds = %26
  br i1 %28, label %30, label %66, !dbg !16571

; <label>:30:                                     ; preds = %29
  %31 = load i32, i32* %4, align 4, !dbg !16573
  %32 = sext i32 %31 to i64, !dbg !16575
  %33 = bitcast %class.ap_uint.5* %5 to %class.ap_private.6*, !dbg !16576
  %34 = invoke i32 @_ZNK10ap_privateILi32ELb0ELb1EEcvjEv(%class.ap_private.6* %33)
          to label %35 unwind label %54, !dbg !16576

; <label>:35:                                     ; preds = %30
  %36 = zext i32 %34 to i64, !dbg !16577
  %37 = getelementptr inbounds %"class.hls::LineBuffer.1", %"class.hls::LineBuffer.1"* %11, i32 0, i32 0, !dbg !16579
  %38 = getelementptr inbounds [3 x [1024 x %struct.outer_t]], [3 x [1024 x %struct.outer_t]]* %37, i64 0, i64 %36, !dbg !16579
  %39 = getelementptr inbounds [1024 x %struct.outer_t], [1024 x %struct.outer_t]* %38, i64 0, i64 %32, !dbg !16579
  %40 = load i32, i32* %4, align 4, !dbg !16580
  %41 = sext i32 %40 to i64, !dbg !16581
  %42 = bitcast %class.ap_uint.5* %5 to %class.ap_private.6*, !dbg !16582
  invoke void @_ZplILi32ELb0EEN10ap_privateIXT_EXT0_EXleT_Li64EEE5RTypeIXLi32EEXLb1EEE4plusERKS1_i(%class.ap_private.7* sret %9, %class.ap_private.6* dereferenceable(4) %42, i32 1)
          to label %43 unwind label %54, !dbg !16583

; <label>:43:                                     ; preds = %35
  %44 = invoke i64 @_ZNK10ap_privateILi34ELb1ELb1EEcvlEv(%class.ap_private.7* %9)
          to label %45 unwind label %62, !dbg !16584

; <label>:45:                                     ; preds = %43
  %46 = getelementptr inbounds %"class.hls::LineBuffer.1", %"class.hls::LineBuffer.1"* %11, i32 0, i32 0, !dbg !16586
  %47 = getelementptr inbounds [3 x [1024 x %struct.outer_t]], [3 x [1024 x %struct.outer_t]]* %46, i64 0, i64 %44, !dbg !16586
  %48 = getelementptr inbounds [1024 x %struct.outer_t], [1024 x %struct.outer_t]* %47, i64 0, i64 %41, !dbg !16586
  %49 = bitcast %struct.outer_t* %39 to i8*, !dbg !16588
  %50 = bitcast %struct.outer_t* %48 to i8*, !dbg !16588
  call void @llvm.memcpy.p0i8.p0i8.i64(i8* %49, i8* %50, i64 24, i32 4, i1 false), !dbg !16588
  call void @_ZN10ap_privateILi34ELb1ELb1EED2Ev(%class.ap_private.7* %9) #3, !dbg !16589
  br label %51, !dbg !16591

; <label>:51:                                     ; preds = %45
  %52 = bitcast %class.ap_uint.5* %5 to %class.ap_private.6*, !dbg !16592
  invoke void @_ZN10ap_privateILi32ELb0ELb1EEppEi(%class.ap_private.6* sret %10, %class.ap_private.6* %52, i32 0)
          to label %53 unwind label %54, !dbg !16592

; <label>:53:                                     ; preds = %51
  call void @_ZN10ap_privateILi32ELb0ELb1EED2Ev(%class.ap_private.6* %10) #3, !dbg !16594
  br label %26, !dbg !16596, !llvm.loop !16597

; <label>:54:                                     ; preds = %51, %35, %30, %26, %22
  %55 = landingpad { i8*, i32 }
          cleanup, !dbg !16599
  %56 = extractvalue { i8*, i32 } %55, 0, !dbg !16599
  store i8* %56, i8** %7, align 8, !dbg !16599
  %57 = extractvalue { i8*, i32 } %55, 1, !dbg !16599
  store i32 %57, i32* %8, align 4, !dbg !16599
  br label %67, !dbg !16599

; <label>:58:                                     ; preds = %23
  %59 = landingpad { i8*, i32 }
          cleanup, !dbg !16600
  %60 = extractvalue { i8*, i32 } %59, 0, !dbg !16600
  store i8* %60, i8** %7, align 8, !dbg !16600
  %61 = extractvalue { i8*, i32 } %59, 1, !dbg !16600
  store i32 %61, i32* %8, align 4, !dbg !16600
  call void @_ZN7ap_uintILi32EED2Ev(%class.ap_uint.5* %6) #3, !dbg !16601
  br label %67, !dbg !16601

; <label>:62:                                     ; preds = %43
  %63 = landingpad { i8*, i32 }
          cleanup, !dbg !16603
  %64 = extractvalue { i8*, i32 } %63, 0, !dbg !16603
  store i8* %64, i8** %7, align 8, !dbg !16603
  %65 = extractvalue { i8*, i32 } %63, 1, !dbg !16603
  store i32 %65, i32* %8, align 4, !dbg !16603
  call void @_ZN10ap_privateILi34ELb1ELb1EED2Ev(%class.ap_private.7* %9) #3, !dbg !16604
  br label %67, !dbg !16604

; <label>:66:                                     ; preds = %29
  call void @_ZN7ap_uintILi32EED2Ev(%class.ap_uint.5* %5) #3, !dbg !16606
  ret void, !dbg !16606

; <label>:67:                                     ; preds = %62, %58, %54
  call void @_ZN7ap_uintILi32EED2Ev(%class.ap_uint.5* %5) #3, !dbg !16607
  br label %68, !dbg !16607

; <label>:68:                                     ; preds = %67
  %69 = load i8*, i8** %7, align 8, !dbg !16608
  %70 = load i32, i32* %8, align 4, !dbg !16608
  %71 = insertvalue { i8*, i32 } undef, i8* %69, 0, !dbg !16608
  %72 = insertvalue { i8*, i32 } %71, i32 %70, 1, !dbg !16608
  resume { i8*, i32 } %72, !dbg !16608
}

; Function Attrs: nounwind
define linkonce_odr void @_ZN3hls10LineBufferILi3ELi1024E7outer_tLi0EE17insert_bottom_rowES1_i(%"class.hls::LineBuffer.1"*, %struct.outer_t*, i32) #7 comdat align 2 !dbg !16609 !xidane.fname !15850 !xidane.function_declaration_type !16610 !xidane.function_declaration_filename !15248 {
  %4 = alloca %"class.hls::LineBuffer.1"*, align 8
  %5 = alloca i32, align 4
  store %"class.hls::LineBuffer.1"* %0, %"class.hls::LineBuffer.1"** %4, align 8
  call void @llvm.dbg.declare(metadata %"class.hls::LineBuffer.1"** %4, metadata !16611, metadata !14900), !dbg !16612
  call void @llvm.dbg.declare(metadata %struct.outer_t* %1, metadata !16613, metadata !16614), !dbg !16615
  store i32 %2, i32* %5, align 4
  call void @llvm.dbg.declare(metadata i32* %5, metadata !16616, metadata !14900), !dbg !16617
  %6 = load %"class.hls::LineBuffer.1"*, %"class.hls::LineBuffer.1"** %4, align 8
  %7 = load i32, i32* %5, align 4, !dbg !16618
  %8 = icmp sge i32 %7, 0, !dbg !16618
  br i1 %8, label %9, label %12, !dbg !16618

; <label>:9:                                      ; preds = %3
  %10 = load i32, i32* %5, align 4, !dbg !16619
  %11 = icmp slt i32 %10, 1024, !dbg !16619
  br label %12

; <label>:12:                                     ; preds = %9, %3
  %13 = phi i1 [ false, %3 ], [ %11, %9 ]
  br i1 %13, label %14, label %15, !dbg !16621

; <label>:14:                                     ; preds = %12
  br label %17, !dbg !16623

; <label>:15:                                     ; preds = %12
  call void @__assert_fail(i8* getelementptr inbounds ([23 x i8], [23 x i8]* @.str.5, i32 0, i32 0), i8* getelementptr inbounds ([62 x i8], [62 x i8]* @.str.4, i32 0, i32 0), i32 757, i8* getelementptr inbounds ([119 x i8], [119 x i8]* @__PRETTY_FUNCTION__._ZN3hls10LineBufferILi3ELi1024E7outer_tLi0EE17insert_bottom_rowES1_i, i32 0, i32 0)) #11, !dbg !16625
  unreachable, !dbg !16625
                                                  ; No predecessors!
  br label %17, !dbg !16627

; <label>:17:                                     ; preds = %16, %14
  %18 = load i32, i32* %5, align 4, !dbg !16629
  %19 = sext i32 %18 to i64, !dbg !16630
  %20 = getelementptr inbounds %"class.hls::LineBuffer.1", %"class.hls::LineBuffer.1"* %6, i32 0, i32 0, !dbg !16630
  %21 = getelementptr inbounds [3 x [1024 x %struct.outer_t]], [3 x [1024 x %struct.outer_t]]* %20, i64 0, i64 2, !dbg !16630
  %22 = getelementptr inbounds [1024 x %struct.outer_t], [1024 x %struct.outer_t]* %21, i64 0, i64 %19, !dbg !16630
  %23 = bitcast %struct.outer_t* %22 to i8*, !dbg !16631
  %24 = bitcast %struct.outer_t* %1 to i8*, !dbg !16631
  call void @llvm.memcpy.p0i8.p0i8.i64(i8* %23, i8* %24, i64 24, i32 4, i1 false), !dbg !16631
  ret void, !dbg !16632
}

; Function Attrs: nounwind
define linkonce_odr dereferenceable(24) %struct.outer_t* @_ZN3hls10LineBufferILi3ELi1024E7outer_tLi0EE6getvalEii(%"class.hls::LineBuffer.1"*, i32, i32) #7 comdat align 2 !dbg !16633 !xidane.fname !15458 !xidane.function_declaration_type !16634 !xidane.function_declaration_filename !15248 {
  %4 = alloca %"class.hls::LineBuffer.1"*, align 8
  %5 = alloca i32, align 4
  %6 = alloca i32, align 4
  store %"class.hls::LineBuffer.1"* %0, %"class.hls::LineBuffer.1"** %4, align 8
  call void @llvm.dbg.declare(metadata %"class.hls::LineBuffer.1"** %4, metadata !16635, metadata !14900), !dbg !16636
  store i32 %1, i32* %5, align 4
  call void @llvm.dbg.declare(metadata i32* %5, metadata !16637, metadata !14900), !dbg !16638
  store i32 %2, i32* %6, align 4
  call void @llvm.dbg.declare(metadata i32* %6, metadata !16639, metadata !14900), !dbg !16640
  %7 = load %"class.hls::LineBuffer.1"*, %"class.hls::LineBuffer.1"** %4, align 8
  %8 = load i32, i32* %5, align 4, !dbg !16641
  %9 = icmp sge i32 %8, 0, !dbg !16641
  br i1 %9, label %10, label %19, !dbg !16641

; <label>:10:                                     ; preds = %3
  %11 = load i32, i32* %5, align 4, !dbg !16642
  %12 = icmp slt i32 %11, 3, !dbg !16642
  br i1 %12, label %13, label %19, !dbg !16642

; <label>:13:                                     ; preds = %10
  %14 = load i32, i32* %6, align 4, !dbg !16644
  %15 = icmp sge i32 %14, 0, !dbg !16644
  br i1 %15, label %16, label %19, !dbg !16644

; <label>:16:                                     ; preds = %13
  %17 = load i32, i32* %6, align 4, !dbg !16646
  %18 = icmp slt i32 %17, 1024, !dbg !16646
  br label %19

; <label>:19:                                     ; preds = %16, %13, %10, %3
  %20 = phi i1 [ false, %13 ], [ false, %10 ], [ false, %3 ], [ %18, %16 ]
  br i1 %20, label %21, label %22, !dbg !16648

; <label>:21:                                     ; preds = %19
  br label %24, !dbg !16650

; <label>:22:                                     ; preds = %19
  call void @__assert_fail(i8* getelementptr inbounds ([49 x i8], [49 x i8]* @.str.3, i32 0, i32 0), i8* getelementptr inbounds ([62 x i8], [62 x i8]* @.str.4, i32 0, i32 0), i32 834, i8* getelementptr inbounds ([108 x i8], [108 x i8]* @__PRETTY_FUNCTION__._ZN3hls10LineBufferILi3ELi1024E7outer_tLi0EE6getvalEii, i32 0, i32 0)) #11, !dbg !16652
  unreachable, !dbg !16652
                                                  ; No predecessors!
  br label %24, !dbg !16654

; <label>:24:                                     ; preds = %23, %21
  %25 = load i32, i32* %6, align 4, !dbg !16656
  %26 = sext i32 %25 to i64, !dbg !16657
  %27 = load i32, i32* %5, align 4, !dbg !16658
  %28 = sext i32 %27 to i64, !dbg !16657
  %29 = getelementptr inbounds %"class.hls::LineBuffer.1", %"class.hls::LineBuffer.1"* %7, i32 0, i32 0, !dbg !16657
  %30 = getelementptr inbounds [3 x [1024 x %struct.outer_t]], [3 x [1024 x %struct.outer_t]]* %29, i64 0, i64 %28, !dbg !16657
  %31 = getelementptr inbounds [1024 x %struct.outer_t], [1024 x %struct.outer_t]* %30, i64 0, i64 %26, !dbg !16657
  ret %struct.outer_t* %31, !dbg !16659
}

define void @_Z15tensor_weight_xPA1024_8tensor_tS1_([1024 x %struct.tensor_t]*, [1024 x %struct.tensor_t]*) #0 !dbg !13317 !xidane.fname !16660 !xidane.function_declaration_type !16661 !xidane.function_declaration_filename !14923 {
  %3 = alloca [1024 x %struct.tensor_t]*, align 8
  %4 = alloca [1024 x %struct.tensor_t]*, align 8
  %5 = alloca %"class.hls::Window.2", align 4
  %6 = alloca i32, align 4
  %7 = alloca i32, align 4
  %8 = alloca %struct.tensor_t, align 4
  %9 = alloca i32, align 4
  %10 = alloca %struct.tensor_t, align 4
  %11 = alloca %struct.tensor_t, align 4
  %12 = alloca i32, align 4
  %13 = alloca i32, align 4
  %14 = alloca i32, align 4
  store [1024 x %struct.tensor_t]* %0, [1024 x %struct.tensor_t]** %3, align 8
  call void @llvm.dbg.declare(metadata [1024 x %struct.tensor_t]** %3, metadata !16662, metadata !14900), !dbg !16663
  store [1024 x %struct.tensor_t]* %1, [1024 x %struct.tensor_t]** %4, align 8
  call void @llvm.dbg.declare(metadata [1024 x %struct.tensor_t]** %4, metadata !16664, metadata !14900), !dbg !16665
  call void @llvm.dbg.declare(metadata %"class.hls::Window.2"* %5, metadata !16666, metadata !14900), !dbg !16711
  call void @_ZN3hls6WindowILi1ELi3E8tensor_tEC2Ev(%"class.hls::Window.2"* %5), !dbg !16711
  br label %15, !dbg !16712

; <label>:15:                                     ; preds = %2
  call void @llvm.dbg.declare(metadata i32* %6, metadata !16713, metadata !14900), !dbg !16715
  store i32 0, i32* %6, align 4, !dbg !16715
  br label %16, !dbg !16716

; <label>:16:                                     ; preds = %130, %15
  %17 = load i32, i32* %6, align 4, !dbg !16717
  %18 = icmp slt i32 %17, 436, !dbg !16720
  br i1 %18, label %19, label %133, !dbg !16721

; <label>:19:                                     ; preds = %16
  br label %20, !dbg !16722

; <label>:20:                                     ; preds = %19
  call void @llvm.dbg.declare(metadata i32* %7, metadata !16723, metadata !14900), !dbg !16726
  store i32 0, i32* %7, align 4, !dbg !16726
  br label %21, !dbg !16727

; <label>:21:                                     ; preds = %126, %20
  %22 = load i32, i32* %7, align 4, !dbg !16728
  %23 = icmp slt i32 %22, 1025, !dbg !16731
  br i1 %23, label %24, label %129, !dbg !16732

; <label>:24:                                     ; preds = %21
  call void @_ZN3hls6WindowILi1ELi3E8tensor_tE17shift_pixels_leftEv(%"class.hls::Window.2"* %5), !dbg !16733
  call void @llvm.dbg.declare(metadata %struct.tensor_t* %8, metadata !16735, metadata !14900), !dbg !16736
  %25 = load i32, i32* %7, align 4, !dbg !16737
  %26 = icmp slt i32 %25, 1024, !dbg !16739
  br i1 %26, label %27, label %37, !dbg !16740

; <label>:27:                                     ; preds = %24
  %28 = load i32, i32* %7, align 4, !dbg !16741
  %29 = sext i32 %28 to i64, !dbg !16743
  %30 = load i32, i32* %6, align 4, !dbg !16744
  %31 = sext i32 %30 to i64, !dbg !16743
  %32 = load [1024 x %struct.tensor_t]*, [1024 x %struct.tensor_t]** %3, align 8, !dbg !16743
  %33 = getelementptr inbounds [1024 x %struct.tensor_t], [1024 x %struct.tensor_t]* %32, i64 %31, !dbg !16743
  %34 = getelementptr inbounds [1024 x %struct.tensor_t], [1024 x %struct.tensor_t]* %33, i64 0, i64 %29, !dbg !16743
  %35 = bitcast %struct.tensor_t* %8 to i8*, !dbg !16745
  %36 = bitcast %struct.tensor_t* %34 to i8*, !dbg !16745
  call void @llvm.memcpy.p0i8.p0i8.i64(i8* %35, i8* %36, i64 24, i32 4, i1 false), !dbg !16745
  br label %51, !dbg !16746

; <label>:37:                                     ; preds = %24
  br label %38, !dbg !16747

; <label>:38:                                     ; preds = %37
  call void @llvm.dbg.declare(metadata i32* %9, metadata !16748, metadata !14900), !dbg !16751
  store i32 0, i32* %9, align 4, !dbg !16751
  br label %39, !dbg !16752

; <label>:39:                                     ; preds = %47, %38
  %40 = load i32, i32* %9, align 4, !dbg !16753
  %41 = icmp slt i32 %40, 6, !dbg !16756
  br i1 %41, label %42, label %50, !dbg !16757

; <label>:42:                                     ; preds = %39
  %43 = load i32, i32* %9, align 4, !dbg !16758
  %44 = sext i32 %43 to i64, !dbg !16759
  %45 = getelementptr inbounds %struct.tensor_t, %struct.tensor_t* %8, i32 0, i32 0, !dbg !16760
  %46 = getelementptr inbounds [6 x float], [6 x float]* %45, i64 0, i64 %44, !dbg !16759
  store float 0.000000e+00, float* %46, align 4, !dbg !16761
  br label %47, !dbg !16759

; <label>:47:                                     ; preds = %42
  %48 = load i32, i32* %9, align 4, !dbg !16762
  %49 = add nsw i32 %48, 1, !dbg !16762
  store i32 %49, i32* %9, align 4, !dbg !16762
  br label %39, !dbg !16764, !llvm.loop !16765

; <label>:50:                                     ; preds = %39
  br label %51

; <label>:51:                                     ; preds = %50, %27
  %52 = bitcast %struct.tensor_t* %10 to i8*, !dbg !16767
  %53 = bitcast %struct.tensor_t* %8 to i8*, !dbg !16767
  call void @llvm.memcpy.p0i8.p0i8.i64(i8* %52, i8* %53, i64 24, i32 4, i1 false), !dbg !16767
  call void @_ZN3hls6WindowILi1ELi3E8tensor_tE12insert_pixelES1_ii(%"class.hls::Window.2"* %5, %struct.tensor_t* %10, i32 0, i32 2), !dbg !16768
  call void @llvm.dbg.declare(metadata %struct.tensor_t* %11, metadata !16770, metadata !14900), !dbg !16771
  br label %54, !dbg !16772

; <label>:54:                                     ; preds = %51
  call void @llvm.dbg.declare(metadata i32* %12, metadata !16773, metadata !14900), !dbg !16775
  store i32 0, i32* %12, align 4, !dbg !16775
  br label %55, !dbg !16776

; <label>:55:                                     ; preds = %63, %54
  %56 = load i32, i32* %12, align 4, !dbg !16777
  %57 = icmp slt i32 %56, 6, !dbg !16780
  br i1 %57, label %58, label %66, !dbg !16781

; <label>:58:                                     ; preds = %55
  %59 = load i32, i32* %12, align 4, !dbg !16782
  %60 = sext i32 %59 to i64, !dbg !16783
  %61 = getelementptr inbounds %struct.tensor_t, %struct.tensor_t* %11, i32 0, i32 0, !dbg !16784
  %62 = getelementptr inbounds [6 x float], [6 x float]* %61, i64 0, i64 %60, !dbg !16783
  store float 0.000000e+00, float* %62, align 4, !dbg !16785
  br label %63, !dbg !16783

; <label>:63:                                     ; preds = %58
  %64 = load i32, i32* %12, align 4, !dbg !16786
  %65 = add nsw i32 %64, 1, !dbg !16786
  store i32 %65, i32* %12, align 4, !dbg !16786
  br label %55, !dbg !16788, !llvm.loop !16789

; <label>:66:                                     ; preds = %55
  %67 = load i32, i32* %7, align 4, !dbg !16791
  %68 = icmp sge i32 %67, 2, !dbg !16793
  br i1 %68, label %69, label %111, !dbg !16794

; <label>:69:                                     ; preds = %66
  %70 = load i32, i32* %7, align 4, !dbg !16795
  %71 = icmp slt i32 %70, 1024, !dbg !16797
  br i1 %71, label %72, label %111, !dbg !16798

; <label>:72:                                     ; preds = %69
  br label %73, !dbg !16799

; <label>:73:                                     ; preds = %72
  call void @llvm.dbg.declare(metadata i32* %13, metadata !16800, metadata !14900), !dbg !16803
  store i32 0, i32* %13, align 4, !dbg !16803
  br label %74, !dbg !16804

; <label>:74:                                     ; preds = %107, %73
  %75 = load i32, i32* %13, align 4, !dbg !16805
  %76 = icmp slt i32 %75, 3, !dbg !16808
  br i1 %76, label %77, label %110, !dbg !16809

; <label>:77:                                     ; preds = %74
  %78 = load i32, i32* %13, align 4, !dbg !16810
  %79 = call dereferenceable(24) %struct.tensor_t* @_ZN3hls6WindowILi1ELi3E8tensor_tE6getvalEii(%"class.hls::Window.2"* %5, i32 0, i32 %78), !dbg !16812
  %80 = bitcast %struct.tensor_t* %8 to i8*, !dbg !16813
  %81 = bitcast %struct.tensor_t* %79 to i8*, !dbg !16813
  call void @llvm.memcpy.p0i8.p0i8.i64(i8* %80, i8* %81, i64 24, i32 4, i1 false), !dbg !16814
  br label %82, !dbg !16816

; <label>:82:                                     ; preds = %77
  call void @llvm.dbg.declare(metadata i32* %14, metadata !16817, metadata !14900), !dbg !16819
  store i32 0, i32* %14, align 4, !dbg !16819
  br label %83, !dbg !16820

; <label>:83:                                     ; preds = %103, %82
  %84 = load i32, i32* %14, align 4, !dbg !16821
  %85 = icmp slt i32 %84, 6, !dbg !16824
  br i1 %85, label %86, label %106, !dbg !16825

; <label>:86:                                     ; preds = %83
  %87 = load i32, i32* %14, align 4, !dbg !16826
  %88 = sext i32 %87 to i64, !dbg !16828
  %89 = getelementptr inbounds %struct.tensor_t, %struct.tensor_t* %8, i32 0, i32 0, !dbg !16829
  %90 = getelementptr inbounds [6 x float], [6 x float]* %89, i64 0, i64 %88, !dbg !16828
  %91 = load float, float* %90, align 4, !dbg !16828
  %92 = load i32, i32* %13, align 4, !dbg !16830
  %93 = sext i32 %92 to i64, !dbg !16831
  %94 = getelementptr inbounds [3 x float], [3 x float]* @_ZZ15tensor_weight_xPA1024_8tensor_tS1_E13TENSOR_FILTER, i64 0, i64 %93, !dbg !16831
  %95 = load float, float* %94, align 4, !dbg !16831
  %96 = fmul float %91, %95, !dbg !16832
  %97 = load i32, i32* %14, align 4, !dbg !16833
  %98 = sext i32 %97 to i64, !dbg !16834
  %99 = getelementptr inbounds %struct.tensor_t, %struct.tensor_t* %11, i32 0, i32 0, !dbg !16835
  %100 = getelementptr inbounds [6 x float], [6 x float]* %99, i64 0, i64 %98, !dbg !16834
  %101 = load float, float* %100, align 4, !dbg !16836
  %102 = fadd float %101, %96, !dbg !16836
  store float %102, float* %100, align 4, !dbg !16836
  br label %103, !dbg !16837

; <label>:103:                                    ; preds = %86
  %104 = load i32, i32* %14, align 4, !dbg !16838
  %105 = add nsw i32 %104, 1, !dbg !16838
  store i32 %105, i32* %14, align 4, !dbg !16838
  br label %83, !dbg !16840, !llvm.loop !16841

; <label>:106:                                    ; preds = %83
  br label %107, !dbg !16843

; <label>:107:                                    ; preds = %106
  %108 = load i32, i32* %13, align 4, !dbg !16844
  %109 = add nsw i32 %108, 1, !dbg !16844
  store i32 %109, i32* %13, align 4, !dbg !16844
  br label %74, !dbg !16846, !llvm.loop !16847

; <label>:110:                                    ; preds = %74
  br label %111, !dbg !16849

; <label>:111:                                    ; preds = %110, %69, %66
  %112 = load i32, i32* %7, align 4, !dbg !16850
  %113 = icmp sge i32 %112, 1, !dbg !16852
  br i1 %113, label %114, label %125, !dbg !16853

; <label>:114:                                    ; preds = %111
  %115 = load i32, i32* %7, align 4, !dbg !16854
  %116 = sub nsw i32 %115, 1, !dbg !16856
  %117 = sext i32 %116 to i64, !dbg !16857
  %118 = load i32, i32* %6, align 4, !dbg !16858
  %119 = sext i32 %118 to i64, !dbg !16857
  %120 = load [1024 x %struct.tensor_t]*, [1024 x %struct.tensor_t]** %4, align 8, !dbg !16857
  %121 = getelementptr inbounds [1024 x %struct.tensor_t], [1024 x %struct.tensor_t]* %120, i64 %119, !dbg !16857
  %122 = getelementptr inbounds [1024 x %struct.tensor_t], [1024 x %struct.tensor_t]* %121, i64 0, i64 %117, !dbg !16857
  %123 = bitcast %struct.tensor_t* %122 to i8*, !dbg !16859
  %124 = bitcast %struct.tensor_t* %11 to i8*, !dbg !16859
  call void @llvm.memcpy.p0i8.p0i8.i64(i8* %123, i8* %124, i64 24, i32 4, i1 false), !dbg !16859
  br label %125, !dbg !16860

; <label>:125:                                    ; preds = %114, %111
  br label %126, !dbg !16861

; <label>:126:                                    ; preds = %125
  %127 = load i32, i32* %7, align 4, !dbg !16862
  %128 = add nsw i32 %127, 1, !dbg !16862
  store i32 %128, i32* %7, align 4, !dbg !16862
  br label %21, !dbg !16864, !llvm.loop !16865

; <label>:129:                                    ; preds = %21
  br label %130, !dbg !16867

; <label>:130:                                    ; preds = %129
  %131 = load i32, i32* %6, align 4, !dbg !16868
  %132 = add nsw i32 %131, 1, !dbg !16868
  store i32 %132, i32* %6, align 4, !dbg !16868
  br label %16, !dbg !16870, !llvm.loop !16871

; <label>:133:                                    ; preds = %16
  ret void, !dbg !16873
}

; Function Attrs: nounwind
define linkonce_odr void @_ZN3hls6WindowILi1ELi3E8tensor_tEC2Ev(%"class.hls::Window.2"*) unnamed_addr #7 comdat align 2 !dbg !16874 !xidane.fname !15247 !xidane.function_declaration_type !14874 !xidane.function_declaration_filename !15248 {
  %2 = alloca %"class.hls::Window.2"*, align 8
  store %"class.hls::Window.2"* %0, %"class.hls::Window.2"** %2, align 8
  call void @llvm.dbg.declare(metadata %"class.hls::Window.2"** %2, metadata !16875, metadata !14900), !dbg !16877
  %3 = load %"class.hls::Window.2"*, %"class.hls::Window.2"** %2, align 8
  %4 = getelementptr inbounds %"class.hls::Window.2", %"class.hls::Window.2"* %3, i32 0, i32 0, !dbg !16878
  ret void, !dbg !16879
}

define linkonce_odr void @_ZN3hls6WindowILi1ELi3E8tensor_tE17shift_pixels_leftEv(%"class.hls::Window.2"*) #0 comdat align 2 personality i8* bitcast (i32 (...)* @__gxx_personality_v0 to i8*) !dbg !16880 !xidane.fname !15254 !xidane.function_declaration_type !14874 !xidane.function_declaration_filename !15248 {
  %2 = alloca %"class.hls::Window.2"*, align 8
  %3 = alloca %class.ap_uint.5, align 4
  %4 = alloca %class.ap_uint.5, align 4
  %5 = alloca i8*
  %6 = alloca i32
  %7 = alloca %class.ap_uint.5, align 4
  %8 = alloca %class.ap_uint.5, align 4
  %9 = alloca %class.ap_private.7, align 8
  %10 = alloca %class.ap_private.6, align 4
  %11 = alloca %class.ap_private.6, align 4
  store %"class.hls::Window.2"* %0, %"class.hls::Window.2"** %2, align 8
  call void @llvm.dbg.declare(metadata %"class.hls::Window.2"** %2, metadata !16881, metadata !14900), !dbg !16882
  %12 = load %"class.hls::Window.2"*, %"class.hls::Window.2"** %2, align 8
  call void @llvm.dbg.declare(metadata %class.ap_uint.5* %3, metadata !16883, metadata !14900), !dbg !16884
  call void @_ZN7ap_uintILi32EEC2Ev(%class.ap_uint.5* %3), !dbg !16884
  call void @llvm.dbg.declare(metadata %class.ap_uint.5* %4, metadata !16885, metadata !14900), !dbg !16886
  invoke void @_ZN7ap_uintILi32EEC2Ev(%class.ap_uint.5* %4)
          to label %13 unwind label %57, !dbg !16886

; <label>:13:                                     ; preds = %1
  invoke void @_ZN7ap_uintILi32EEC2Ei(%class.ap_uint.5* %7, i32 0)
          to label %14 unwind label %61, !dbg !16887

; <label>:14:                                     ; preds = %13
  %15 = invoke dereferenceable(4) %class.ap_uint.5* @_ZN7ap_uintILi32EEaSERKS0_(%class.ap_uint.5* %3, %class.ap_uint.5* dereferenceable(4) %7)
          to label %16 unwind label %65, !dbg !16889

; <label>:16:                                     ; preds = %14
  call void @_ZN7ap_uintILi32EED2Ev(%class.ap_uint.5* %7) #3, !dbg !16891
  br label %17, !dbg !16891

; <label>:17:                                     ; preds = %80, %16
  %18 = bitcast %class.ap_uint.5* %3 to %class.ap_private.6*, !dbg !16893
  %19 = invoke i1 @_ZltILi32ELb0EEbRK10ap_privateIXT_EXT0_EXleT_Li64EEEi(%class.ap_private.6* dereferenceable(4) %18, i32 1)
          to label %20 unwind label %61, !dbg !16896

; <label>:20:                                     ; preds = %17
  br i1 %19, label %21, label %81, !dbg !16897

; <label>:21:                                     ; preds = %20
  invoke void @_ZN7ap_uintILi32EEC2Ei(%class.ap_uint.5* %8, i32 0)
          to label %22 unwind label %61, !dbg !16899

; <label>:22:                                     ; preds = %21
  %23 = invoke dereferenceable(4) %class.ap_uint.5* @_ZN7ap_uintILi32EEaSERKS0_(%class.ap_uint.5* %4, %class.ap_uint.5* dereferenceable(4) %8)
          to label %24 unwind label %69, !dbg !16902

; <label>:24:                                     ; preds = %22
  call void @_ZN7ap_uintILi32EED2Ev(%class.ap_uint.5* %8) #3, !dbg !16904
  br label %25, !dbg !16904

; <label>:25:                                     ; preds = %56, %24
  %26 = bitcast %class.ap_uint.5* %4 to %class.ap_private.6*, !dbg !16906
  %27 = invoke i1 @_ZltILi32ELb0EEbRK10ap_privateIXT_EXT0_EXleT_Li64EEEi(%class.ap_private.6* dereferenceable(4) %26, i32 2)
          to label %28 unwind label %61, !dbg !16909

; <label>:28:                                     ; preds = %25
  br i1 %27, label %29, label %77, !dbg !16910

; <label>:29:                                     ; preds = %28
  %30 = bitcast %class.ap_uint.5* %4 to %class.ap_private.6*, !dbg !16912
  %31 = invoke i32 @_ZNK10ap_privateILi32ELb0ELb1EEcvjEv(%class.ap_private.6* %30)
          to label %32 unwind label %61, !dbg !16912

; <label>:32:                                     ; preds = %29
  %33 = zext i32 %31 to i64, !dbg !16914
  %34 = bitcast %class.ap_uint.5* %3 to %class.ap_private.6*, !dbg !16916
  %35 = invoke i32 @_ZNK10ap_privateILi32ELb0ELb1EEcvjEv(%class.ap_private.6* %34)
          to label %36 unwind label %61, !dbg !16916

; <label>:36:                                     ; preds = %32
  %37 = zext i32 %35 to i64, !dbg !16917
  %38 = getelementptr inbounds %"class.hls::Window.2", %"class.hls::Window.2"* %12, i32 0, i32 0, !dbg !16919
  %39 = getelementptr inbounds [1 x [3 x %struct.tensor_t]], [1 x [3 x %struct.tensor_t]]* %38, i64 0, i64 %37, !dbg !16919
  %40 = getelementptr inbounds [3 x %struct.tensor_t], [3 x %struct.tensor_t]* %39, i64 0, i64 %33, !dbg !16919
  %41 = bitcast %class.ap_uint.5* %4 to %class.ap_private.6*, !dbg !16920
  invoke void @_ZplILi32ELb0EEN10ap_privateIXT_EXT0_EXleT_Li64EEE5RTypeIXLi32EEXLb1EEE4plusERKS1_i(%class.ap_private.7* sret %9, %class.ap_private.6* dereferenceable(4) %41, i32 1)
          to label %42 unwind label %61, !dbg !16921

; <label>:42:                                     ; preds = %36
  %43 = invoke i64 @_ZNK10ap_privateILi34ELb1ELb1EEcvlEv(%class.ap_private.7* %9)
          to label %44 unwind label %73, !dbg !16922

; <label>:44:                                     ; preds = %42
  %45 = bitcast %class.ap_uint.5* %3 to %class.ap_private.6*, !dbg !16924
  %46 = invoke i32 @_ZNK10ap_privateILi32ELb0ELb1EEcvjEv(%class.ap_private.6* %45)
          to label %47 unwind label %73, !dbg !16924

; <label>:47:                                     ; preds = %44
  %48 = zext i32 %46 to i64, !dbg !16926
  %49 = getelementptr inbounds %"class.hls::Window.2", %"class.hls::Window.2"* %12, i32 0, i32 0, !dbg !16928
  %50 = getelementptr inbounds [1 x [3 x %struct.tensor_t]], [1 x [3 x %struct.tensor_t]]* %49, i64 0, i64 %48, !dbg !16928
  %51 = getelementptr inbounds [3 x %struct.tensor_t], [3 x %struct.tensor_t]* %50, i64 0, i64 %43, !dbg !16928
  %52 = bitcast %struct.tensor_t* %40 to i8*, !dbg !16929
  %53 = bitcast %struct.tensor_t* %51 to i8*, !dbg !16929
  call void @llvm.memcpy.p0i8.p0i8.i64(i8* %52, i8* %53, i64 24, i32 4, i1 false), !dbg !16929
  call void @_ZN10ap_privateILi34ELb1ELb1EED2Ev(%class.ap_private.7* %9) #3, !dbg !16930
  br label %54, !dbg !16932

; <label>:54:                                     ; preds = %47
  %55 = bitcast %class.ap_uint.5* %4 to %class.ap_private.6*, !dbg !16933
  invoke void @_ZN10ap_privateILi32ELb0ELb1EEppEi(%class.ap_private.6* sret %10, %class.ap_private.6* %55, i32 0)
          to label %56 unwind label %61, !dbg !16933

; <label>:56:                                     ; preds = %54
  call void @_ZN10ap_privateILi32ELb0ELb1EED2Ev(%class.ap_private.6* %10) #3, !dbg !16935
  br label %25, !dbg !16937, !llvm.loop !16938

; <label>:57:                                     ; preds = %1
  %58 = landingpad { i8*, i32 }
          cleanup, !dbg !16940
  %59 = extractvalue { i8*, i32 } %58, 0, !dbg !16940
  store i8* %59, i8** %5, align 8, !dbg !16940
  %60 = extractvalue { i8*, i32 } %58, 1, !dbg !16940
  store i32 %60, i32* %6, align 4, !dbg !16940
  br label %83, !dbg !16940

; <label>:61:                                     ; preds = %78, %54, %36, %32, %29, %25, %21, %17, %13
  %62 = landingpad { i8*, i32 }
          cleanup, !dbg !16941
  %63 = extractvalue { i8*, i32 } %62, 0, !dbg !16941
  store i8* %63, i8** %5, align 8, !dbg !16941
  %64 = extractvalue { i8*, i32 } %62, 1, !dbg !16941
  store i32 %64, i32* %6, align 4, !dbg !16941
  br label %82, !dbg !16941

; <label>:65:                                     ; preds = %14
  %66 = landingpad { i8*, i32 }
          cleanup, !dbg !16942
  %67 = extractvalue { i8*, i32 } %66, 0, !dbg !16942
  store i8* %67, i8** %5, align 8, !dbg !16942
  %68 = extractvalue { i8*, i32 } %66, 1, !dbg !16942
  store i32 %68, i32* %6, align 4, !dbg !16942
  call void @_ZN7ap_uintILi32EED2Ev(%class.ap_uint.5* %7) #3, !dbg !16943
  br label %82, !dbg !16943

; <label>:69:                                     ; preds = %22
  %70 = landingpad { i8*, i32 }
          cleanup, !dbg !16945
  %71 = extractvalue { i8*, i32 } %70, 0, !dbg !16945
  store i8* %71, i8** %5, align 8, !dbg !16945
  %72 = extractvalue { i8*, i32 } %70, 1, !dbg !16945
  store i32 %72, i32* %6, align 4, !dbg !16945
  call void @_ZN7ap_uintILi32EED2Ev(%class.ap_uint.5* %8) #3, !dbg !16947
  br label %82, !dbg !16947

; <label>:73:                                     ; preds = %44, %42
  %74 = landingpad { i8*, i32 }
          cleanup, !dbg !16949
  %75 = extractvalue { i8*, i32 } %74, 0, !dbg !16949
  store i8* %75, i8** %5, align 8, !dbg !16949
  %76 = extractvalue { i8*, i32 } %74, 1, !dbg !16949
  store i32 %76, i32* %6, align 4, !dbg !16949
  call void @_ZN10ap_privateILi34ELb1ELb1EED2Ev(%class.ap_private.7* %9) #3, !dbg !16950
  br label %82, !dbg !16950

; <label>:77:                                     ; preds = %28
  br label %78, !dbg !16952

; <label>:78:                                     ; preds = %77
  %79 = bitcast %class.ap_uint.5* %3 to %class.ap_private.6*, !dbg !16953
  invoke void @_ZN10ap_privateILi32ELb0ELb1EEppEi(%class.ap_private.6* sret %11, %class.ap_private.6* %79, i32 0)
          to label %80 unwind label %61, !dbg !16953

; <label>:80:                                     ; preds = %78
  call void @_ZN10ap_privateILi32ELb0ELb1EED2Ev(%class.ap_private.6* %11) #3, !dbg !16955
  br label %17, !dbg !16957, !llvm.loop !16958

; <label>:81:                                     ; preds = %20
  call void @_ZN7ap_uintILi32EED2Ev(%class.ap_uint.5* %4) #3, !dbg !16960
  call void @_ZN7ap_uintILi32EED2Ev(%class.ap_uint.5* %3) #3, !dbg !16962
  ret void, !dbg !16960

; <label>:82:                                     ; preds = %73, %69, %65, %61
  call void @_ZN7ap_uintILi32EED2Ev(%class.ap_uint.5* %4) #3, !dbg !16964
  br label %83, !dbg !16964

; <label>:83:                                     ; preds = %82, %57
  call void @_ZN7ap_uintILi32EED2Ev(%class.ap_uint.5* %3) #3, !dbg !16966
  br label %84, !dbg !16966

; <label>:84:                                     ; preds = %83
  %85 = load i8*, i8** %5, align 8, !dbg !16968
  %86 = load i32, i32* %6, align 4, !dbg !16968
  %87 = insertvalue { i8*, i32 } undef, i8* %85, 0, !dbg !16968
  %88 = insertvalue { i8*, i32 } %87, i32 %86, 1, !dbg !16968
  resume { i8*, i32 } %88, !dbg !16968
}

; Function Attrs: nounwind
define linkonce_odr void @_ZN3hls6WindowILi1ELi3E8tensor_tE12insert_pixelES1_ii(%"class.hls::Window.2"*, %struct.tensor_t*, i32, i32) #7 comdat align 2 !dbg !16970 !xidane.fname !15426 !xidane.function_declaration_type !16971 !xidane.function_declaration_filename !15248 {
  %5 = alloca %"class.hls::Window.2"*, align 8
  %6 = alloca i32, align 4
  %7 = alloca i32, align 4
  store %"class.hls::Window.2"* %0, %"class.hls::Window.2"** %5, align 8
  call void @llvm.dbg.declare(metadata %"class.hls::Window.2"** %5, metadata !16972, metadata !14900), !dbg !16973
  call void @llvm.dbg.declare(metadata %struct.tensor_t* %1, metadata !16974, metadata !16614), !dbg !16975
  store i32 %2, i32* %6, align 4
  call void @llvm.dbg.declare(metadata i32* %6, metadata !16976, metadata !14900), !dbg !16977
  store i32 %3, i32* %7, align 4
  call void @llvm.dbg.declare(metadata i32* %7, metadata !16978, metadata !14900), !dbg !16979
  %8 = load %"class.hls::Window.2"*, %"class.hls::Window.2"** %5, align 8
  %9 = load i32, i32* %6, align 4, !dbg !16980
  %10 = icmp sge i32 %9, 0, !dbg !16980
  br i1 %10, label %11, label %20, !dbg !16980

; <label>:11:                                     ; preds = %4
  %12 = load i32, i32* %6, align 4, !dbg !16981
  %13 = icmp slt i32 %12, 1, !dbg !16981
  br i1 %13, label %14, label %20, !dbg !16981

; <label>:14:                                     ; preds = %11
  %15 = load i32, i32* %7, align 4, !dbg !16983
  %16 = icmp sge i32 %15, 0, !dbg !16983
  br i1 %16, label %17, label %20, !dbg !16983

; <label>:17:                                     ; preds = %14
  %18 = load i32, i32* %7, align 4, !dbg !16985
  %19 = icmp slt i32 %18, 3, !dbg !16985
  br label %20

; <label>:20:                                     ; preds = %17, %14, %11, %4
  %21 = phi i1 [ false, %14 ], [ false, %11 ], [ false, %4 ], [ %19, %17 ]
  br i1 %21, label %22, label %23, !dbg !16987

; <label>:22:                                     ; preds = %20
  br label %25, !dbg !16989

; <label>:23:                                     ; preds = %20
  call void @__assert_fail(i8* getelementptr inbounds ([49 x i8], [49 x i8]* @.str.3, i32 0, i32 0), i8* getelementptr inbounds ([62 x i8], [62 x i8]* @.str.4, i32 0, i32 0), i32 266, i8* getelementptr inbounds ([95 x i8], [95 x i8]* @__PRETTY_FUNCTION__._ZN3hls6WindowILi1ELi3E8tensor_tE12insert_pixelES1_ii, i32 0, i32 0)) #11, !dbg !16991
  unreachable, !dbg !16991
                                                  ; No predecessors!
  br label %25, !dbg !16993

; <label>:25:                                     ; preds = %24, %22
  %26 = load i32, i32* %7, align 4, !dbg !16995
  %27 = sext i32 %26 to i64, !dbg !16996
  %28 = load i32, i32* %6, align 4, !dbg !16997
  %29 = sext i32 %28 to i64, !dbg !16996
  %30 = getelementptr inbounds %"class.hls::Window.2", %"class.hls::Window.2"* %8, i32 0, i32 0, !dbg !16996
  %31 = getelementptr inbounds [1 x [3 x %struct.tensor_t]], [1 x [3 x %struct.tensor_t]]* %30, i64 0, i64 %29, !dbg !16996
  %32 = getelementptr inbounds [3 x %struct.tensor_t], [3 x %struct.tensor_t]* %31, i64 0, i64 %27, !dbg !16996
  %33 = bitcast %struct.tensor_t* %32 to i8*, !dbg !16998
  %34 = bitcast %struct.tensor_t* %1 to i8*, !dbg !16998
  call void @llvm.memcpy.p0i8.p0i8.i64(i8* %33, i8* %34, i64 24, i32 4, i1 false), !dbg !16998
  ret void, !dbg !16999
}

; Function Attrs: nounwind
define linkonce_odr dereferenceable(24) %struct.tensor_t* @_ZN3hls6WindowILi1ELi3E8tensor_tE6getvalEii(%"class.hls::Window.2"*, i32, i32) #7 comdat align 2 !dbg !17000 !xidane.fname !15458 !xidane.function_declaration_type !17001 !xidane.function_declaration_filename !15248 {
  %4 = alloca %"class.hls::Window.2"*, align 8
  %5 = alloca i32, align 4
  %6 = alloca i32, align 4
  store %"class.hls::Window.2"* %0, %"class.hls::Window.2"** %4, align 8
  call void @llvm.dbg.declare(metadata %"class.hls::Window.2"** %4, metadata !17002, metadata !14900), !dbg !17003
  store i32 %1, i32* %5, align 4
  call void @llvm.dbg.declare(metadata i32* %5, metadata !17004, metadata !14900), !dbg !17005
  store i32 %2, i32* %6, align 4
  call void @llvm.dbg.declare(metadata i32* %6, metadata !17006, metadata !14900), !dbg !17007
  %7 = load %"class.hls::Window.2"*, %"class.hls::Window.2"** %4, align 8
  %8 = load i32, i32* %5, align 4, !dbg !17008
  %9 = icmp sge i32 %8, 0, !dbg !17008
  br i1 %9, label %10, label %19, !dbg !17008

; <label>:10:                                     ; preds = %3
  %11 = load i32, i32* %5, align 4, !dbg !17009
  %12 = icmp slt i32 %11, 1, !dbg !17009
  br i1 %12, label %13, label %19, !dbg !17009

; <label>:13:                                     ; preds = %10
  %14 = load i32, i32* %6, align 4, !dbg !17011
  %15 = icmp sge i32 %14, 0, !dbg !17011
  br i1 %15, label %16, label %19, !dbg !17011

; <label>:16:                                     ; preds = %13
  %17 = load i32, i32* %6, align 4, !dbg !17013
  %18 = icmp slt i32 %17, 3, !dbg !17013
  br label %19

; <label>:19:                                     ; preds = %16, %13, %10, %3
  %20 = phi i1 [ false, %13 ], [ false, %10 ], [ false, %3 ], [ %18, %16 ]
  br i1 %20, label %21, label %22, !dbg !17015

; <label>:21:                                     ; preds = %19
  br label %24, !dbg !17017

; <label>:22:                                     ; preds = %19
  call void @__assert_fail(i8* getelementptr inbounds ([49 x i8], [49 x i8]* @.str.3, i32 0, i32 0), i8* getelementptr inbounds ([62 x i8], [62 x i8]* @.str.4, i32 0, i32 0), i32 492, i8* getelementptr inbounds ([84 x i8], [84 x i8]* @__PRETTY_FUNCTION__._ZN3hls6WindowILi1ELi3E8tensor_tE6getvalEii, i32 0, i32 0)) #11, !dbg !17019
  unreachable, !dbg !17019
                                                  ; No predecessors!
  br label %24, !dbg !17021

; <label>:24:                                     ; preds = %23, %21
  %25 = load i32, i32* %6, align 4, !dbg !17023
  %26 = sext i32 %25 to i64, !dbg !17024
  %27 = load i32, i32* %5, align 4, !dbg !17025
  %28 = sext i32 %27 to i64, !dbg !17024
  %29 = getelementptr inbounds %"class.hls::Window.2", %"class.hls::Window.2"* %7, i32 0, i32 0, !dbg !17024
  %30 = getelementptr inbounds [1 x [3 x %struct.tensor_t]], [1 x [3 x %struct.tensor_t]]* %29, i64 0, i64 %28, !dbg !17024
  %31 = getelementptr inbounds [3 x %struct.tensor_t], [3 x %struct.tensor_t]* %30, i64 0, i64 %26, !dbg !17024
  ret %struct.tensor_t* %31, !dbg !17026
}

; Function Attrs: nounwind
define void @_Z9flow_calcPA1024_8tensor_tPA1024_10velocity_t([1024 x %struct.tensor_t]*, [1024 x %struct.velocity_t]*) #7 !dbg !13321 !xidane.fname !17027 !xidane.function_declaration_type !17028 !xidane.function_declaration_filename !14923 {
  %3 = alloca [1024 x %struct.tensor_t]*, align 8
  %4 = alloca [1024 x %struct.velocity_t]*, align 8
  %5 = alloca i32, align 4
  %6 = alloca i32, align 4
  %7 = alloca float, align 4
  store [1024 x %struct.tensor_t]* %0, [1024 x %struct.tensor_t]** %3, align 8
  call void @llvm.dbg.declare(metadata [1024 x %struct.tensor_t]** %3, metadata !17029, metadata !14900), !dbg !17030
  store [1024 x %struct.velocity_t]* %1, [1024 x %struct.velocity_t]** %4, align 8
  call void @llvm.dbg.declare(metadata [1024 x %struct.velocity_t]** %4, metadata !17031, metadata !14900), !dbg !17032
  br label %8, !dbg !17033

; <label>:8:                                      ; preds = %2
  call void @llvm.dbg.declare(metadata i32* %5, metadata !17034, metadata !14900), !dbg !17036
  store i32 0, i32* %5, align 4, !dbg !17036
  br label %9, !dbg !17037

; <label>:9:                                      ; preds = %187, %8
  %10 = load i32, i32* %5, align 4, !dbg !17038
  %11 = icmp slt i32 %10, 436, !dbg !17041
  br i1 %11, label %12, label %190, !dbg !17042

; <label>:12:                                     ; preds = %9
  br label %13, !dbg !17043

; <label>:13:                                     ; preds = %12
  call void @llvm.dbg.declare(metadata i32* %6, metadata !17044, metadata !14900), !dbg !17047
  store i32 0, i32* %6, align 4, !dbg !17047
  br label %14, !dbg !17048

; <label>:14:                                     ; preds = %183, %13
  %15 = load i32, i32* %6, align 4, !dbg !17049
  %16 = icmp slt i32 %15, 1024, !dbg !17052
  br i1 %16, label %17, label %186, !dbg !17053

; <label>:17:                                     ; preds = %14
  %18 = load i32, i32* %5, align 4, !dbg !17054
  %19 = icmp sge i32 %18, 2, !dbg !17057
  br i1 %19, label %20, label %163, !dbg !17058

; <label>:20:                                     ; preds = %17
  %21 = load i32, i32* %5, align 4, !dbg !17059
  %22 = icmp slt i32 %21, 434, !dbg !17061
  br i1 %22, label %23, label %163, !dbg !17062

; <label>:23:                                     ; preds = %20
  %24 = load i32, i32* %6, align 4, !dbg !17063
  %25 = icmp sge i32 %24, 2, !dbg !17065
  br i1 %25, label %26, label %163, !dbg !17066

; <label>:26:                                     ; preds = %23
  %27 = load i32, i32* %6, align 4, !dbg !17067
  %28 = icmp slt i32 %27, 1022, !dbg !17069
  br i1 %28, label %29, label %163, !dbg !17070

; <label>:29:                                     ; preds = %26
  call void @llvm.dbg.declare(metadata float* %7, metadata !17071, metadata !14900), !dbg !17073
  %30 = load i32, i32* %6, align 4, !dbg !17074
  %31 = sext i32 %30 to i64, !dbg !17075
  %32 = load i32, i32* %5, align 4, !dbg !17076
  %33 = sext i32 %32 to i64, !dbg !17075
  %34 = load [1024 x %struct.tensor_t]*, [1024 x %struct.tensor_t]** %3, align 8, !dbg !17075
  %35 = getelementptr inbounds [1024 x %struct.tensor_t], [1024 x %struct.tensor_t]* %34, i64 %33, !dbg !17075
  %36 = getelementptr inbounds [1024 x %struct.tensor_t], [1024 x %struct.tensor_t]* %35, i64 0, i64 %31, !dbg !17075
  %37 = getelementptr inbounds %struct.tensor_t, %struct.tensor_t* %36, i32 0, i32 0, !dbg !17077
  %38 = getelementptr inbounds [6 x float], [6 x float]* %37, i64 0, i64 0, !dbg !17075
  %39 = load float, float* %38, align 4, !dbg !17075
  %40 = load i32, i32* %6, align 4, !dbg !17078
  %41 = sext i32 %40 to i64, !dbg !17079
  %42 = load i32, i32* %5, align 4, !dbg !17080
  %43 = sext i32 %42 to i64, !dbg !17079
  %44 = load [1024 x %struct.tensor_t]*, [1024 x %struct.tensor_t]** %3, align 8, !dbg !17079
  %45 = getelementptr inbounds [1024 x %struct.tensor_t], [1024 x %struct.tensor_t]* %44, i64 %43, !dbg !17079
  %46 = getelementptr inbounds [1024 x %struct.tensor_t], [1024 x %struct.tensor_t]* %45, i64 0, i64 %41, !dbg !17079
  %47 = getelementptr inbounds %struct.tensor_t, %struct.tensor_t* %46, i32 0, i32 0, !dbg !17081
  %48 = getelementptr inbounds [6 x float], [6 x float]* %47, i64 0, i64 1, !dbg !17079
  %49 = load float, float* %48, align 4, !dbg !17079
  %50 = fmul float %39, %49, !dbg !17082
  %51 = load i32, i32* %6, align 4, !dbg !17083
  %52 = sext i32 %51 to i64, !dbg !17084
  %53 = load i32, i32* %5, align 4, !dbg !17085
  %54 = sext i32 %53 to i64, !dbg !17084
  %55 = load [1024 x %struct.tensor_t]*, [1024 x %struct.tensor_t]** %3, align 8, !dbg !17084
  %56 = getelementptr inbounds [1024 x %struct.tensor_t], [1024 x %struct.tensor_t]* %55, i64 %54, !dbg !17084
  %57 = getelementptr inbounds [1024 x %struct.tensor_t], [1024 x %struct.tensor_t]* %56, i64 0, i64 %52, !dbg !17084
  %58 = getelementptr inbounds %struct.tensor_t, %struct.tensor_t* %57, i32 0, i32 0, !dbg !17086
  %59 = getelementptr inbounds [6 x float], [6 x float]* %58, i64 0, i64 3, !dbg !17084
  %60 = load float, float* %59, align 4, !dbg !17084
  %61 = load i32, i32* %6, align 4, !dbg !17087
  %62 = sext i32 %61 to i64, !dbg !17088
  %63 = load i32, i32* %5, align 4, !dbg !17089
  %64 = sext i32 %63 to i64, !dbg !17088
  %65 = load [1024 x %struct.tensor_t]*, [1024 x %struct.tensor_t]** %3, align 8, !dbg !17088
  %66 = getelementptr inbounds [1024 x %struct.tensor_t], [1024 x %struct.tensor_t]* %65, i64 %64, !dbg !17088
  %67 = getelementptr inbounds [1024 x %struct.tensor_t], [1024 x %struct.tensor_t]* %66, i64 0, i64 %62, !dbg !17088
  %68 = getelementptr inbounds %struct.tensor_t, %struct.tensor_t* %67, i32 0, i32 0, !dbg !17090
  %69 = getelementptr inbounds [6 x float], [6 x float]* %68, i64 0, i64 3, !dbg !17088
  %70 = load float, float* %69, align 4, !dbg !17088
  %71 = fmul float %60, %70, !dbg !17091
  %72 = fsub float %50, %71, !dbg !17092
  store float %72, float* %7, align 4, !dbg !17073
  %73 = load i32, i32* %6, align 4, !dbg !17093
  %74 = sext i32 %73 to i64, !dbg !17094
  %75 = load i32, i32* %5, align 4, !dbg !17095
  %76 = sext i32 %75 to i64, !dbg !17094
  %77 = load [1024 x %struct.tensor_t]*, [1024 x %struct.tensor_t]** %3, align 8, !dbg !17094
  %78 = getelementptr inbounds [1024 x %struct.tensor_t], [1024 x %struct.tensor_t]* %77, i64 %76, !dbg !17094
  %79 = getelementptr inbounds [1024 x %struct.tensor_t], [1024 x %struct.tensor_t]* %78, i64 0, i64 %74, !dbg !17094
  %80 = getelementptr inbounds %struct.tensor_t, %struct.tensor_t* %79, i32 0, i32 0, !dbg !17096
  %81 = getelementptr inbounds [6 x float], [6 x float]* %80, i64 0, i64 5, !dbg !17094
  %82 = load float, float* %81, align 4, !dbg !17094
  %83 = load i32, i32* %6, align 4, !dbg !17097
  %84 = sext i32 %83 to i64, !dbg !17098
  %85 = load i32, i32* %5, align 4, !dbg !17099
  %86 = sext i32 %85 to i64, !dbg !17098
  %87 = load [1024 x %struct.tensor_t]*, [1024 x %struct.tensor_t]** %3, align 8, !dbg !17098
  %88 = getelementptr inbounds [1024 x %struct.tensor_t], [1024 x %struct.tensor_t]* %87, i64 %86, !dbg !17098
  %89 = getelementptr inbounds [1024 x %struct.tensor_t], [1024 x %struct.tensor_t]* %88, i64 0, i64 %84, !dbg !17098
  %90 = getelementptr inbounds %struct.tensor_t, %struct.tensor_t* %89, i32 0, i32 0, !dbg !17100
  %91 = getelementptr inbounds [6 x float], [6 x float]* %90, i64 0, i64 3, !dbg !17098
  %92 = load float, float* %91, align 4, !dbg !17098
  %93 = fmul float %82, %92, !dbg !17101
  %94 = load i32, i32* %6, align 4, !dbg !17102
  %95 = sext i32 %94 to i64, !dbg !17103
  %96 = load i32, i32* %5, align 4, !dbg !17104
  %97 = sext i32 %96 to i64, !dbg !17103
  %98 = load [1024 x %struct.tensor_t]*, [1024 x %struct.tensor_t]** %3, align 8, !dbg !17103
  %99 = getelementptr inbounds [1024 x %struct.tensor_t], [1024 x %struct.tensor_t]* %98, i64 %97, !dbg !17103
  %100 = getelementptr inbounds [1024 x %struct.tensor_t], [1024 x %struct.tensor_t]* %99, i64 0, i64 %95, !dbg !17103
  %101 = getelementptr inbounds %struct.tensor_t, %struct.tensor_t* %100, i32 0, i32 0, !dbg !17105
  %102 = getelementptr inbounds [6 x float], [6 x float]* %101, i64 0, i64 4, !dbg !17103
  %103 = load float, float* %102, align 4, !dbg !17103
  %104 = load i32, i32* %6, align 4, !dbg !17106
  %105 = sext i32 %104 to i64, !dbg !17107
  %106 = load i32, i32* %5, align 4, !dbg !17108
  %107 = sext i32 %106 to i64, !dbg !17107
  %108 = load [1024 x %struct.tensor_t]*, [1024 x %struct.tensor_t]** %3, align 8, !dbg !17107
  %109 = getelementptr inbounds [1024 x %struct.tensor_t], [1024 x %struct.tensor_t]* %108, i64 %107, !dbg !17107
  %110 = getelementptr inbounds [1024 x %struct.tensor_t], [1024 x %struct.tensor_t]* %109, i64 0, i64 %105, !dbg !17107
  %111 = getelementptr inbounds %struct.tensor_t, %struct.tensor_t* %110, i32 0, i32 0, !dbg !17109
  %112 = getelementptr inbounds [6 x float], [6 x float]* %111, i64 0, i64 1, !dbg !17107
  %113 = load float, float* %112, align 4, !dbg !17107
  %114 = fmul float %103, %113, !dbg !17110
  %115 = fsub float %93, %114, !dbg !17111
  %116 = load float, float* %7, align 4, !dbg !17112
  %117 = fdiv float %115, %116, !dbg !17113
  store float %117, float* getelementptr inbounds ([2 x float], [2 x float]* @_ZZ9flow_calcPA1024_8tensor_tPA1024_10velocity_tE3buf, i64 0, i64 0), align 4, !dbg !17114
  %118 = load i32, i32* %6, align 4, !dbg !17115
  %119 = sext i32 %118 to i64, !dbg !17116
  %120 = load i32, i32* %5, align 4, !dbg !17117
  %121 = sext i32 %120 to i64, !dbg !17116
  %122 = load [1024 x %struct.tensor_t]*, [1024 x %struct.tensor_t]** %3, align 8, !dbg !17116
  %123 = getelementptr inbounds [1024 x %struct.tensor_t], [1024 x %struct.tensor_t]* %122, i64 %121, !dbg !17116
  %124 = getelementptr inbounds [1024 x %struct.tensor_t], [1024 x %struct.tensor_t]* %123, i64 0, i64 %119, !dbg !17116
  %125 = getelementptr inbounds %struct.tensor_t, %struct.tensor_t* %124, i32 0, i32 0, !dbg !17118
  %126 = getelementptr inbounds [6 x float], [6 x float]* %125, i64 0, i64 4, !dbg !17116
  %127 = load float, float* %126, align 4, !dbg !17116
  %128 = load i32, i32* %6, align 4, !dbg !17119
  %129 = sext i32 %128 to i64, !dbg !17120
  %130 = load i32, i32* %5, align 4, !dbg !17121
  %131 = sext i32 %130 to i64, !dbg !17120
  %132 = load [1024 x %struct.tensor_t]*, [1024 x %struct.tensor_t]** %3, align 8, !dbg !17120
  %133 = getelementptr inbounds [1024 x %struct.tensor_t], [1024 x %struct.tensor_t]* %132, i64 %131, !dbg !17120
  %134 = getelementptr inbounds [1024 x %struct.tensor_t], [1024 x %struct.tensor_t]* %133, i64 0, i64 %129, !dbg !17120
  %135 = getelementptr inbounds %struct.tensor_t, %struct.tensor_t* %134, i32 0, i32 0, !dbg !17122
  %136 = getelementptr inbounds [6 x float], [6 x float]* %135, i64 0, i64 3, !dbg !17120
  %137 = load float, float* %136, align 4, !dbg !17120
  %138 = fmul float %127, %137, !dbg !17123
  %139 = load i32, i32* %6, align 4, !dbg !17124
  %140 = sext i32 %139 to i64, !dbg !17125
  %141 = load i32, i32* %5, align 4, !dbg !17126
  %142 = sext i32 %141 to i64, !dbg !17125
  %143 = load [1024 x %struct.tensor_t]*, [1024 x %struct.tensor_t]** %3, align 8, !dbg !17125
  %144 = getelementptr inbounds [1024 x %struct.tensor_t], [1024 x %struct.tensor_t]* %143, i64 %142, !dbg !17125
  %145 = getelementptr inbounds [1024 x %struct.tensor_t], [1024 x %struct.tensor_t]* %144, i64 0, i64 %140, !dbg !17125
  %146 = getelementptr inbounds %struct.tensor_t, %struct.tensor_t* %145, i32 0, i32 0, !dbg !17127
  %147 = getelementptr inbounds [6 x float], [6 x float]* %146, i64 0, i64 5, !dbg !17125
  %148 = load float, float* %147, align 4, !dbg !17125
  %149 = load i32, i32* %6, align 4, !dbg !17128
  %150 = sext i32 %149 to i64, !dbg !17129
  %151 = load i32, i32* %5, align 4, !dbg !17130
  %152 = sext i32 %151 to i64, !dbg !17129
  %153 = load [1024 x %struct.tensor_t]*, [1024 x %struct.tensor_t]** %3, align 8, !dbg !17129
  %154 = getelementptr inbounds [1024 x %struct.tensor_t], [1024 x %struct.tensor_t]* %153, i64 %152, !dbg !17129
  %155 = getelementptr inbounds [1024 x %struct.tensor_t], [1024 x %struct.tensor_t]* %154, i64 0, i64 %150, !dbg !17129
  %156 = getelementptr inbounds %struct.tensor_t, %struct.tensor_t* %155, i32 0, i32 0, !dbg !17131
  %157 = getelementptr inbounds [6 x float], [6 x float]* %156, i64 0, i64 0, !dbg !17129
  %158 = load float, float* %157, align 4, !dbg !17129
  %159 = fmul float %148, %158, !dbg !17132
  %160 = fsub float %138, %159, !dbg !17133
  %161 = load float, float* %7, align 4, !dbg !17134
  %162 = fdiv float %160, %161, !dbg !17135
  store float %162, float* getelementptr inbounds ([2 x float], [2 x float]* @_ZZ9flow_calcPA1024_8tensor_tPA1024_10velocity_tE3buf, i64 0, i64 1), align 4, !dbg !17136
  br label %164, !dbg !17137

; <label>:163:                                    ; preds = %26, %23, %20, %17
  store float 0.000000e+00, float* getelementptr inbounds ([2 x float], [2 x float]* @_ZZ9flow_calcPA1024_8tensor_tPA1024_10velocity_tE3buf, i64 0, i64 1), align 4, !dbg !17138
  store float 0.000000e+00, float* getelementptr inbounds ([2 x float], [2 x float]* @_ZZ9flow_calcPA1024_8tensor_tPA1024_10velocity_tE3buf, i64 0, i64 0), align 4, !dbg !17140
  br label %164

; <label>:164:                                    ; preds = %163, %29
  %165 = load float, float* getelementptr inbounds ([2 x float], [2 x float]* @_ZZ9flow_calcPA1024_8tensor_tPA1024_10velocity_tE3buf, i64 0, i64 0), align 4, !dbg !17141
  %166 = load i32, i32* %6, align 4, !dbg !17142
  %167 = sext i32 %166 to i64, !dbg !17143
  %168 = load i32, i32* %5, align 4, !dbg !17144
  %169 = sext i32 %168 to i64, !dbg !17143
  %170 = load [1024 x %struct.velocity_t]*, [1024 x %struct.velocity_t]** %4, align 8, !dbg !17143
  %171 = getelementptr inbounds [1024 x %struct.velocity_t], [1024 x %struct.velocity_t]* %170, i64 %169, !dbg !17143
  %172 = getelementptr inbounds [1024 x %struct.velocity_t], [1024 x %struct.velocity_t]* %171, i64 0, i64 %167, !dbg !17143
  %173 = getelementptr inbounds %struct.velocity_t, %struct.velocity_t* %172, i32 0, i32 0, !dbg !17145
  store float %165, float* %173, align 4, !dbg !17146
  %174 = load float, float* getelementptr inbounds ([2 x float], [2 x float]* @_ZZ9flow_calcPA1024_8tensor_tPA1024_10velocity_tE3buf, i64 0, i64 1), align 4, !dbg !17147
  %175 = load i32, i32* %6, align 4, !dbg !17148
  %176 = sext i32 %175 to i64, !dbg !17149
  %177 = load i32, i32* %5, align 4, !dbg !17150
  %178 = sext i32 %177 to i64, !dbg !17149
  %179 = load [1024 x %struct.velocity_t]*, [1024 x %struct.velocity_t]** %4, align 8, !dbg !17149
  %180 = getelementptr inbounds [1024 x %struct.velocity_t], [1024 x %struct.velocity_t]* %179, i64 %178, !dbg !17149
  %181 = getelementptr inbounds [1024 x %struct.velocity_t], [1024 x %struct.velocity_t]* %180, i64 0, i64 %176, !dbg !17149
  %182 = getelementptr inbounds %struct.velocity_t, %struct.velocity_t* %181, i32 0, i32 1, !dbg !17151
  store float %174, float* %182, align 4, !dbg !17152
  br label %183, !dbg !17153

; <label>:183:                                    ; preds = %164
  %184 = load i32, i32* %6, align 4, !dbg !17154
  %185 = add nsw i32 %184, 1, !dbg !17154
  store i32 %185, i32* %6, align 4, !dbg !17154
  br label %14, !dbg !17156, !llvm.loop !17157

; <label>:186:                                    ; preds = %14
  br label %187, !dbg !17159

; <label>:187:                                    ; preds = %186
  %188 = load i32, i32* %5, align 4, !dbg !17160
  %189 = add nsw i32 %188, 1, !dbg !17160
  store i32 %189, i32* %5, align 4, !dbg !17160
  br label %9, !dbg !17162, !llvm.loop !17163

; <label>:190:                                    ; preds = %9
  ret void, !dbg !17165
}

define void @_Z12optical_flowPA1024_7ap_uintILi64EEPA1024_10velocity_t([1024 x %class.ap_uint.3]*, [1024 x %struct.velocity_t]*) #0 personality i8* bitcast (i32 (...)* @__gxx_personality_v0 to i8*) !dbg !13335 !xidane.fname !17166 !xidane.function_declaration_type !17167 !xidane.function_declaration_filename !17168 !xidane.function_argument_annotation !17169 {
  %3 = alloca [1024 x %class.ap_uint.3]*, align 8
  %4 = alloca [1024 x %struct.velocity_t]*, align 8
  %5 = alloca i8*
  %6 = alloca i32
  %7 = alloca i32, align 4
  %8 = alloca i32, align 4
  %9 = alloca %struct.ap_range_ref, align 8
  %10 = alloca %struct.ap_range_ref, align 8
  %11 = alloca %struct.ap_range_ref, align 8
  %12 = alloca %struct.ap_range_ref, align 8
  %13 = alloca %struct.ap_range_ref, align 8
  %14 = alloca %struct.ap_range_ref, align 8
  store [1024 x %class.ap_uint.3]* %0, [1024 x %class.ap_uint.3]** %3, align 8
  call void @llvm.dbg.declare(metadata [1024 x %class.ap_uint.3]** %3, metadata !17170, metadata !14900), !dbg !17171
  store [1024 x %struct.velocity_t]* %1, [1024 x %struct.velocity_t]** %4, align 8
  call void @llvm.dbg.declare(metadata [1024 x %struct.velocity_t]** %4, metadata !17172, metadata !14900), !dbg !17173
  %15 = load atomic i8, i8* bitcast (i64* @_ZGVZ12optical_flowPA1024_7ap_uintILi64EEPA1024_10velocity_tE3buf to i8*) acquire, align 8, !dbg !17174
  %16 = and i8 %15, 1, !dbg !17174
  %17 = icmp eq i8 %16, 0, !dbg !17174
  br i1 %17, label %18, label %24, !dbg !17174

; <label>:18:                                     ; preds = %2
  %19 = call i32 @__cxa_guard_acquire(i64* @_ZGVZ12optical_flowPA1024_7ap_uintILi64EEPA1024_10velocity_tE3buf) #3, !dbg !17175
  %20 = icmp ne i32 %19, 0, !dbg !17175
  br i1 %20, label %21, label %24, !dbg !17175

; <label>:21:                                     ; preds = %18
  invoke void @_ZN7ap_uintILi64EEC2Ev(%class.ap_uint.3* @_ZZ12optical_flowPA1024_7ap_uintILi64EEPA1024_10velocity_tE3buf)
          to label %22 unwind label %100, !dbg !17177

; <label>:22:                                     ; preds = %21
  %23 = call i32 @__cxa_atexit(void (i8*)* bitcast (void (%class.ap_uint.3*)* @_ZN7ap_uintILi64EED2Ev to void (i8*)*), i8* bitcast (%class.ap_uint.3* @_ZZ12optical_flowPA1024_7ap_uintILi64EEPA1024_10velocity_tE3buf to i8*), i8* @__dso_handle) #3, !dbg !17179
  call void @__cxa_guard_release(i64* @_ZGVZ12optical_flowPA1024_7ap_uintILi64EEPA1024_10velocity_tE3buf) #3, !dbg !17181
  br label %24, !dbg !17179

; <label>:24:                                     ; preds = %22, %18, %2
  br label %25, !dbg !17183

; <label>:25:                                     ; preds = %24
  call void @llvm.dbg.declare(metadata i32* %7, metadata !17185, metadata !14900), !dbg !17187
  store i32 0, i32* %7, align 4, !dbg !17187
  br label %26, !dbg !17188

; <label>:26:                                     ; preds = %105, %25
  %27 = load i32, i32* %7, align 4, !dbg !17189
  %28 = icmp slt i32 %27, 436, !dbg !17192
  br i1 %28, label %29, label %108, !dbg !17193

; <label>:29:                                     ; preds = %26
  br label %30, !dbg !17194

; <label>:30:                                     ; preds = %29
  call void @llvm.dbg.declare(metadata i32* %8, metadata !17195, metadata !14900), !dbg !17198
  store i32 0, i32* %8, align 4, !dbg !17198
  br label %31, !dbg !17199

; <label>:31:                                     ; preds = %97, %30
  %32 = load i32, i32* %8, align 4, !dbg !17200
  %33 = icmp slt i32 %32, 1024, !dbg !17203
  br i1 %33, label %34, label %104, !dbg !17204

; <label>:34:                                     ; preds = %31
  %35 = load i32, i32* %8, align 4, !dbg !17205
  %36 = sext i32 %35 to i64, !dbg !17207
  %37 = load i32, i32* %7, align 4, !dbg !17208
  %38 = sext i32 %37 to i64, !dbg !17207
  %39 = load [1024 x %class.ap_uint.3]*, [1024 x %class.ap_uint.3]** %3, align 8, !dbg !17207
  %40 = getelementptr inbounds [1024 x %class.ap_uint.3], [1024 x %class.ap_uint.3]* %39, i64 %38, !dbg !17207
  %41 = getelementptr inbounds [1024 x %class.ap_uint.3], [1024 x %class.ap_uint.3]* %40, i64 0, i64 %36, !dbg !17207
  %42 = call dereferenceable(8) %class.ap_uint.3* @_ZN7ap_uintILi64EEaSERKS0_(%class.ap_uint.3* @_ZZ12optical_flowPA1024_7ap_uintILi64EEPA1024_10velocity_tE3buf, %class.ap_uint.3* dereferenceable(8) %41), !dbg !17209
  call void @_ZN10ap_privateILi64ELb0ELb1EEclEii(%struct.ap_range_ref* sret %9, %class.ap_private.4* getelementptr inbounds (%class.ap_uint.3, %class.ap_uint.3* @_ZZ12optical_flowPA1024_7ap_uintILi64EEPA1024_10velocity_tE3buf, i32 0, i32 0), i32 7, i32 0), !dbg !17210
  %43 = call i64 @_ZNK12ap_range_refILi64ELb0EEcvyEv(%struct.ap_range_ref* %9), !dbg !17211
  %44 = uitofp i64 %43 to float, !dbg !17213
  %45 = fdiv float %44, 2.550000e+02, !dbg !17214
  %46 = load i32, i32* %8, align 4, !dbg !17215
  %47 = sext i32 %46 to i64, !dbg !17216
  %48 = load i32, i32* %7, align 4, !dbg !17217
  %49 = sext i32 %48 to i64, !dbg !17216
  %50 = getelementptr inbounds [436 x [1024 x float]], [436 x [1024 x float]]* @_ZZ12optical_flowPA1024_7ap_uintILi64EEPA1024_10velocity_tE8frame1_a, i64 0, i64 %49, !dbg !17216
  %51 = getelementptr inbounds [1024 x float], [1024 x float]* %50, i64 0, i64 %47, !dbg !17216
  store float %45, float* %51, align 4, !dbg !17218
  call void @_ZN10ap_privateILi64ELb0ELb1EEclEii(%struct.ap_range_ref* sret %10, %class.ap_private.4* getelementptr inbounds (%class.ap_uint.3, %class.ap_uint.3* @_ZZ12optical_flowPA1024_7ap_uintILi64EEPA1024_10velocity_tE3buf, i32 0, i32 0), i32 15, i32 8), !dbg !17219
  %52 = call i64 @_ZNK12ap_range_refILi64ELb0EEcvyEv(%struct.ap_range_ref* %10), !dbg !17220
  %53 = uitofp i64 %52 to float, !dbg !17221
  %54 = fdiv float %53, 2.550000e+02, !dbg !17222
  %55 = load i32, i32* %8, align 4, !dbg !17223
  %56 = sext i32 %55 to i64, !dbg !17224
  %57 = load i32, i32* %7, align 4, !dbg !17225
  %58 = sext i32 %57 to i64, !dbg !17224
  %59 = getelementptr inbounds [436 x [1024 x float]], [436 x [1024 x float]]* @_ZZ12optical_flowPA1024_7ap_uintILi64EEPA1024_10velocity_tE8frame2_a, i64 0, i64 %58, !dbg !17224
  %60 = getelementptr inbounds [1024 x float], [1024 x float]* %59, i64 0, i64 %56, !dbg !17224
  store float %54, float* %60, align 4, !dbg !17226
  call void @_ZN10ap_privateILi64ELb0ELb1EEclEii(%struct.ap_range_ref* sret %11, %class.ap_private.4* getelementptr inbounds (%class.ap_uint.3, %class.ap_uint.3* @_ZZ12optical_flowPA1024_7ap_uintILi64EEPA1024_10velocity_tE3buf, i32 0, i32 0), i32 23, i32 16), !dbg !17227
  %61 = call i64 @_ZNK12ap_range_refILi64ELb0EEcvyEv(%struct.ap_range_ref* %11), !dbg !17228
  %62 = uitofp i64 %61 to float, !dbg !17229
  %63 = fdiv float %62, 2.550000e+02, !dbg !17230
  %64 = load i32, i32* %8, align 4, !dbg !17231
  %65 = sext i32 %64 to i64, !dbg !17232
  %66 = load i32, i32* %7, align 4, !dbg !17233
  %67 = sext i32 %66 to i64, !dbg !17232
  %68 = getelementptr inbounds [436 x [1024 x float]], [436 x [1024 x float]]* @_ZZ12optical_flowPA1024_7ap_uintILi64EEPA1024_10velocity_tE8frame3_a, i64 0, i64 %67, !dbg !17232
  %69 = getelementptr inbounds [1024 x float], [1024 x float]* %68, i64 0, i64 %65, !dbg !17232
  store float %63, float* %69, align 4, !dbg !17234
  call void @_ZN10ap_privateILi64ELb0ELb1EEclEii(%struct.ap_range_ref* sret %12, %class.ap_private.4* getelementptr inbounds (%class.ap_uint.3, %class.ap_uint.3* @_ZZ12optical_flowPA1024_7ap_uintILi64EEPA1024_10velocity_tE3buf, i32 0, i32 0), i32 23, i32 16), !dbg !17235
  %70 = call i64 @_ZNK12ap_range_refILi64ELb0EEcvyEv(%struct.ap_range_ref* %12), !dbg !17236
  %71 = uitofp i64 %70 to float, !dbg !17237
  %72 = fdiv float %71, 2.550000e+02, !dbg !17238
  %73 = load i32, i32* %8, align 4, !dbg !17239
  %74 = sext i32 %73 to i64, !dbg !17240
  %75 = load i32, i32* %7, align 4, !dbg !17241
  %76 = sext i32 %75 to i64, !dbg !17240
  %77 = getelementptr inbounds [436 x [1024 x float]], [436 x [1024 x float]]* @_ZZ12optical_flowPA1024_7ap_uintILi64EEPA1024_10velocity_tE8frame3_b, i64 0, i64 %76, !dbg !17240
  %78 = getelementptr inbounds [1024 x float], [1024 x float]* %77, i64 0, i64 %74, !dbg !17240
  store float %72, float* %78, align 4, !dbg !17242
  call void @_ZN10ap_privateILi64ELb0ELb1EEclEii(%struct.ap_range_ref* sret %13, %class.ap_private.4* getelementptr inbounds (%class.ap_uint.3, %class.ap_uint.3* @_ZZ12optical_flowPA1024_7ap_uintILi64EEPA1024_10velocity_tE3buf, i32 0, i32 0), i32 31, i32 24), !dbg !17243
  %79 = call i64 @_ZNK12ap_range_refILi64ELb0EEcvyEv(%struct.ap_range_ref* %13), !dbg !17244
  %80 = uitofp i64 %79 to float, !dbg !17245
  %81 = fdiv float %80, 2.550000e+02, !dbg !17246
  %82 = load i32, i32* %8, align 4, !dbg !17247
  %83 = sext i32 %82 to i64, !dbg !17248
  %84 = load i32, i32* %7, align 4, !dbg !17249
  %85 = sext i32 %84 to i64, !dbg !17248
  %86 = getelementptr inbounds [436 x [1024 x float]], [436 x [1024 x float]]* @_ZZ12optical_flowPA1024_7ap_uintILi64EEPA1024_10velocity_tE8frame4_a, i64 0, i64 %85, !dbg !17248
  %87 = getelementptr inbounds [1024 x float], [1024 x float]* %86, i64 0, i64 %83, !dbg !17248
  store float %81, float* %87, align 4, !dbg !17250
  call void @_ZN10ap_privateILi64ELb0ELb1EEclEii(%struct.ap_range_ref* sret %14, %class.ap_private.4* getelementptr inbounds (%class.ap_uint.3, %class.ap_uint.3* @_ZZ12optical_flowPA1024_7ap_uintILi64EEPA1024_10velocity_tE3buf, i32 0, i32 0), i32 39, i32 32), !dbg !17251
  %88 = call i64 @_ZNK12ap_range_refILi64ELb0EEcvyEv(%struct.ap_range_ref* %14), !dbg !17252
  %89 = uitofp i64 %88 to float, !dbg !17253
  %90 = fdiv float %89, 2.550000e+02, !dbg !17254
  %91 = load i32, i32* %8, align 4, !dbg !17255
  %92 = sext i32 %91 to i64, !dbg !17256
  %93 = load i32, i32* %7, align 4, !dbg !17257
  %94 = sext i32 %93 to i64, !dbg !17256
  %95 = getelementptr inbounds [436 x [1024 x float]], [436 x [1024 x float]]* @_ZZ12optical_flowPA1024_7ap_uintILi64EEPA1024_10velocity_tE8frame5_a, i64 0, i64 %94, !dbg !17256
  %96 = getelementptr inbounds [1024 x float], [1024 x float]* %95, i64 0, i64 %92, !dbg !17256
  store float %90, float* %96, align 4, !dbg !17258
  br label %97, !dbg !17259

; <label>:97:                                     ; preds = %34
  %98 = load i32, i32* %8, align 4, !dbg !17260
  %99 = add nsw i32 %98, 1, !dbg !17260
  store i32 %99, i32* %8, align 4, !dbg !17260
  br label %31, !dbg !17262, !llvm.loop !17263

; <label>:100:                                    ; preds = %21
  %101 = landingpad { i8*, i32 }
          cleanup, !dbg !17265
  %102 = extractvalue { i8*, i32 } %101, 0, !dbg !17265
  store i8* %102, i8** %5, align 8, !dbg !17265
  %103 = extractvalue { i8*, i32 } %101, 1, !dbg !17265
  store i32 %103, i32* %6, align 4, !dbg !17265
  call void @__cxa_guard_abort(i64* @_ZGVZ12optical_flowPA1024_7ap_uintILi64EEPA1024_10velocity_tE3buf) #3, !dbg !17266
  br label %110, !dbg !17266

; <label>:104:                                    ; preds = %31
  br label %105, !dbg !17268

; <label>:105:                                    ; preds = %104
  %106 = load i32, i32* %7, align 4, !dbg !17269
  %107 = add nsw i32 %106, 1, !dbg !17269
  store i32 %107, i32* %7, align 4, !dbg !17269
  br label %26, !dbg !17271, !llvm.loop !17272

; <label>:108:                                    ; preds = %26
  call void @_Z16gradient_xy_calcPA1024_fS0_S0_([1024 x float]* getelementptr inbounds ([436 x [1024 x float]], [436 x [1024 x float]]* @_ZZ12optical_flowPA1024_7ap_uintILi64EEPA1024_10velocity_tE8frame3_a, i32 0, i32 0), [1024 x float]* getelementptr inbounds ([436 x [1024 x float]], [436 x [1024 x float]]* @_ZZ12optical_flowPA1024_7ap_uintILi64EEPA1024_10velocity_tE10gradient_x, i32 0, i32 0), [1024 x float]* getelementptr inbounds ([436 x [1024 x float]], [436 x [1024 x float]]* @_ZZ12optical_flowPA1024_7ap_uintILi64EEPA1024_10velocity_tE10gradient_y, i32 0, i32 0)), !dbg !17274
  call void @_Z15gradient_z_calcPA1024_fS0_S0_S0_S0_S0_([1024 x float]* getelementptr inbounds ([436 x [1024 x float]], [436 x [1024 x float]]* @_ZZ12optical_flowPA1024_7ap_uintILi64EEPA1024_10velocity_tE8frame1_a, i32 0, i32 0), [1024 x float]* getelementptr inbounds ([436 x [1024 x float]], [436 x [1024 x float]]* @_ZZ12optical_flowPA1024_7ap_uintILi64EEPA1024_10velocity_tE8frame2_a, i32 0, i32 0), [1024 x float]* getelementptr inbounds ([436 x [1024 x float]], [436 x [1024 x float]]* @_ZZ12optical_flowPA1024_7ap_uintILi64EEPA1024_10velocity_tE8frame3_b, i32 0, i32 0), [1024 x float]* getelementptr inbounds ([436 x [1024 x float]], [436 x [1024 x float]]* @_ZZ12optical_flowPA1024_7ap_uintILi64EEPA1024_10velocity_tE8frame4_a, i32 0, i32 0), [1024 x float]* getelementptr inbounds ([436 x [1024 x float]], [436 x [1024 x float]]* @_ZZ12optical_flowPA1024_7ap_uintILi64EEPA1024_10velocity_tE8frame5_a, i32 0, i32 0), [1024 x float]* getelementptr inbounds ([436 x [1024 x float]], [436 x [1024 x float]]* @_ZZ12optical_flowPA1024_7ap_uintILi64EEPA1024_10velocity_tE10gradient_z, i32 0, i32 0)), !dbg !17275
  call void @_Z17gradient_weight_yPA1024_fS0_S0_PA1024_10gradient_t([1024 x float]* getelementptr inbounds ([436 x [1024 x float]], [436 x [1024 x float]]* @_ZZ12optical_flowPA1024_7ap_uintILi64EEPA1024_10velocity_tE10gradient_x, i32 0, i32 0), [1024 x float]* getelementptr inbounds ([436 x [1024 x float]], [436 x [1024 x float]]* @_ZZ12optical_flowPA1024_7ap_uintILi64EEPA1024_10velocity_tE10gradient_y, i32 0, i32 0), [1024 x float]* getelementptr inbounds ([436 x [1024 x float]], [436 x [1024 x float]]* @_ZZ12optical_flowPA1024_7ap_uintILi64EEPA1024_10velocity_tE10gradient_z, i32 0, i32 0), [1024 x %struct.gradient_t]* getelementptr inbounds ([436 x [1024 x %struct.gradient_t]], [436 x [1024 x %struct.gradient_t]]* @_ZZ12optical_flowPA1024_7ap_uintILi64EEPA1024_10velocity_tE10y_filtered, i32 0, i32 0)), !dbg !17276
  call void @_Z17gradient_weight_xPA1024_10gradient_tS1_([1024 x %struct.gradient_t]* getelementptr inbounds ([436 x [1024 x %struct.gradient_t]], [436 x [1024 x %struct.gradient_t]]* @_ZZ12optical_flowPA1024_7ap_uintILi64EEPA1024_10velocity_tE10y_filtered, i32 0, i32 0), [1024 x %struct.gradient_t]* getelementptr inbounds ([436 x [1024 x %struct.gradient_t]], [436 x [1024 x %struct.gradient_t]]* @_ZZ12optical_flowPA1024_7ap_uintILi64EEPA1024_10velocity_tE17filtered_gradient, i32 0, i32 0)), !dbg !17277
  call void @_Z13outer_productPA1024_10gradient_tPA1024_7outer_t([1024 x %struct.gradient_t]* getelementptr inbounds ([436 x [1024 x %struct.gradient_t]], [436 x [1024 x %struct.gradient_t]]* @_ZZ12optical_flowPA1024_7ap_uintILi64EEPA1024_10velocity_tE17filtered_gradient, i32 0, i32 0), [1024 x %struct.outer_t]* getelementptr inbounds ([436 x [1024 x %struct.outer_t]], [436 x [1024 x %struct.outer_t]]* @_ZZ12optical_flowPA1024_7ap_uintILi64EEPA1024_10velocity_tE11out_product, i32 0, i32 0)), !dbg !17278
  call void @_Z15tensor_weight_yPA1024_7outer_tPA1024_8tensor_t([1024 x %struct.outer_t]* getelementptr inbounds ([436 x [1024 x %struct.outer_t]], [436 x [1024 x %struct.outer_t]]* @_ZZ12optical_flowPA1024_7ap_uintILi64EEPA1024_10velocity_tE11out_product, i32 0, i32 0), [1024 x %struct.tensor_t]* getelementptr inbounds ([436 x [1024 x %struct.tensor_t]], [436 x [1024 x %struct.tensor_t]]* @_ZZ12optical_flowPA1024_7ap_uintILi64EEPA1024_10velocity_tE8tensor_y, i32 0, i32 0)), !dbg !17279
  call void @_Z15tensor_weight_xPA1024_8tensor_tS1_([1024 x %struct.tensor_t]* getelementptr inbounds ([436 x [1024 x %struct.tensor_t]], [436 x [1024 x %struct.tensor_t]]* @_ZZ12optical_flowPA1024_7ap_uintILi64EEPA1024_10velocity_tE8tensor_y, i32 0, i32 0), [1024 x %struct.tensor_t]* getelementptr inbounds ([436 x [1024 x %struct.tensor_t]], [436 x [1024 x %struct.tensor_t]]* @_ZZ12optical_flowPA1024_7ap_uintILi64EEPA1024_10velocity_tE6tensor, i32 0, i32 0)), !dbg !17280
  %109 = load [1024 x %struct.velocity_t]*, [1024 x %struct.velocity_t]** %4, align 8, !dbg !17281
  call void @_Z9flow_calcPA1024_8tensor_tPA1024_10velocity_t([1024 x %struct.tensor_t]* getelementptr inbounds ([436 x [1024 x %struct.tensor_t]], [436 x [1024 x %struct.tensor_t]]* @_ZZ12optical_flowPA1024_7ap_uintILi64EEPA1024_10velocity_tE6tensor, i32 0, i32 0), [1024 x %struct.velocity_t]* %109), !dbg !17282
  ret void, !dbg !17283

; <label>:110:                                    ; preds = %100
  %111 = load i8*, i8** %5, align 8, !dbg !17284
  %112 = load i32, i32* %6, align 4, !dbg !17284
  %113 = insertvalue { i8*, i32 } undef, i8* %111, 0, !dbg !17284
  %114 = insertvalue { i8*, i32 } %113, i32 %112, 1, !dbg !17284
  resume { i8*, i32 } %114, !dbg !17284
}

; Function Attrs: nounwind
declare i32 @__cxa_guard_acquire(i64*) #3

; Function Attrs: inlinehint
define linkonce_odr void @_ZN7ap_uintILi64EEC2Ev(%class.ap_uint.3*) unnamed_addr #4 comdat align 2 !dbg !17286 !xidane.fname !14896 !xidane.function_declaration_type !14874 !xidane.function_declaration_filename !14897 {
  %2 = alloca %class.ap_uint.3*, align 8
  store %class.ap_uint.3* %0, %class.ap_uint.3** %2, align 8
  call void @llvm.dbg.declare(metadata %class.ap_uint.3** %2, metadata !17287, metadata !14900), !dbg !17289
  %3 = load %class.ap_uint.3*, %class.ap_uint.3** %2, align 8
  %4 = bitcast %class.ap_uint.3* %3 to %class.ap_private.4*, !dbg !17290
  call void @_ZN10ap_privateILi64ELb0ELb1EEC2Ev(%class.ap_private.4* %4), !dbg !17291
  ret void, !dbg !17292
}

; Function Attrs: inlinehint nounwind
define linkonce_odr void @_ZN7ap_uintILi64EED2Ev(%class.ap_uint.3*) unnamed_addr #5 comdat align 2 !dbg !17293 !xidane.fname !14907 !xidane.function_declaration_type !14874 !xidane.function_declaration_filename !14897 {
  %2 = alloca %class.ap_uint.3*, align 8
  store %class.ap_uint.3* %0, %class.ap_uint.3** %2, align 8
  call void @llvm.dbg.declare(metadata %class.ap_uint.3** %2, metadata !17295, metadata !14900), !dbg !17296
  %3 = load %class.ap_uint.3*, %class.ap_uint.3** %2, align 8
  %4 = bitcast %class.ap_uint.3* %3 to %class.ap_private.4*, !dbg !17297
  call void @_ZN10ap_privateILi64ELb0ELb1EED2Ev(%class.ap_private.4* %4) #3, !dbg !17297
  ret void, !dbg !17299
}

; Function Attrs: nounwind
declare void @__cxa_guard_abort(i64*) #3

; Function Attrs: nounwind
declare void @__cxa_guard_release(i64*) #3

; Function Attrs: inlinehint
define linkonce_odr dereferenceable(8) %class.ap_uint.3* @_ZN7ap_uintILi64EEaSERKS0_(%class.ap_uint.3*, %class.ap_uint.3* dereferenceable(8)) #4 comdat align 2 !dbg !17300 !xidane.fname !17301 !xidane.function_declaration_type !17302 !xidane.function_declaration_filename !14897 {
  %3 = alloca %class.ap_uint.3*, align 8
  %4 = alloca %class.ap_uint.3*, align 8
  store %class.ap_uint.3* %0, %class.ap_uint.3** %3, align 8
  call void @llvm.dbg.declare(metadata %class.ap_uint.3** %3, metadata !17303, metadata !14900), !dbg !17304
  store %class.ap_uint.3* %1, %class.ap_uint.3** %4, align 8
  call void @llvm.dbg.declare(metadata %class.ap_uint.3** %4, metadata !17305, metadata !14900), !dbg !17306
  %5 = load %class.ap_uint.3*, %class.ap_uint.3** %3, align 8
  %6 = bitcast %class.ap_uint.3* %5 to %class.ap_private.4*, !dbg !17307
  %7 = load %class.ap_uint.3*, %class.ap_uint.3** %4, align 8, !dbg !17308
  %8 = bitcast %class.ap_uint.3* %7 to %class.ap_private.4*, !dbg !17309
  %9 = call dereferenceable(8) %class.ap_private.4* @_ZN10ap_privateILi64ELb0ELb1EEaSERKS0_(%class.ap_private.4* %6, %class.ap_private.4* dereferenceable(8) %8), !dbg !17307
  ret %class.ap_uint.3* %5, !dbg !17310
}

; Function Attrs: inlinehint
define linkonce_odr void @_ZN10ap_privateILi64ELb0ELb1EEclEii(%struct.ap_range_ref* noalias sret, %class.ap_private.4*, i32, i32) #4 comdat align 2 !dbg !17311 !xidane.fname !17312 !xidane.function_declaration_type !17313 !xidane.function_declaration_filename !17314 {
  %5 = alloca %class.ap_private.4*, align 8
  %6 = alloca i32, align 4
  %7 = alloca i32, align 4
  store %class.ap_private.4* %1, %class.ap_private.4** %5, align 8
  call void @llvm.dbg.declare(metadata %class.ap_private.4** %5, metadata !17315, metadata !14900), !dbg !17316
  store i32 %2, i32* %6, align 4
  call void @llvm.dbg.declare(metadata i32* %6, metadata !17317, metadata !14900), !dbg !17318
  store i32 %3, i32* %7, align 4
  call void @llvm.dbg.declare(metadata i32* %7, metadata !17319, metadata !14900), !dbg !17320
  %8 = load %class.ap_private.4*, %class.ap_private.4** %5, align 8
  %9 = load i32, i32* %6, align 4, !dbg !17321
  %10 = load i32, i32* %7, align 4, !dbg !17322
  call void @_ZN12ap_range_refILi64ELb0EEC2EP10ap_privateILi64ELb0ELb1EEii(%struct.ap_range_ref* %0, %class.ap_private.4* %8, i32 %9, i32 %10), !dbg !17323
  ret void, !dbg !17324
}

; Function Attrs: inlinehint
define linkonce_odr i64 @_ZNK12ap_range_refILi64ELb0EEcvyEv(%struct.ap_range_ref*) #4 comdat align 2 !dbg !17325 !xidane.fname !17326 !xidane.function_declaration_type !17327 !xidane.function_declaration_filename !14897 {
  %2 = alloca %struct.ap_range_ref*, align 8
  store %struct.ap_range_ref* %0, %struct.ap_range_ref** %2, align 8
  call void @llvm.dbg.declare(metadata %struct.ap_range_ref** %2, metadata !17328, metadata !14900), !dbg !17330
  %3 = load %struct.ap_range_ref*, %struct.ap_range_ref** %2, align 8
  %4 = call i64 @_ZNK12ap_range_refILi64ELb0EE9to_uint64Ev(%struct.ap_range_ref* %3), !dbg !17331
  ret i64 %4, !dbg !17332
}

; Function Attrs: inlinehint nounwind
define linkonce_odr void @_ZN10ap_privateILi8ELb0ELb1EED2Ev(%class.ap_private*) unnamed_addr #5 comdat align 2 personality i8* bitcast (i32 (...)* @__gxx_personality_v0 to i8*) !dbg !17333 !xidane.fname !17334 !xidane.function_declaration_type !14874 !xidane.function_declaration_filename !17314 {
  %2 = alloca %class.ap_private*, align 8
  store %class.ap_private* %0, %class.ap_private** %2, align 8
  call void @llvm.dbg.declare(metadata %class.ap_private** %2, metadata !17335, metadata !14900), !dbg !17336
  %3 = load %class.ap_private*, %class.ap_private** %2, align 8
  invoke void @_ZN10ap_privateILi8ELb0ELb1EE12check_canaryEv(%class.ap_private* %3)
          to label %4 unwind label %5, !dbg !17337

; <label>:4:                                      ; preds = %1
  ret void, !dbg !17339

; <label>:5:                                      ; preds = %1
  %6 = landingpad { i8*, i32 }
          catch i8* null, !dbg !17341
  %7 = extractvalue { i8*, i32 } %6, 0, !dbg !17341
  call void @__clang_call_terminate(i8* %7) #11, !dbg !17341
  unreachable, !dbg !17341
}

; Function Attrs: nounwind
define linkonce_odr void @_ZN10ap_privateILi8ELb0ELb1EE12check_canaryEv(%class.ap_private*) #7 comdat align 2 !dbg !17343 !xidane.fname !17344 !xidane.function_declaration_type !14874 !xidane.function_declaration_filename !17314 {
  %2 = alloca %class.ap_private*, align 8
  store %class.ap_private* %0, %class.ap_private** %2, align 8
  call void @llvm.dbg.declare(metadata %class.ap_private** %2, metadata !17345, metadata !14900), !dbg !17346
  %3 = load %class.ap_private*, %class.ap_private** %2, align 8
  ret void, !dbg !17347
}

; Function Attrs: noinline noreturn nounwind
define linkonce_odr hidden void @__clang_call_terminate(i8*) #9 comdat {
  %2 = call i8* @__cxa_begin_catch(i8* %0) #3
  call void @_ZSt9terminatev() #11
  unreachable
}

declare i8* @__cxa_begin_catch(i8*)

declare void @_ZSt9terminatev()

; Function Attrs: nounwind
define linkonce_odr void @_ZN10ap_privateILi64ELb0ELb1EE12check_canaryEv(%class.ap_private.4*) #7 comdat align 2 !dbg !17348 !xidane.fname !17344 !xidane.function_declaration_type !14874 !xidane.function_declaration_filename !17314 {
  %2 = alloca %class.ap_private.4*, align 8
  store %class.ap_private.4* %0, %class.ap_private.4** %2, align 8
  call void @llvm.dbg.declare(metadata %class.ap_private.4** %2, metadata !17349, metadata !14900), !dbg !17350
  %3 = load %class.ap_private.4*, %class.ap_private.4** %2, align 8
  ret void, !dbg !17351
}

; Function Attrs: inlinehint
define linkonce_odr void @_ZN10ap_privateILi8ELb0ELb1EEC2Ev(%class.ap_private*) unnamed_addr #4 comdat align 2 !dbg !17352 !xidane.fname !17353 !xidane.function_declaration_type !14874 !xidane.function_declaration_filename !17314 {
  %2 = alloca %class.ap_private*, align 8
  store %class.ap_private* %0, %class.ap_private** %2, align 8
  call void @llvm.dbg.declare(metadata %class.ap_private** %2, metadata !17354, metadata !14900), !dbg !17355
  %3 = load %class.ap_private*, %class.ap_private** %2, align 8
  call void @_ZN10ap_privateILi8ELb0ELb1EE10set_canaryEv(%class.ap_private* %3), !dbg !17356
  call void @_ZN10ap_privateILi8ELb0ELb1EE15clearUnusedBitsEv(%class.ap_private* %3), !dbg !17358
  call void @_ZN10ap_privateILi8ELb0ELb1EE12check_canaryEv(%class.ap_private* %3), !dbg !17359
  ret void, !dbg !17360
}

; Function Attrs: nounwind
define linkonce_odr void @_ZN10ap_privateILi8ELb0ELb1EE10set_canaryEv(%class.ap_private*) #7 comdat align 2 !dbg !17361 !xidane.fname !17362 !xidane.function_declaration_type !14874 !xidane.function_declaration_filename !17314 {
  %2 = alloca %class.ap_private*, align 8
  store %class.ap_private* %0, %class.ap_private** %2, align 8
  call void @llvm.dbg.declare(metadata %class.ap_private** %2, metadata !17363, metadata !14900), !dbg !17364
  %3 = load %class.ap_private*, %class.ap_private** %2, align 8
  ret void, !dbg !17365
}

; Function Attrs: inlinehint nounwind
define linkonce_odr void @_ZN10ap_privateILi8ELb0ELb1EE15clearUnusedBitsEv(%class.ap_private*) #5 comdat align 2 !dbg !15 !xidane.fname !17366 !xidane.function_declaration_type !14874 !xidane.function_declaration_filename !17314 {
  %2 = alloca %class.ap_private*, align 8
  store %class.ap_private* %0, %class.ap_private** %2, align 8
  call void @llvm.dbg.declare(metadata %class.ap_private** %2, metadata !17367, metadata !14900), !dbg !17368
  %3 = load %class.ap_private*, %class.ap_private** %2, align 8
  %4 = getelementptr inbounds %class.ap_private, %class.ap_private* %3, i32 0, i32 0, !dbg !17369
  %5 = load i8, i8* %4, align 1, !dbg !17369
  %6 = zext i8 %5 to i64, !dbg !17369
  %7 = shl i64 %6, 56, !dbg !17370
  %8 = lshr i64 %7, 56, !dbg !17371
  %9 = trunc i64 %8 to i8, !dbg !17372
  %10 = getelementptr inbounds %class.ap_private, %class.ap_private* %3, i32 0, i32 0, !dbg !17373
  store i8 %9, i8* %10, align 1, !dbg !17374
  ret void, !dbg !17375
}

; Function Attrs: inlinehint
define linkonce_odr void @_ZN12ap_range_refILi64ELb0EEC2EP10ap_privateILi64ELb0ELb1EEii(%struct.ap_range_ref*, %class.ap_private.4*, i32, i32) unnamed_addr #4 comdat align 2 !dbg !17376 !xidane.fname !17377 !xidane.function_declaration_type !17378 !xidane.function_declaration_filename !14897 {
  %5 = alloca %struct.ap_range_ref*, align 8
  %6 = alloca %class.ap_private.4*, align 8
  %7 = alloca i32, align 4
  %8 = alloca i32, align 4
  store %struct.ap_range_ref* %0, %struct.ap_range_ref** %5, align 8
  call void @llvm.dbg.declare(metadata %struct.ap_range_ref** %5, metadata !17379, metadata !14900), !dbg !17381
  store %class.ap_private.4* %1, %class.ap_private.4** %6, align 8
  call void @llvm.dbg.declare(metadata %class.ap_private.4** %6, metadata !17382, metadata !14900), !dbg !17383
  store i32 %2, i32* %7, align 4
  call void @llvm.dbg.declare(metadata i32* %7, metadata !17384, metadata !14900), !dbg !17385
  store i32 %3, i32* %8, align 4
  call void @llvm.dbg.declare(metadata i32* %8, metadata !17386, metadata !14900), !dbg !17387
  %9 = load %struct.ap_range_ref*, %struct.ap_range_ref** %5, align 8
  %10 = getelementptr inbounds %struct.ap_range_ref, %struct.ap_range_ref* %9, i32 0, i32 0, !dbg !17388
  %11 = load %class.ap_private.4*, %class.ap_private.4** %6, align 8, !dbg !17389
  store %class.ap_private.4* %11, %class.ap_private.4** %10, align 8, !dbg !17388
  %12 = getelementptr inbounds %struct.ap_range_ref, %struct.ap_range_ref* %9, i32 0, i32 1, !dbg !17390
  %13 = load i32, i32* %8, align 4, !dbg !17391
  store i32 %13, i32* %12, align 8, !dbg !17390
  %14 = getelementptr inbounds %struct.ap_range_ref, %struct.ap_range_ref* %9, i32 0, i32 2, !dbg !17392
  %15 = load i32, i32* %7, align 4, !dbg !17393
  store i32 %15, i32* %14, align 4, !dbg !17392
  %16 = load i32, i32* %7, align 4, !dbg !17394
  %17 = icmp slt i32 %16, 0, !dbg !17397
  br i1 %17, label %21, label %18, !dbg !17398

; <label>:18:                                     ; preds = %4
  %19 = load i32, i32* %8, align 4, !dbg !17399
  %20 = icmp slt i32 %19, 0, !dbg !17401
  br i1 %20, label %21, label %26, !dbg !17402

; <label>:21:                                     ; preds = %18, %4
  %22 = load %struct._IO_FILE*, %struct._IO_FILE** @stderr, align 8, !dbg !17403
  %23 = load i32, i32* %7, align 4, !dbg !17404
  %24 = load i32, i32* %8, align 4, !dbg !17405
  %25 = call i32 (%struct._IO_FILE*, i8*, ...) @fprintf(%struct._IO_FILE* %22, i8* getelementptr inbounds ([69 x i8], [69 x i8]* @.str, i32 0, i32 0), i32 %23, i32 %24), !dbg !17406
  br label %26, !dbg !17406

; <label>:26:                                     ; preds = %21, %18
  %27 = load i32, i32* %7, align 4, !dbg !17407
  %28 = icmp sge i32 %27, 64, !dbg !17409
  br i1 %28, label %32, label %29, !dbg !17410

; <label>:29:                                     ; preds = %26
  %30 = load i32, i32* %8, align 4, !dbg !17411
  %31 = icmp sge i32 %30, 64, !dbg !17413
  br i1 %31, label %32, label %37, !dbg !17414

; <label>:32:                                     ; preds = %29, %26
  %33 = load %struct._IO_FILE*, %struct._IO_FILE** @stderr, align 8, !dbg !17415
  %34 = load i32, i32* %7, align 4, !dbg !17416
  %35 = load i32, i32* %8, align 4, !dbg !17417
  %36 = call i32 (%struct._IO_FILE*, i8*, ...) @fprintf(%struct._IO_FILE* %33, i8* getelementptr inbounds ([67 x i8], [67 x i8]* @.str.2, i32 0, i32 0), i32 %34, i32 %35, i32 64), !dbg !17418
  br label %37, !dbg !17418

; <label>:37:                                     ; preds = %32, %29
  ret void, !dbg !17419
}

declare !xidane.fname !17420 !xidane.function_declaration_type !17421 !xidane.function_declaration_filename !17422 !xidane.ExternC !17423 i32 @fprintf(%struct._IO_FILE*, i8*, ...) #1

; Function Attrs: inlinehint
define linkonce_odr void @_ZN10ap_privateILi64ELb0ELb1EEC2Ev(%class.ap_private.4*) unnamed_addr #4 comdat align 2 !dbg !17424 !xidane.fname !17353 !xidane.function_declaration_type !14874 !xidane.function_declaration_filename !17314 {
  %2 = alloca %class.ap_private.4*, align 8
  store %class.ap_private.4* %0, %class.ap_private.4** %2, align 8
  call void @llvm.dbg.declare(metadata %class.ap_private.4** %2, metadata !17425, metadata !14900), !dbg !17426
  %3 = load %class.ap_private.4*, %class.ap_private.4** %2, align 8
  call void @_ZN10ap_privateILi64ELb0ELb1EE10set_canaryEv(%class.ap_private.4* %3), !dbg !17427
  call void @_ZN10ap_privateILi64ELb0ELb1EE15clearUnusedBitsEv(%class.ap_private.4* %3), !dbg !17429
  call void @_ZN10ap_privateILi64ELb0ELb1EE12check_canaryEv(%class.ap_private.4* %3), !dbg !17430
  ret void, !dbg !17431
}

; Function Attrs: nounwind
define linkonce_odr void @_ZN10ap_privateILi64ELb0ELb1EE10set_canaryEv(%class.ap_private.4*) #7 comdat align 2 !dbg !17432 !xidane.fname !17362 !xidane.function_declaration_type !14874 !xidane.function_declaration_filename !17314 {
  %2 = alloca %class.ap_private.4*, align 8
  store %class.ap_private.4* %0, %class.ap_private.4** %2, align 8
  call void @llvm.dbg.declare(metadata %class.ap_private.4** %2, metadata !17433, metadata !14900), !dbg !17434
  %3 = load %class.ap_private.4*, %class.ap_private.4** %2, align 8
  ret void, !dbg !17435
}

; Function Attrs: inlinehint nounwind
define linkonce_odr void @_ZN10ap_privateILi64ELb0ELb1EE15clearUnusedBitsEv(%class.ap_private.4*) #5 comdat align 2 !dbg !17436 !xidane.fname !17366 !xidane.function_declaration_type !14874 !xidane.function_declaration_filename !17314 {
  %2 = alloca %class.ap_private.4*, align 8
  store %class.ap_private.4* %0, %class.ap_private.4** %2, align 8
  call void @llvm.dbg.declare(metadata %class.ap_private.4** %2, metadata !17437, metadata !14900), !dbg !17438
  %3 = load %class.ap_private.4*, %class.ap_private.4** %2, align 8
  %4 = getelementptr inbounds %class.ap_private.4, %class.ap_private.4* %3, i32 0, i32 0, !dbg !17439
  %5 = load i64, i64* %4, align 8, !dbg !17439
  %6 = getelementptr inbounds %class.ap_private.4, %class.ap_private.4* %3, i32 0, i32 0, !dbg !17440
  store i64 %5, i64* %6, align 8, !dbg !17441
  ret void, !dbg !17442
}

; Function Attrs: inlinehint
define linkonce_odr void @_ZN7ap_uintILi32EEC2Ev(%class.ap_uint.5*) unnamed_addr #4 comdat align 2 !dbg !17443 !xidane.fname !14896 !xidane.function_declaration_type !14874 !xidane.function_declaration_filename !14897 {
  %2 = alloca %class.ap_uint.5*, align 8
  store %class.ap_uint.5* %0, %class.ap_uint.5** %2, align 8
  call void @llvm.dbg.declare(metadata %class.ap_uint.5** %2, metadata !17444, metadata !14900), !dbg !17446
  %3 = load %class.ap_uint.5*, %class.ap_uint.5** %2, align 8
  %4 = bitcast %class.ap_uint.5* %3 to %class.ap_private.6*, !dbg !17447
  call void @_ZN10ap_privateILi32ELb0ELb1EEC2Ev(%class.ap_private.6* %4), !dbg !17448
  ret void, !dbg !17449
}

; Function Attrs: inlinehint
define linkonce_odr dereferenceable(4) %class.ap_uint.5* @_ZN7ap_uintILi32EEaSERKS0_(%class.ap_uint.5*, %class.ap_uint.5* dereferenceable(4)) #4 comdat align 2 !dbg !17450 !xidane.fname !17301 !xidane.function_declaration_type !17451 !xidane.function_declaration_filename !14897 {
  %3 = alloca %class.ap_uint.5*, align 8
  %4 = alloca %class.ap_uint.5*, align 8
  store %class.ap_uint.5* %0, %class.ap_uint.5** %3, align 8
  call void @llvm.dbg.declare(metadata %class.ap_uint.5** %3, metadata !17452, metadata !14900), !dbg !17453
  store %class.ap_uint.5* %1, %class.ap_uint.5** %4, align 8
  call void @llvm.dbg.declare(metadata %class.ap_uint.5** %4, metadata !17454, metadata !14900), !dbg !17455
  %5 = load %class.ap_uint.5*, %class.ap_uint.5** %3, align 8
  %6 = bitcast %class.ap_uint.5* %5 to %class.ap_private.6*, !dbg !17456
  %7 = load %class.ap_uint.5*, %class.ap_uint.5** %4, align 8, !dbg !17457
  %8 = bitcast %class.ap_uint.5* %7 to %class.ap_private.6*, !dbg !17458
  %9 = call dereferenceable(4) %class.ap_private.6* @_ZN10ap_privateILi32ELb0ELb1EEaSERKS0_(%class.ap_private.6* %6, %class.ap_private.6* dereferenceable(4) %8), !dbg !17456
  ret %class.ap_uint.5* %5, !dbg !17459
}

; Function Attrs: inlinehint
define linkonce_odr void @_ZN7ap_uintILi32EEC2Ei(%class.ap_uint.5*, i32) unnamed_addr #4 comdat align 2 !dbg !17460 !xidane.fname !14896 !xidane.function_declaration_type !15783 !xidane.function_declaration_filename !14897 {
  %3 = alloca %class.ap_uint.5*, align 8
  %4 = alloca i32, align 4
  store %class.ap_uint.5* %0, %class.ap_uint.5** %3, align 8
  call void @llvm.dbg.declare(metadata %class.ap_uint.5** %3, metadata !17461, metadata !14900), !dbg !17462
  store i32 %1, i32* %4, align 4
  call void @llvm.dbg.declare(metadata i32* %4, metadata !17463, metadata !14900), !dbg !17464
  %5 = load %class.ap_uint.5*, %class.ap_uint.5** %3, align 8
  %6 = bitcast %class.ap_uint.5* %5 to %class.ap_private.6*, !dbg !17464
  %7 = load i32, i32* %4, align 4, !dbg !17464
  call void @_ZN10ap_privateILi32ELb0ELb1EEC2Ei(%class.ap_private.6* %6, i32 %7), !dbg !17464
  ret void, !dbg !17464
}

; Function Attrs: inlinehint nounwind
define linkonce_odr void @_ZN7ap_uintILi32EED2Ev(%class.ap_uint.5*) unnamed_addr #5 comdat align 2 !dbg !17465 !xidane.fname !14907 !xidane.function_declaration_type !14874 !xidane.function_declaration_filename !14897 {
  %2 = alloca %class.ap_uint.5*, align 8
  store %class.ap_uint.5* %0, %class.ap_uint.5** %2, align 8
  call void @llvm.dbg.declare(metadata %class.ap_uint.5** %2, metadata !17467, metadata !14900), !dbg !17468
  %3 = load %class.ap_uint.5*, %class.ap_uint.5** %2, align 8
  %4 = bitcast %class.ap_uint.5* %3 to %class.ap_private.6*, !dbg !17469
  call void @_ZN10ap_privateILi32ELb0ELb1EED2Ev(%class.ap_private.6* %4) #3, !dbg !17469
  ret void, !dbg !17471
}

; Function Attrs: inlinehint
define linkonce_odr i1 @_ZltILi32ELb0EEbRK10ap_privateIXT_EXT0_EXleT_Li64EEEi(%class.ap_private.6* dereferenceable(4), i32) #4 comdat personality i8* bitcast (i32 (...)* @__gxx_personality_v0 to i8*) !dbg !17472 !xidane.fname !17475 !xidane.function_declaration_type !17476 !xidane.function_declaration_filename !17314 {
  %3 = alloca %class.ap_private.6*, align 8
  %4 = alloca i32, align 4
  %5 = alloca %class.ap_private.8, align 4
  %6 = alloca i8*
  %7 = alloca i32
  store %class.ap_private.6* %0, %class.ap_private.6** %3, align 8
  call void @llvm.dbg.declare(metadata %class.ap_private.6** %3, metadata !17477, metadata !14900), !dbg !17478
  store i32 %1, i32* %4, align 4
  call void @llvm.dbg.declare(metadata i32* %4, metadata !17479, metadata !14900), !dbg !17478
  %8 = load %class.ap_private.6*, %class.ap_private.6** %3, align 8, !dbg !17478
  %9 = load i32, i32* %4, align 4, !dbg !17478
  call void @_ZN10ap_privateILi32ELb1ELb1EEC2Ei(%class.ap_private.8* %5, i32 %9), !dbg !17478
  %10 = invoke i1 @_ZNK10ap_privateILi32ELb0ELb1EEltILi32ELb1EEEbRKS_IXT_EXT0_EXleT_Li64EEE(%class.ap_private.6* %8, %class.ap_private.8* dereferenceable(4) %5)
          to label %11 unwind label %12, !dbg !17478

; <label>:11:                                     ; preds = %2
  call void @_ZN10ap_privateILi32ELb1ELb1EED2Ev(%class.ap_private.8* %5) #3, !dbg !17480
  ret i1 %10, !dbg !17480

; <label>:12:                                     ; preds = %2
  %13 = landingpad { i8*, i32 }
          cleanup, !dbg !17482
  %14 = extractvalue { i8*, i32 } %13, 0, !dbg !17482
  store i8* %14, i8** %6, align 8, !dbg !17482
  %15 = extractvalue { i8*, i32 } %13, 1, !dbg !17482
  store i32 %15, i32* %7, align 4, !dbg !17482
  call void @_ZN10ap_privateILi32ELb1ELb1EED2Ev(%class.ap_private.8* %5) #3, !dbg !17482
  br label %16, !dbg !17482

; <label>:16:                                     ; preds = %12
  %17 = load i8*, i8** %6, align 8, !dbg !17484
  %18 = load i32, i32* %7, align 4, !dbg !17484
  %19 = insertvalue { i8*, i32 } undef, i8* %17, 0, !dbg !17484
  %20 = insertvalue { i8*, i32 } %19, i32 %18, 1, !dbg !17484
  resume { i8*, i32 } %20, !dbg !17484
}

; Function Attrs: inlinehint
define linkonce_odr void @_ZplILi32ELb0EEN10ap_privateIXT_EXT0_EXleT_Li64EEE5RTypeIXLi32EEXLb1EEE4plusERKS1_i(%class.ap_private.7* noalias sret, %class.ap_private.6* dereferenceable(4), i32) #4 comdat personality i8* bitcast (i32 (...)* @__gxx_personality_v0 to i8*) !dbg !17486 !xidane.fname !17489 !xidane.function_declaration_type !17490 !xidane.function_declaration_filename !17314 {
  %4 = alloca %class.ap_private.6*, align 8
  %5 = alloca i32, align 4
  %6 = alloca %class.ap_private.8, align 4
  %7 = alloca i8*
  %8 = alloca i32
  store %class.ap_private.6* %1, %class.ap_private.6** %4, align 8
  call void @llvm.dbg.declare(metadata %class.ap_private.6** %4, metadata !17491, metadata !14900), !dbg !17492
  store i32 %2, i32* %5, align 4
  call void @llvm.dbg.declare(metadata i32* %5, metadata !17493, metadata !14900), !dbg !17492
  %9 = load %class.ap_private.6*, %class.ap_private.6** %4, align 8, !dbg !17492
  %10 = load i32, i32* %5, align 4, !dbg !17492
  call void @_ZN10ap_privateILi32ELb1ELb1EEC2Ei(%class.ap_private.8* %6, i32 %10), !dbg !17492
  invoke void @_ZNK10ap_privateILi32ELb0ELb1EEplILi32ELb1EEENS0_5RTypeIXT_EXT0_EE4plusERKS_IXT_EXT0_EXleT_Li64EEE(%class.ap_private.7* sret %0, %class.ap_private.6* %9, %class.ap_private.8* dereferenceable(4) %6)
          to label %11 unwind label %12, !dbg !17492

; <label>:11:                                     ; preds = %3
  call void @_ZN10ap_privateILi32ELb1ELb1EED2Ev(%class.ap_private.8* %6) #3, !dbg !17494
  ret void, !dbg !17494

; <label>:12:                                     ; preds = %3
  %13 = landingpad { i8*, i32 }
          cleanup, !dbg !17496
  %14 = extractvalue { i8*, i32 } %13, 0, !dbg !17496
  store i8* %14, i8** %7, align 8, !dbg !17496
  %15 = extractvalue { i8*, i32 } %13, 1, !dbg !17496
  store i32 %15, i32* %8, align 4, !dbg !17496
  call void @_ZN10ap_privateILi32ELb1ELb1EED2Ev(%class.ap_private.8* %6) #3, !dbg !17496
  br label %16, !dbg !17496

; <label>:16:                                     ; preds = %12
  %17 = load i8*, i8** %7, align 8, !dbg !17498
  %18 = load i32, i32* %8, align 4, !dbg !17498
  %19 = insertvalue { i8*, i32 } undef, i8* %17, 0, !dbg !17498
  %20 = insertvalue { i8*, i32 } %19, i32 %18, 1, !dbg !17498
  resume { i8*, i32 } %20, !dbg !17498
}

; Function Attrs: inlinehint
define linkonce_odr i64 @_ZNK10ap_privateILi34ELb1ELb1EEcvlEv(%class.ap_private.7*) #4 comdat align 2 !dbg !17500 !xidane.fname !17501 !xidane.function_declaration_type !17502 !xidane.function_declaration_filename !17314 {
  %2 = alloca %class.ap_private.7*, align 8
  store %class.ap_private.7* %0, %class.ap_private.7** %2, align 8
  call void @llvm.dbg.declare(metadata %class.ap_private.7** %2, metadata !17503, metadata !14900), !dbg !17505
  %3 = load %class.ap_private.7*, %class.ap_private.7** %2, align 8
  %4 = call i64 @_ZNK10ap_privateILi34ELb1ELb1EE7get_VALEv(%class.ap_private.7* %3), !dbg !17506
  ret i64 %4, !dbg !17507
}

; Function Attrs: inlinehint nounwind
define linkonce_odr i32 @_ZNK10ap_privateILi32ELb0ELb1EEcvjEv(%class.ap_private.6*) #5 comdat align 2 !dbg !17508 !xidane.fname !17509 !xidane.function_declaration_type !17502 !xidane.function_declaration_filename !17314 {
  %2 = alloca %class.ap_private.6*, align 8
  store %class.ap_private.6* %0, %class.ap_private.6** %2, align 8
  call void @llvm.dbg.declare(metadata %class.ap_private.6** %2, metadata !17510, metadata !14900), !dbg !17512
  %3 = load %class.ap_private.6*, %class.ap_private.6** %2, align 8
  %4 = call i32 @_ZNK10ap_privateILi32ELb0ELb1EE7get_VALEv(%class.ap_private.6* %3), !dbg !17513
  ret i32 %4, !dbg !17514
}

; Function Attrs: inlinehint nounwind
