; ModuleID = '/home/ylxiao_seas_upenn_edu/Roseetta/rosetta/spam-filter/src/host/spam_filter.cpp'
source_filename = "/home/ylxiao_seas_upenn_edu/Roseetta/rosetta/spam-filter/src/host/spam_filter.cpp"
target datalayout = "e-m:e-i8:8:32-i16:16:32-i64:64-i128:128-n32:64-S128"
target triple = "aarch64--linux-gnu"

%"class.std::ios_base::Init" = type { i8 }
%struct._IO_FILE = type { i32, i8*, i8*, i8*, i8*, i8*, i8*, i8*, i8*, i8*, i8*, i8*, %struct._IO_marker*, %struct._IO_FILE*, i32, i32, i64, i16, i8, [1 x i8], i8*, i64, i8*, i8*, i8*, i8*, i64, i32, [20 x i8] }
%struct._IO_marker = type { %struct._IO_marker*, %struct._IO_FILE*, i32 }
%"class.std::__cxx11::basic_string" = type { %"struct.std::__cxx11::basic_string<char, std::char_traits<char>, std::allocator<char> >::_Alloc_hider", i64, %union.anon }
%"struct.std::__cxx11::basic_string<char, std::char_traits<char>, std::allocator<char> >::_Alloc_hider" = type { i8* }
%union.anon = type { i64, [8 x i8] }
%"class.std::allocator" = type { i8 }
%class.ap_fixed = type { %struct.ap_fixed_base }
%struct.ap_fixed_base = type { %class.ap_private }
%class.ap_private = type { i16 }
%class.ap_uint = type { %class.ap_private.0 }
%class.ap_private.0 = type { i8 }
%class.ap_fixed.1 = type { %struct.ap_fixed_base.2 }
%struct.ap_fixed_base.2 = type { %class.ap_private.3 }
%class.ap_private.3 = type { i32 }
%struct.timeval = type { i64, i64 }
%class.ap_uint.4 = type { %class.ap_private.5 }
%class.ap_private.5 = type { i64 }
%class.ap_uint.6 = type { %class.ap_private.7 }
%class.ap_private.7 = type { i32 }
%struct.ap_range_ref = type { %class.ap_private.5*, i32, i32 }
%struct.af_range_ref = type { %struct.ap_fixed_base*, i32, i32 }
%struct.ap_range_ref.8 = type { %class.ap_private.7*, i32, i32 }
%struct.ap_range_ref.9 = type { %class.ap_private.0*, i32, i32 }
%struct.af_range_ref.10 = type { %struct.ap_fixed_base.2*, i32, i32 }
%struct.timezone = type { i32, i32 }
%class.ap_private.11 = type { i64 }
%struct.ap_range_ref.12 = type { %class.ap_private.11*, i32, i32 }
%class.ap_private.13 = type { [2 x i64] }
%union.anon.14 = type { i64 }
%class.ap_private.15 = type { i64 }
%struct.ap_bit_ref = type <{ %class.ap_private.11*, i32, [4 x i8] }>
%struct.ap_fixed_base.16 = type { %class.ap_private.3 }
%struct.ap_bit_ref.17 = type <{ %class.ap_private.5*, i32, [4 x i8] }>
%class.ap_private.19 = type { i16 }
%struct.ap_bit_ref.20 = type <{ %class.ap_private*, i32, [4 x i8] }>
%struct.ap_bit_ref.24 = type <{ %class.ap_private.7*, i32, [4 x i8] }>
%struct.ap_bit_ref.22 = type <{ %class.ap_private.0*, i32, [4 x i8] }>
%struct.ap_bit_ref.26 = type <{ %class.ap_private.3*, i32, [4 x i8] }>

$_ZN8ap_fixedILi16ELi4EL9ap_q_mode5EL9ap_o_mode3ELi0EEC2Ev = comdat any

$_ZN8ap_fixedILi16ELi4EL9ap_q_mode5EL9ap_o_mode3ELi0EED2Ev = comdat any

$_ZN7ap_uintILi8EEC2Ev = comdat any

$_ZN7ap_uintILi8EED2Ev = comdat any

$_ZN8ap_fixedILi32ELi13EL9ap_q_mode5EL9ap_o_mode3ELi0EEC2Ev = comdat any

$_ZN8ap_fixedILi32ELi13EL9ap_q_mode5EL9ap_o_mode3ELi0EED2Ev = comdat any

$_ZStplIcSt11char_traitsIcESaIcEENSt7__cxx1112basic_stringIT_T0_T1_EERKS8_PKS5_ = comdat any

$_ZN8ap_fixedILi16ELi4EL9ap_q_mode5EL9ap_o_mode3ELi0EEaSERKS2_ = comdat any

$_ZN8ap_fixedILi16ELi4EL9ap_q_mode5EL9ap_o_mode3ELi0EEC2Ef = comdat any

$_ZN7ap_uintILi8EEaSERKS0_ = comdat any

$_ZN7ap_uintILi8EEC2Ei = comdat any

$_ZN8ap_fixedILi32ELi13EL9ap_q_mode5EL9ap_o_mode3ELi0EEaSERKS2_ = comdat any

$_ZN8ap_fixedILi32ELi13EL9ap_q_mode5EL9ap_o_mode3ELi0EEC2Ei = comdat any

$_ZN10ap_privateILi64ELb0ELb1EE5rangeEii = comdat any

$_ZN12ap_range_refILi64ELb0EEaSILi16ELi4ELb1EL9ap_q_mode5EL9ap_o_mode3ELi0EEERS0_RK12af_range_refIXT_EXT0_EXT1_EXT2_EXT3_EXT4_EE = comdat any

$_ZN13ap_fixed_baseILi16ELi4ELb1EL9ap_q_mode5EL9ap_o_mode3ELi0EE5rangeEii = comdat any

$_ZN10ap_privateILi32ELb0ELb1EE5rangeEii = comdat any

$_ZN12ap_range_refILi32ELb0EEaSILi8ELb0EEERS0_RKS_IXT_EXT0_EE = comdat any

$_ZN10ap_privateILi8ELb0ELb1EE5rangeEii = comdat any

$_ZN12ap_range_refILi64ELb0EEaSILi32ELi13ELb1EL9ap_q_mode5EL9ap_o_mode3ELi0EEERS0_RK12af_range_refIXT_EXT0_EXT1_EXT2_EXT3_EXT4_EE = comdat any

$_ZN13ap_fixed_baseILi32ELi13ELb1EL9ap_q_mode5EL9ap_o_mode3ELi0EE5rangeEii = comdat any

$_ZN12af_range_refILi32ELi13ELb1EL9ap_q_mode5EL9ap_o_mode3ELi0EEaSILi64ELb0EEERS2_RK12ap_range_refIXT_EXT0_EE = comdat any

$_ZN10ap_privateILi16ELb1ELb1EED2Ev = comdat any

$_ZN10ap_privateILi16ELb1ELb1EE12check_canaryEv = comdat any

$__clang_call_terminate = comdat any

$_ZN10ap_privateILi8ELb0ELb1EE12check_canaryEv = comdat any

$_ZN10ap_privateILi32ELb1ELb1EED2Ev = comdat any

$_ZN10ap_privateILi32ELb1ELb1EE12check_canaryEv = comdat any

$_ZN13ap_fixed_baseILi16ELi4ELb1EL9ap_q_mode5EL9ap_o_mode3ELi0EEC2Ev = comdat any

$_ZN10ap_privateILi16ELb1ELb1EEC2Ev = comdat any

$_ZN10ap_privateILi16ELb1ELb1EE10set_canaryEv = comdat any

$_ZN10ap_privateILi16ELb1ELb1EE15clearUnusedBitsEv = comdat any

$_ZN10ap_privateILi8ELb0ELb1EEC2Ev = comdat any

$_ZN10ap_privateILi8ELb0ELb1EE10set_canaryEv = comdat any

$_ZN10ap_privateILi8ELb0ELb1EE15clearUnusedBitsEv = comdat any

$_ZN13ap_fixed_baseILi32ELi13ELb1EL9ap_q_mode5EL9ap_o_mode3ELi0EEC2Ev = comdat any

$_ZN10ap_privateILi32ELb1ELb1EEC2Ev = comdat any

$_ZN10ap_privateILi32ELb1ELb1EE10set_canaryEv = comdat any

$_ZN10ap_privateILi32ELb1ELb1EE15clearUnusedBitsEv = comdat any

$_ZN13ap_fixed_baseILi16ELi4ELb1EL9ap_q_mode5EL9ap_o_mode3ELi0EEC2Ef = comdat any

$_ZN10ap_privateILi16ELb1ELb1EEC2Ei = comdat any

$_ZN13ap_fixed_baseILi16ELi4ELb1EL9ap_q_mode5EL9ap_o_mode3ELi0EEaSERKS2_ = comdat any

$_ZN13ap_fixed_baseILi16ELi4ELb1EL9ap_q_mode5EL9ap_o_mode3ELi0EEC2Ed = comdat any

$_ZN13ap_fixed_baseILi16ELi4ELb1EL9ap_q_mode5EL9ap_o_mode3ELi0EED2Ev = comdat any

$_ZN10ap_privateILi16ELb1ELb1EEaSERKS0_ = comdat any

$_ZNK10ap_privateILi16ELb1ELb1EE7get_VALEv = comdat any

$_ZNK13ap_fixed_baseILi16ELi4ELb1EL9ap_q_mode5EL9ap_o_mode3ELi0EE15doubleToRawBitsEd = comdat any

$_ZN10ap_privateILi54ELb1ELb1EEC2Ey = comdat any

$_ZneILi54ELb1EEbRK12ap_range_refIXT_EXT0_EEi = comdat any

$_ZN10ap_privateILi54ELb1ELb1EE5rangeEii = comdat any

$_ZN10ap_privateILi54ELb1ELb1EE5clearEj = comdat any

$_ZN10ap_privateILi54ELb1ELb1EE3setEj = comdat any

$_ZN10ap_privateILi54ELb1ELb1EE4flipEv = comdat any

$_ZN10ap_privateILi54ELb1ELb1EEppEi = comdat any

$_ZN10ap_privateILi54ELb1ELb1EED2Ev = comdat any

$_ZN10ap_privateILi16ELb1ELb1EEaSILi54ELb1EEERS0_RKS_IXT_EXT0_EXleT_Li64EEE = comdat any

$_ZorILi54ELb1EEN10ap_privateIXT_EXT0_EXleT_Li64EEE5RTypeIXLi64EEXLb0EEE5logicERKS1_y = comdat any

$_ZNK10ap_privateILi54ELb1ELb1EErsEj = comdat any

$_ZanILi54ELb1EEN10ap_privateIXT_EXT0_EXleT_Li64EEE5RTypeIXLi64EEXLb0EEE5logicERKS1_y = comdat any

$_ZNK10ap_privateILi65ELb1ELb0EEcvlEv = comdat any

$_ZN10ap_privateILi54ELb1ELb1EEC2ILi65ELb1ELb0EEERKS_IXT_EXT0_EXT1_EE = comdat any

$_ZN10ap_privateILi65ELb1ELb0EED2Ev = comdat any

$_ZN10ap_privateILi16ELb1ELb1EElSEj = comdat any

$_ZN13ap_fixed_baseILi16ELi4ELb1EL9ap_q_mode5EL9ap_o_mode3ELi0EE6reportEv = comdat any

$_ZN10ap_privateILi54ELb1ELb1EE10set_canaryEv = comdat any

$_ZN10ap_privateILi54ELb1ELb1EE15clearUnusedBitsEv = comdat any

$_ZN10ap_privateILi54ELb1ELb1EE12check_canaryEv = comdat any

$_ZN10ap_privateILi54ELb0ELb1EEC2ILi54ELb1EEERK12ap_range_refIXT_EXT0_EE = comdat any

$_ZNK10ap_privateILi54ELb0ELb1EEneILi32ELb1EEEbRKS_IXT_EXT0_EXleT_Li64EEE = comdat any

$_ZN10ap_privateILi32ELb1ELb1EEC2Ei = comdat any

$_ZN10ap_privateILi54ELb0ELb1EED2Ev = comdat any

$_ZN10ap_privateILi54ELb0ELb1EE10set_canaryEv = comdat any

$_ZN10ap_privateILi54ELb0ELb1EEaSERKS0_ = comdat any

$_ZNK12ap_range_refILi54ELb1EE3getEv = comdat any

$_ZN10ap_privateILi54ELb0ELb1EE12check_canaryEv = comdat any

$_ZNK10ap_privateILi54ELb0ELb1EE7get_VALEv = comdat any

$_ZN10ap_privateILi54ELb0ELb1EEC2Ei = comdat any

$_ZN10ap_privateILi54ELb1ELb1EEixEi = comdat any

$_ZNK10ap_bit_refILi54ELb1EEcvbEv = comdat any

$_ZN10ap_privateILi54ELb0ELb1EE3setEj = comdat any

$_ZN10ap_privateILi54ELb0ELb1EEaSILi54ELb1EEERS0_RKS_IXT_EXT0_EXleT_Li64EEE = comdat any

$_ZrSILi54ELb0EER10ap_privateIXT_EXT0_EXleT_Li64EEES2_i = comdat any

$_ZN10ap_privateILi54ELb0ELb1EEaNEm = comdat any

$_ZN10ap_privateILi54ELb0ELb1EE15clearUnusedBitsEv = comdat any

$_ZN10ap_bit_refILi54ELb1EEC2ER10ap_privateILi54ELb1ELb1EEi = comdat any

$_ZNK10ap_privateILi54ELb1ELb1EE7get_bitEi = comdat any

$_ZNK10ap_privateILi54ELb1ELb1EE7get_VALEv = comdat any

$_ZNK10ap_privateILi54ELb0ELb1EErsEi = comdat any

$_ZNK10ap_privateILi54ELb0ELb1EE10isNegativeEv = comdat any

$_ZNK10ap_privateILi54ELb0ELb1EElsEi = comdat any

$_ZNK10ap_privateILi54ELb0ELb1EE4lshrEj = comdat any

$_ZNK10ap_privateILi54ELb0ELb1EE3shlEj = comdat any

$_ZN10ap_privateILi54ELb0ELb1EEC2Em = comdat any

$_ZNK10ap_privateILi54ELb0ELb1EEeqILi32ELb1EEEbRKS_IXT_EXT0_EXleT_Li64EEE = comdat any

$_ZN10ap_privateILi54ELb0ELb1EEC2ILi32ELb1ELb1EEERKS_IXT_EXT0_EXT1_EE = comdat any

$_ZN10ap_privateILi54ELb0ELb1EE7get_VALEv = comdat any

$_ZNK10ap_privateILi32ELb1ELb1EE7get_VALEv = comdat any

$_ZN12ap_range_refILi54ELb1EEC2EP10ap_privateILi54ELb1ELb1EEii = comdat any

$_ZNK10ap_privateILi54ELb1ELb1EEorILi64ELb0EEENS0_5RTypeIXT_EXT0_EE5logicERKS_IXT_EXT0_EXleT_Li64EEE = comdat any

$_ZN10ap_privateILi64ELb0ELb1EEC2Ey = comdat any

$_ZN10ap_privateILi64ELb0ELb1EED2Ev = comdat any

$_ZN10ap_privateILi65ELb1ELb0EEC2ILi54ELb1EEERKS_IXT_EXT0_ELb1EE = comdat any

$_ZNK10ap_privateILi65ELb1ELb0EEorILi64ELb0EEENS0_5RTypeIXT_EXT0_EE5logicERKS_IXT_EXT0_EXleT_Li64EEE = comdat any

$_ZN10ap_privateILi65ELb1ELb0EE10set_canaryEv = comdat any

$_ZNK10ap_privateILi54ELb1ELb1EE10isNegativeEv = comdat any

$_ZN10ap_privateILi65ELb1ELb0EE15clearUnusedBitsEv = comdat any

$_ZN10ap_privateILi65ELb1ELb0EE12check_canaryEv = comdat any

$_ZN10ap_privateILi65ELb1ELb0EEC2Ev = comdat any

$_ZSt3minIiERKT_S2_S2_ = comdat any

$_ZSt3maxIiERKT_S2_S2_ = comdat any

$_ZN10ap_privateILi65ELb1ELb0EE8set_pValEim = comdat any

$_ZNK10ap_privateILi64ELb0ELb1EE8get_pValEi = comdat any

$_ZNK10ap_privateILi64ELb0ELb1EE10isNegativeEv = comdat any

$_ZNK10ap_privateILi65ELb1ELb0EE10isNegativeEv = comdat any

$_ZN10ap_privateILi64ELb0ELb1EE10set_canaryEv = comdat any

$_ZN10ap_privateILi64ELb0ELb1EE15clearUnusedBitsEv = comdat any

$_ZN10ap_privateILi64ELb0ELb1EE12check_canaryEv = comdat any

$_ZN10ap_privateILi54ELb1ELb1EEC2Ei = comdat any

$_ZNK10ap_privateILi54ELb1ELb1EE4ashrEj = comdat any

$_ZN10ap_privateILi54ELb1ELb1EEC2El = comdat any

$_ZNK10ap_privateILi54ELb1ELb1EEanILi64ELb0EEENS0_5RTypeIXT_EXT0_EE5logicERKS_IXT_EXT0_EXleT_Li64EEE = comdat any

$_ZNK10ap_privateILi65ELb1ELb0EEanILi64ELb0EEENS0_5RTypeIXT_EXT0_EE5logicERKS_IXT_EXT0_EXleT_Li64EEE = comdat any

$_ZNK10ap_privateILi65ELb1ELb0EE7get_VALEv = comdat any

$_ZN10ap_privateILi8ELb0ELb1EEaSERKS0_ = comdat any

$_ZNK10ap_privateILi8ELb0ELb1EE7get_VALEv = comdat any

$_ZN13ap_fixed_baseILi32ELi13ELb1EL9ap_q_mode5EL9ap_o_mode3ELi0EEC2Ei = comdat any

$_ZN13ap_fixed_baseILi32ELi13ELb1EL9ap_q_mode5EL9ap_o_mode3ELi0EEaSERKS2_ = comdat any

$_ZN13ap_fixed_baseILi32ELi13ELb1EL9ap_q_mode5EL9ap_o_mode3ELi0EEC2ILi32ELb1EEERK10ap_privateIXT_EXT0_EXleT_Li64EEE = comdat any

$_ZN13ap_fixed_baseILi32ELi13ELb1EL9ap_q_mode5EL9ap_o_mode3ELi0EED2Ev = comdat any

$_ZN13ap_fixed_baseILi32ELi13ELb1EL9ap_q_mode5EL9ap_o_mode3ELi0EE6reportEv = comdat any

$_ZN10ap_privateILi32ELb1ELb1EEaSERKS0_ = comdat any

$_ZN13ap_fixed_baseILi32ELi32ELb1EL9ap_q_mode5EL9ap_o_mode3ELi0EEC2Ev = comdat any

$_ZN13ap_fixed_baseILi32ELi13ELb1EL9ap_q_mode5EL9ap_o_mode3ELi0EEC2ILi32ELi32ELb1ELS0_5ELS1_3ELi0EEERKS_IXT_EXT0_EXT1_EXT2_EXT3_EXT4_EE = comdat any

$_ZN13ap_fixed_baseILi32ELi32ELb1EL9ap_q_mode5EL9ap_o_mode3ELi0EED2Ev = comdat any

$_ZNK13ap_fixed_baseILi32ELi32ELb1EL9ap_q_mode5EL9ap_o_mode3ELi0EEntEv = comdat any

$_ZNK10ap_privateILi32ELb1ELb1EE10isNegativeEv = comdat any

$_ZlSILi32ELb1EER10ap_privateIXT_EXT0_EXleT_Li64EEES2_i = comdat any

$_ZNK10ap_privateILi32ELb1ELb1EEntEv = comdat any

$_ZNK10ap_privateILi32ELb1ELb1EElsEi = comdat any

$_ZNK10ap_privateILi32ELb1ELb1EErsEi = comdat any

$_ZNK10ap_privateILi32ELb1ELb1EE3shlEj = comdat any

$_ZNK10ap_privateILi32ELb1ELb1EE4ashrEj = comdat any

$_ZN10ap_privateILi32ELb1ELb1EEC2El = comdat any

$_ZN12ap_range_refILi64ELb0EEC2EP10ap_privateILi64ELb0ELb1EEii = comdat any

$_ZN12af_range_refILi16ELi4ELb1EL9ap_q_mode5EL9ap_o_mode3ELi0EEC2EP13ap_fixed_baseILi16ELi4ELb1ELS0_5ELS1_3ELi0EEii = comdat any

$_ZN12ap_range_refILi64ELb0EEaSILi16ELb1EEERS0_RK10ap_privateIXT_EXT0_EXleT_Li64EEE = comdat any

$_ZN10ap_privateILi16ELb1ELb1EEC2ILi16ELi4ELb1EL9ap_q_mode5EL9ap_o_mode3ELi0EEERK12af_range_refIXT_EXT0_EXT1_EXT2_EXT3_EXT4_EE = comdat any

$_ZN10ap_privateILi64ELb0ELb1EEC2ILi16ELb1ELb1EEERKS_IXT_EXT0_EXT1_EE = comdat any

$_ZN10ap_privateILi64ELb0ELb1EEixEi = comdat any

$_ZNK10ap_bit_refILi64ELb0EEcvbEv = comdat any

$_ZN10ap_privateILi64ELb0ELb1EE3setEj = comdat any

$_ZN10ap_privateILi64ELb0ELb1EE5clearEj = comdat any

$_ZN10ap_privateILi64ELb0ELb1EEaSERKS0_ = comdat any

$_ZanILi64ELb0EEN10ap_privateILi32ELb0ELb1EE5RTypeIXT_EXT0_EE5logicEmRKS0_IXT_EXT0_EXleT_Li64EEE = comdat any

$_ZNK10ap_privateILi64ELb0ELb1EElsEi = comdat any

$_ZN10ap_privateILi64ELb0ELb1EEaNEm = comdat any

$_ZN10ap_privateILi64ELb0ELb1EEoRILi64ELb0EEERS0_RKS_IXT_EXT0_EXleT_Li64EEE = comdat any

$_ZN10ap_bit_refILi64ELb0EEC2ER10ap_privateILi64ELb0ELb1EEi = comdat any

$_ZNK10ap_privateILi64ELb0ELb1EE7get_bitEi = comdat any

$_ZNK10ap_privateILi64ELb0ELb1EE7get_VALEv = comdat any

$_ZN10ap_privateILi32ELb0ELb1EEC2Em = comdat any

$_ZNK10ap_privateILi32ELb0ELb1EEanILi64ELb0EEENS0_5RTypeIXT_EXT0_EE5logicERKS_IXT_EXT0_EXleT_Li64EEE = comdat any

$_ZN10ap_privateILi32ELb0ELb1EED2Ev = comdat any

$_ZN10ap_privateILi32ELb0ELb1EE10set_canaryEv = comdat any

$_ZN10ap_privateILi32ELb0ELb1EE15clearUnusedBitsEv = comdat any

$_ZN10ap_privateILi32ELb0ELb1EE12check_canaryEv = comdat any

$_ZN10ap_privateILi64ELb0ELb1EEC2Em = comdat any

$_ZN10ap_privateILi64ELb0ELb1EEC2Ei = comdat any

$_ZNK10ap_privateILi64ELb0ELb1EErsEi = comdat any

$_ZNK10ap_privateILi64ELb0ELb1EE3shlEj = comdat any

$_ZNK10ap_privateILi64ELb0ELb1EE4lshrEj = comdat any

$_ZN10ap_privateILi16ELb1ELb1EEaSILi16ELb0EEERS0_RKS_IXT_EXT0_EXleT_Li64EEE = comdat any

$_ZNK12af_range_refILi16ELi4ELb1EL9ap_q_mode5EL9ap_o_mode3ELi0EEcv10ap_privateILi16ELb0ELb1EEEv = comdat any

$_ZN10ap_privateILi16ELb0ELb1EED2Ev = comdat any

$_ZNK10ap_privateILi16ELb0ELb1EE7get_VALEv = comdat any

$_ZN10ap_privateILi16ELb0ELb1EEC2ILi16ELb1ELb1EEERKS_IXT_EXT0_EXT1_EE = comdat any

$_ZN10ap_privateILi16ELb0ELb1EEC2Ei = comdat any

$_ZrSILi16ELb0EER10ap_privateIXT_EXT0_EXleT_Li64EEES2_i = comdat any

$_ZN10ap_privateILi16ELb0ELb1EEaNILi16ELb0EEERS0_RKS_IXT_EXT0_EXleT_Li64EEE = comdat any

$_ZN10ap_privateILi16ELb1ELb1EEixEi = comdat any

$_ZNK10ap_bit_refILi16ELb1EEcvbEv = comdat any

$_ZN10ap_privateILi16ELb0ELb1EE3setEj = comdat any

$_ZN10ap_privateILi16ELb0ELb1EE10set_canaryEv = comdat any

$_ZN10ap_privateILi16ELb0ELb1EE15clearUnusedBitsEv = comdat any

$_ZN10ap_privateILi16ELb0ELb1EE12check_canaryEv = comdat any

$_ZN10ap_privateILi16ELb0ELb1EEaSERKS0_ = comdat any

$_ZNK10ap_privateILi16ELb0ELb1EErsEi = comdat any

$_ZNK10ap_privateILi16ELb0ELb1EE10isNegativeEv = comdat any

$_ZNK10ap_privateILi16ELb0ELb1EElsEi = comdat any

$_ZNK10ap_privateILi16ELb0ELb1EE4lshrEj = comdat any

$_ZNK10ap_privateILi16ELb0ELb1EE3shlEj = comdat any

$_ZN10ap_privateILi16ELb0ELb1EEC2Em = comdat any

$_ZN10ap_bit_refILi16ELb1EEC2ER10ap_privateILi16ELb1ELb1EEi = comdat any

$_ZNK10ap_privateILi16ELb1ELb1EE7get_bitEi = comdat any

$_ZN12ap_range_refILi32ELb0EEC2EP10ap_privateILi32ELb0ELb1EEii = comdat any

$_ZN12ap_range_refILi8ELb0EEC2EP10ap_privateILi8ELb0ELb1EEii = comdat any

$_ZN10ap_privateILi32ELb0ELb1EEC2ILi8ELb0EEERK12ap_range_refIXT_EXT0_EE = comdat any

$_ZN12ap_range_refILi32ELb0EEaSILi32ELb0EEERS0_RK10ap_privateIXT_EXT0_EXleT_Li64EEE = comdat any

$_ZN10ap_privateILi32ELb0ELb1EEaSILi8ELb0EEERS0_RKS_IXT_EXT0_EXleT_Li64EEE = comdat any

$_ZNK12ap_range_refILi8ELb0EE3getEv = comdat any

$_ZN10ap_privateILi8ELb0ELb1EED2Ev = comdat any

$_ZN10ap_privateILi8ELb0ELb1EEC2Ei = comdat any

$_ZN10ap_privateILi8ELb0ELb1EEixEi = comdat any

$_ZNK10ap_bit_refILi8ELb0EEcvbEv = comdat any

$_ZN10ap_privateILi8ELb0ELb1EE3setEj = comdat any

$_ZrSILi8ELb0EER10ap_privateIXT_EXT0_EXleT_Li64EEES2_i = comdat any

$_ZN10ap_privateILi8ELb0ELb1EEaNEm = comdat any

$_ZN10ap_bit_refILi8ELb0EEC2ER10ap_privateILi8ELb0ELb1EEi = comdat any

$_ZNK10ap_privateILi8ELb0ELb1EE7get_bitEi = comdat any

$_ZNK10ap_privateILi8ELb0ELb1EErsEi = comdat any

$_ZNK10ap_privateILi8ELb0ELb1EE10isNegativeEv = comdat any

$_ZNK10ap_privateILi8ELb0ELb1EElsEi = comdat any

$_ZNK10ap_privateILi8ELb0ELb1EE4lshrEj = comdat any

$_ZNK10ap_privateILi8ELb0ELb1EE3shlEj = comdat any

$_ZN10ap_privateILi8ELb0ELb1EEC2Em = comdat any

$_ZN10ap_privateILi32ELb0ELb1EEixEi = comdat any

$_ZNK10ap_bit_refILi32ELb0EEcvbEv = comdat any

$_ZN10ap_privateILi32ELb0ELb1EE3setEj = comdat any

$_ZN10ap_privateILi32ELb0ELb1EE5clearEj = comdat any

$_ZN10ap_privateILi32ELb0ELb1EEaSERKS0_ = comdat any

$_ZanILi32ELb0EEN10ap_privateILi32ELb0ELb1EE5RTypeIXT_EXT0_EE5logicEmRKS0_IXT_EXT0_EXleT_Li64EEE = comdat any

$_ZNK10ap_privateILi32ELb0ELb1EElsEi = comdat any

$_ZN10ap_privateILi32ELb0ELb1EEaNEm = comdat any

$_ZN10ap_privateILi32ELb0ELb1EEoRILi32ELb0EEERS0_RKS_IXT_EXT0_EXleT_Li64EEE = comdat any

$_ZN10ap_bit_refILi32ELb0EEC2ER10ap_privateILi32ELb0ELb1EEi = comdat any

$_ZNK10ap_privateILi32ELb0ELb1EE7get_bitEi = comdat any

$_ZNK10ap_privateILi32ELb0ELb1EE7get_VALEv = comdat any

$_ZNK10ap_privateILi32ELb0ELb1EEanILi32ELb0EEENS0_5RTypeIXT_EXT0_EE5logicERKS_IXT_EXT0_EXleT_Li64EEE = comdat any

$_ZN10ap_privateILi32ELb0ELb1EEC2Ei = comdat any

$_ZNK10ap_privateILi32ELb0ELb1EErsEi = comdat any

$_ZNK10ap_privateILi32ELb0ELb1EE3shlEj = comdat any

$_ZNK10ap_privateILi32ELb0ELb1EE10isNegativeEv = comdat any

$_ZNK10ap_privateILi32ELb0ELb1EE4lshrEj = comdat any

$_ZN10ap_privateILi32ELb0ELb1EEC2Ej = comdat any

$_ZN12af_range_refILi32ELi13ELb1EL9ap_q_mode5EL9ap_o_mode3ELi0EEC2EP13ap_fixed_baseILi32ELi13ELb1ELS0_5ELS1_3ELi0EEii = comdat any

$_ZN12ap_range_refILi64ELb0EEaSILi32ELb1EEERS0_RK10ap_privateIXT_EXT0_EXleT_Li64EEE = comdat any

$_ZN10ap_privateILi32ELb1ELb1EEC2ILi32ELi13ELb1EL9ap_q_mode5EL9ap_o_mode3ELi0EEERK12af_range_refIXT_EXT0_EXT1_EXT2_EXT3_EXT4_EE = comdat any

$_ZN10ap_privateILi64ELb0ELb1EEC2ILi32ELb1ELb1EEERKS_IXT_EXT0_EXT1_EE = comdat any

$_ZN10ap_privateILi32ELb1ELb1EEaSILi32ELb0EEERS0_RKS_IXT_EXT0_EXleT_Li64EEE = comdat any

$_ZNK12af_range_refILi32ELi13ELb1EL9ap_q_mode5EL9ap_o_mode3ELi0EEcv10ap_privateILi32ELb0ELb1EEEv = comdat any

$_ZN10ap_privateILi32ELb0ELb1EEC2ILi32ELb1ELb1EEERKS_IXT_EXT0_EXT1_EE = comdat any

$_ZrSILi32ELb0EER10ap_privateIXT_EXT0_EXleT_Li64EEES2_i = comdat any

$_ZN10ap_privateILi32ELb0ELb1EEaNILi32ELb0EEERS0_RKS_IXT_EXT0_EXleT_Li64EEE = comdat any

$_ZN10ap_privateILi32ELb1ELb1EEixEi = comdat any

$_ZNK10ap_bit_refILi32ELb1EEcvbEv = comdat any

$_ZN10ap_bit_refILi32ELb1EEC2ER10ap_privateILi32ELb1ELb1EEi = comdat any

$_ZNK10ap_privateILi32ELb1ELb1EE7get_bitEi = comdat any

$_ZN10ap_privateILi32ELb0ELb1EEC2ILi64ELb0EEERK12ap_range_refIXT_EXT0_EE = comdat any

$_ZN12af_range_refILi32ELi13ELb1EL9ap_q_mode5EL9ap_o_mode3ELi0EEaSILi32ELb0EEERS2_RK10ap_privateIXT_EXT0_EXleT_Li64EEE = comdat any

$_ZN10ap_privateILi32ELb0ELb1EEaSILi64ELb0EEERS0_RKS_IXT_EXT0_EXleT_Li64EEE = comdat any

$_ZNK12ap_range_refILi64ELb0EE3getEv = comdat any

$_ZrSILi64ELb0EER10ap_privateIXT_EXT0_EXleT_Li64EEES2_i = comdat any

$_ZN10ap_privateILi32ELb1ELb1EE3setEj = comdat any

$_ZN10ap_privateILi32ELb1ELb1EE5clearEj = comdat any

$_ZlSILi32ELb0EER10ap_privateIXT_EXT0_EXleT_Li64EEES2_i = comdat any

$_ZN10ap_privateILi32ELb0ELb1EE4flipEv = comdat any

$_ZN10ap_privateILi32ELb1ELb1EEaNILi32ELb0EEERS0_RKS_IXT_EXT0_EXleT_Li64EEE = comdat any

$_ZN10ap_privateILi32ELb1ELb1EEoRILi32ELb0EEERS0_RKS_IXT_EXT0_EXleT_Li64EEE = comdat any

$_ZZNK12ap_range_refILi54ELb1EE3getEvE4mask = comdat any

$_ZZNK10ap_privateILi54ELb0ELb1EE10isNegativeEvE9sign_mask = comdat any

$_ZZN10ap_privateILi65ELb1ELb0EEC1ILi54ELb1EEERKS_IXT_EXT0_ELb1EEE18that_sign_ext_mask = comdat any

$_ZZNK10ap_privateILi54ELb1ELb1EE10isNegativeEvE9sign_mask = comdat any

$_ZZNK10ap_privateILi64ELb0ELb1EE10isNegativeEvE9sign_mask = comdat any

$_ZZNK10ap_privateILi65ELb1ELb0EE10isNegativeEvE4mask = comdat any

$_ZZNK10ap_privateILi32ELb1ELb1EE10isNegativeEvE9sign_mask = comdat any

$_ZZNK10ap_privateILi16ELb0ELb1EE10isNegativeEvE9sign_mask = comdat any

$_ZZNK12ap_range_refILi8ELb0EE3getEvE4mask = comdat any

$_ZZNK10ap_privateILi8ELb0ELb1EE10isNegativeEvE9sign_mask = comdat any

$_ZZNK10ap_privateILi32ELb0ELb1EE10isNegativeEvE9sign_mask = comdat any

$_ZZNK12ap_range_refILi64ELb0EE3getEvE4mask = comdat any

@_ZStL8__ioinit = internal global %"class.std::ios_base::Init" zeroinitializer, align 1
@__dso_handle = external global i8
@stdout = external global %struct._IO_FILE*, align 8
@.str = private unnamed_addr constant [25 x i8] c"Spam Filter Application\0A\00", align 1
@.str.1 = private unnamed_addr constant [1 x i8] zeroinitializer, align 1
@.str.2 = private unnamed_addr constant [19 x i8] c"/shuffledfeats.dat\00", align 1
@.str.3 = private unnamed_addr constant [20 x i8] c"/shuffledlabels.dat\00", align 1
@.str.4 = private unnamed_addr constant [2 x i8] c"r\00", align 1
@.str.5 = private unnamed_addr constant [30 x i8] c"Failed to open data file %s!\0A\00", align 1
@.str.6 = private unnamed_addr constant [3 x i8] c"%f\00", align 1
@.str.7 = private unnamed_addr constant [31 x i8] c"Failed to open label file %s!\0A\00", align 1
@.str.8 = private unnamed_addr constant [3 x i8] c"%d\00", align 1
@.str.9 = private unnamed_addr constant [13 x i8] c"epoch %d...\0A\00", align 1
@.str.10 = private unnamed_addr constant [19 x i8] c"Checking results:\0A\00", align 1
@.str.11 = private unnamed_addr constant [23 x i8] c"elapsed time: %lld us\0A\00", align 1
@stderr = external global %struct._IO_FILE*, align 8
@.str.12 = private unnamed_addr constant [69 x i8] c"[E] ap_%sfixed<%d, ...>: trying to assign NaN to fixed point value.\0A\00", align 1
@_ZZNK12ap_range_refILi54ELb1EE3getEvE4mask = linkonce_odr constant i64 18014398509481983, comdat, align 8
@.str.13 = private unnamed_addr constant [56 x i8] c"Warning! Index of bit vector  (%d) cannot be negative.\0A\00", align 1
@.str.14 = private unnamed_addr constant [54 x i8] c"Warning! Index of bit vector (%d) out of range (%d).\0A\00", align 1
@.str.15 = private unnamed_addr constant [43 x i8] c"Attempting to read bit with negative index\00", align 1
@.str.16 = private unnamed_addr constant [55 x i8] c"i >= 0 && \22Attempting to read bit with negative index\22\00", align 1
@.str.17 = private unnamed_addr constant [59 x i8] c"/apps/xilinx/2018.2/Vivado/2018.2/include/etc/ap_private.h\00", align 1
@__PRETTY_FUNCTION__._ZNK10ap_privateILi54ELb1ELb1EE7get_bitEi = private unnamed_addr constant [93 x i8] c"bool ap_private<54, true, true>::get_bit(int) const [_AP_W = 54, _AP_S = true, _AP_C = true]\00", align 1
@.str.18 = private unnamed_addr constant [34 x i8] c"Attempting to read bit beyond MSB\00", align 1
@.str.19 = private unnamed_addr constant [49 x i8] c"i < _AP_W && \22Attempting to read bit beyond MSB\22\00", align 1
@_ZZNK10ap_privateILi54ELb0ELb1EE10isNegativeEvE9sign_mask = linkonce_odr constant i64 9007199254740992, comdat, align 8
@.str.20 = private unnamed_addr constant [69 x i8] c"Warning! Higher bound (%d) and lower bound (%d) cannot be negative.\0A\00", align 1
@.str.21 = private unnamed_addr constant [67 x i8] c"Warning! Higher bound (%d) or lower bound (%d) out of range (%d).\0A\00", align 1
@_ZZN10ap_privateILi65ELb1ELb0EEC1ILi54ELb1EEERKS_IXT_EXT0_ELb1EEE18that_sign_ext_mask = linkonce_odr constant i64 -18014398509481984, comdat, align 8
@_ZZNK10ap_privateILi54ELb1ELb1EE10isNegativeEvE9sign_mask = linkonce_odr constant i64 9007199254740992, comdat, align 8
@_ZZNK10ap_privateILi64ELb0ELb1EE10isNegativeEvE9sign_mask = linkonce_odr constant i64 -9223372036854775808, comdat, align 8
@_ZZNK10ap_privateILi65ELb1ELb0EE10isNegativeEvE4mask = linkonce_odr constant i64 1, comdat, align 8
@_ZZNK10ap_privateILi32ELb1ELb1EE10isNegativeEvE9sign_mask = linkonce_odr constant i64 2147483648, comdat, align 8
@__PRETTY_FUNCTION__._ZNK10ap_privateILi64ELb0ELb1EE7get_bitEi = private unnamed_addr constant [95 x i8] c"bool ap_private<64, false, true>::get_bit(int) const [_AP_W = 64, _AP_S = false, _AP_C = true]\00", align 1
@_ZZNK10ap_privateILi16ELb0ELb1EE10isNegativeEvE9sign_mask = linkonce_odr constant i64 32768, comdat, align 8
@__PRETTY_FUNCTION__._ZNK10ap_privateILi16ELb1ELb1EE7get_bitEi = private unnamed_addr constant [93 x i8] c"bool ap_private<16, true, true>::get_bit(int) const [_AP_W = 16, _AP_S = true, _AP_C = true]\00", align 1
@_ZZNK12ap_range_refILi8ELb0EE3getEvE4mask = linkonce_odr constant i64 255, comdat, align 8
@__PRETTY_FUNCTION__._ZNK10ap_privateILi8ELb0ELb1EE7get_bitEi = private unnamed_addr constant [93 x i8] c"bool ap_private<8, false, true>::get_bit(int) const [_AP_W = 8, _AP_S = false, _AP_C = true]\00", align 1
@_ZZNK10ap_privateILi8ELb0ELb1EE10isNegativeEvE9sign_mask = linkonce_odr constant i64 128, comdat, align 8
@__PRETTY_FUNCTION__._ZNK10ap_privateILi32ELb0ELb1EE7get_bitEi = private unnamed_addr constant [95 x i8] c"bool ap_private<32, false, true>::get_bit(int) const [_AP_W = 32, _AP_S = false, _AP_C = true]\00", align 1
@_ZZNK10ap_privateILi32ELb0ELb1EE10isNegativeEvE9sign_mask = linkonce_odr constant i64 2147483648, comdat, align 8
@__PRETTY_FUNCTION__._ZNK10ap_privateILi32ELb1ELb1EE7get_bitEi = private unnamed_addr constant [93 x i8] c"bool ap_private<32, true, true>::get_bit(int) const [_AP_W = 32, _AP_S = true, _AP_C = true]\00", align 1
@_ZZNK12ap_range_refILi64ELb0EE3getEvE4mask = linkonce_odr constant i64 -1, comdat, align 8
@llvm.global_ctors = appending global [1 x { i32, void ()*, i8* }] [{ i32, void ()*, i8* } { i32 65535, void ()* @_GLOBAL__sub_I_spam_filter.cpp, i8* null }]

define internal void @__cxx_global_var_init() #0 section ".text.startup" !dbg !11104 {
  call void @_ZNSt8ios_base4InitC1Ev(%"class.std::ios_base::Init"* @_ZStL8__ioinit), !dbg !11105
  %1 = call i32 @__cxa_atexit(void (i8*)* bitcast (void (%"class.std::ios_base::Init"*)* @_ZNSt8ios_base4InitD1Ev to void (i8*)*), i8* getelementptr inbounds (%"class.std::ios_base::Init", %"class.std::ios_base::Init"* @_ZStL8__ioinit, i32 0, i32 0), i8* @__dso_handle) #3, !dbg !11106
  ret void, !dbg !11105
}

declare !xidane.fname !11108 !xidane.function_declaration_type !11109 !xidane.function_declaration_filename !11110 void @_ZNSt8ios_base4InitC1Ev(%"class.std::ios_base::Init"*) unnamed_addr #1

; Function Attrs: nounwind
declare !xidane.fname !11111 !xidane.function_declaration_type !11109 !xidane.function_declaration_filename !11110 void @_ZNSt8ios_base4InitD1Ev(%"class.std::ios_base::Init"*) unnamed_addr #2

; Function Attrs: nounwind
declare i32 @__cxa_atexit(void (i8*)*, i8*, i8*) #3

; Function Attrs: norecurse
define i32 @main(i32, i8**) #4 personality i8* bitcast (i32 (...)* @__gxx_personality_v0 to i8*) !dbg !11112 !xidane.fname !11115 !xidane.function_declaration_type !11116 !xidane.function_declaration_filename !11117 {
  %3 = alloca i32, align 4
  %4 = alloca i32, align 4
  %5 = alloca i8**, align 8
  %6 = alloca %"class.std::__cxx11::basic_string", align 8
  %7 = alloca %"class.std::allocator", align 1
  %8 = alloca i8*
  %9 = alloca i32
  %10 = alloca %class.ap_fixed*, align 8
  %11 = alloca %class.ap_uint*, align 8
  %12 = alloca %class.ap_fixed.1*, align 8
  %13 = alloca %"class.std::__cxx11::basic_string", align 8
  %14 = alloca %"class.std::__cxx11::basic_string", align 8
  %15 = alloca %struct._IO_FILE*, align 8
  %16 = alloca %struct._IO_FILE*, align 8
  %17 = alloca i32
  %18 = alloca i32, align 4
  %19 = alloca float, align 4
  %20 = alloca %class.ap_fixed, align 2
  %21 = alloca i32, align 4
  %22 = alloca i32, align 4
  %23 = alloca %class.ap_uint, align 1
  %24 = alloca i64, align 8
  %25 = alloca %class.ap_fixed.1, align 4
  %26 = alloca %struct.timeval, align 8
  %27 = alloca %struct.timeval, align 8
  %28 = alloca %class.ap_uint.4*, align 8
  %29 = alloca %class.ap_uint.6*, align 8
  %30 = alloca %class.ap_uint.4*, align 8
  %31 = alloca i32, align 4
  %32 = alloca i32, align 4
  %33 = alloca %struct.ap_range_ref, align 8
  %34 = alloca %struct.af_range_ref, align 8
  %35 = alloca i32, align 4
  %36 = alloca i32, align 4
  %37 = alloca %struct.ap_range_ref.8, align 8
  %38 = alloca %struct.ap_range_ref.9, align 8
  %39 = alloca i32, align 4
  %40 = alloca i32, align 4
  %41 = alloca %struct.ap_range_ref, align 8
  %42 = alloca %struct.af_range_ref.10, align 8
  %43 = alloca i32, align 4
  %44 = alloca i32, align 4
  %45 = alloca i32, align 4
  %46 = alloca %struct.af_range_ref.10, align 8
  %47 = alloca %struct.ap_range_ref, align 8
  %48 = alloca i64, align 8
  store i32 0, i32* %3, align 4
  store i32 %0, i32* %4, align 4
  call void @llvm.dbg.declare(metadata i32* %4, metadata !11118, metadata !11119), !dbg !11120
  store i8** %1, i8*** %5, align 8
  call void @llvm.dbg.declare(metadata i8*** %5, metadata !11121, metadata !11119), !dbg !11122
  %49 = load %struct._IO_FILE*, %struct._IO_FILE** @stdout, align 8, !dbg !11123
  call void @setbuf(%struct._IO_FILE* %49, i8* null) #3, !dbg !11124
  %50 = call i32 (i8*, ...) @printf(i8* getelementptr inbounds ([25 x i8], [25 x i8]* @.str, i32 0, i32 0)), !dbg !11125
  call void @llvm.dbg.declare(metadata %"class.std::__cxx11::basic_string"* %6, metadata !11126, metadata !11119), !dbg !11127
  call void @_ZNSaIcEC1Ev(%"class.std::allocator"* %7) #3, !dbg !11127
  invoke void @_ZNSt7__cxx1112basic_stringIcSt11char_traitsIcESaIcEEC1EPKcRKS3_(%"class.std::__cxx11::basic_string"* %6, i8* getelementptr inbounds ([1 x i8], [1 x i8]* @.str.1, i32 0, i32 0), %"class.std::allocator"* dereferenceable(1) %7)
          to label %51 unwind label %102, !dbg !11127

; <label>:51:                                     ; preds = %2
  call void @_ZNSaIcED1Ev(%"class.std::allocator"* %7) #3, !dbg !11128
  %52 = load i32, i32* %4, align 4, !dbg !11130
  %53 = load i8**, i8*** %5, align 8, !dbg !11131
  invoke void @_Z29parse_sdsoc_command_line_argsiPPcRNSt7__cxx1112basic_stringIcSt11char_traitsIcESaIcEEE(i32 %52, i8** %53, %"class.std::__cxx11::basic_string"* dereferenceable(32) %6)
          to label %54 unwind label %106, !dbg !11132

; <label>:54:                                     ; preds = %51
  call void @llvm.dbg.declare(metadata %class.ap_fixed** %10, metadata !11133, metadata !11119), !dbg !11136
  %55 = invoke i8* @_Znam(i64 10240008) #15
          to label %56 unwind label %106, !dbg !11137

; <label>:56:                                     ; preds = %54
  %57 = bitcast i8* %55 to i64*, !dbg !11138
  store i64 5120000, i64* %57, align 8, !dbg !11138
  %58 = getelementptr inbounds i8, i8* %55, i64 8, !dbg !11138
  %59 = bitcast i8* %58 to %class.ap_fixed*, !dbg !11138
  %60 = getelementptr inbounds %class.ap_fixed, %class.ap_fixed* %59, i64 5120000, !dbg !11138
  br label %61, !dbg !11138

; <label>:61:                                     ; preds = %63, %56
  %62 = phi %class.ap_fixed* [ %59, %56 ], [ %64, %63 ], !dbg !11139
  invoke void @_ZN8ap_fixedILi16ELi4EL9ap_q_mode5EL9ap_o_mode3ELi0EEC2Ev(%class.ap_fixed* %62)
          to label %63 unwind label %110, !dbg !11139

; <label>:63:                                     ; preds = %61
  %64 = getelementptr inbounds %class.ap_fixed, %class.ap_fixed* %62, i64 1, !dbg !11141
  %65 = icmp eq %class.ap_fixed* %64, %60, !dbg !11141
  br i1 %65, label %66, label %61, !dbg !11141

; <label>:66:                                     ; preds = %63
  store %class.ap_fixed* %59, %class.ap_fixed** %10, align 8, !dbg !11143
  call void @llvm.dbg.declare(metadata %class.ap_uint** %11, metadata !11145, metadata !11119), !dbg !11229
  %67 = invoke i8* @_Znam(i64 5008) #15
          to label %68 unwind label %106, !dbg !11230

; <label>:68:                                     ; preds = %66
  %69 = bitcast i8* %67 to i64*, !dbg !11231
  store i64 5000, i64* %69, align 8, !dbg !11231
  %70 = getelementptr inbounds i8, i8* %67, i64 8, !dbg !11231
  %71 = bitcast i8* %70 to %class.ap_uint*, !dbg !11231
  %72 = getelementptr inbounds %class.ap_uint, %class.ap_uint* %71, i64 5000, !dbg !11231
  br label %73, !dbg !11231

; <label>:73:                                     ; preds = %75, %68
  %74 = phi %class.ap_uint* [ %71, %68 ], [ %76, %75 ], !dbg !11232
  invoke void @_ZN7ap_uintILi8EEC2Ev(%class.ap_uint* %74)
          to label %75 unwind label %120, !dbg !11232

; <label>:75:                                     ; preds = %73
  %76 = getelementptr inbounds %class.ap_uint, %class.ap_uint* %74, i64 1, !dbg !11233
  %77 = icmp eq %class.ap_uint* %76, %72, !dbg !11233
  br i1 %77, label %78, label %73, !dbg !11233

; <label>:78:                                     ; preds = %75
  store %class.ap_uint* %71, %class.ap_uint** %11, align 8, !dbg !11234
  call void @llvm.dbg.declare(metadata %class.ap_fixed.1** %12, metadata !11235, metadata !11119), !dbg !11238
  %79 = invoke i8* @_Znam(i64 4104) #15
          to label %80 unwind label %106, !dbg !11239

; <label>:80:                                     ; preds = %78
  %81 = bitcast i8* %79 to i64*, !dbg !11240
  store i64 1024, i64* %81, align 8, !dbg !11240
  %82 = getelementptr inbounds i8, i8* %79, i64 8, !dbg !11240
  %83 = bitcast i8* %82 to %class.ap_fixed.1*, !dbg !11240
  %84 = getelementptr inbounds %class.ap_fixed.1, %class.ap_fixed.1* %83, i64 1024, !dbg !11240
  br label %85, !dbg !11240

; <label>:85:                                     ; preds = %87, %80
  %86 = phi %class.ap_fixed.1* [ %83, %80 ], [ %88, %87 ], !dbg !11241
  invoke void @_ZN8ap_fixedILi32ELi13EL9ap_q_mode5EL9ap_o_mode3ELi0EEC2Ev(%class.ap_fixed.1* %86)
          to label %87 unwind label %130, !dbg !11241

; <label>:87:                                     ; preds = %85
  %88 = getelementptr inbounds %class.ap_fixed.1, %class.ap_fixed.1* %86, i64 1, !dbg !11242
  %89 = icmp eq %class.ap_fixed.1* %88, %84, !dbg !11242
  br i1 %89, label %90, label %85, !dbg !11242

; <label>:90:                                     ; preds = %87
  store %class.ap_fixed.1* %83, %class.ap_fixed.1** %12, align 8, !dbg !11243
  call void @llvm.dbg.declare(metadata %"class.std::__cxx11::basic_string"* %13, metadata !11244, metadata !11119), !dbg !11245
  invoke void @_ZStplIcSt11char_traitsIcESaIcEENSt7__cxx1112basic_stringIT_T0_T1_EERKS8_PKS5_(%"class.std::__cxx11::basic_string"* sret %13, %"class.std::__cxx11::basic_string"* dereferenceable(32) %6, i8* getelementptr inbounds ([19 x i8], [19 x i8]* @.str.2, i32 0, i32 0))
          to label %91 unwind label %106, !dbg !11246

; <label>:91:                                     ; preds = %90
  call void @llvm.dbg.declare(metadata %"class.std::__cxx11::basic_string"* %14, metadata !11247, metadata !11119), !dbg !11248
  invoke void @_ZStplIcSt11char_traitsIcESaIcEENSt7__cxx1112basic_stringIT_T0_T1_EERKS8_PKS5_(%"class.std::__cxx11::basic_string"* sret %14, %"class.std::__cxx11::basic_string"* dereferenceable(32) %6, i8* getelementptr inbounds ([20 x i8], [20 x i8]* @.str.3, i32 0, i32 0))
          to label %92 unwind label %140, !dbg !11249

; <label>:92:                                     ; preds = %91
  call void @llvm.dbg.declare(metadata %struct._IO_FILE** %15, metadata !11250, metadata !11119), !dbg !11251
  call void @llvm.dbg.declare(metadata %struct._IO_FILE** %16, metadata !11252, metadata !11119), !dbg !11253
  %93 = call i8* @_ZNKSt7__cxx1112basic_stringIcSt11char_traitsIcESaIcEE5c_strEv(%"class.std::__cxx11::basic_string"* %13) #3, !dbg !11254
  %94 = invoke %struct._IO_FILE* @fopen(i8* %93, i8* getelementptr inbounds ([2 x i8], [2 x i8]* @.str.4, i32 0, i32 0))
          to label %95 unwind label %144, !dbg !11255

; <label>:95:                                     ; preds = %92
  store %struct._IO_FILE* %94, %struct._IO_FILE** %15, align 8, !dbg !11256
  %96 = load %struct._IO_FILE*, %struct._IO_FILE** %15, align 8, !dbg !11257
  %97 = icmp ne %struct._IO_FILE* %96, null, !dbg !11257
  br i1 %97, label %148, label %98, !dbg !11259

; <label>:98:                                     ; preds = %95
  %99 = call i8* @_ZNKSt7__cxx1112basic_stringIcSt11char_traitsIcESaIcEE5c_strEv(%"class.std::__cxx11::basic_string"* %13) #3, !dbg !11260
  %100 = invoke i32 (i8*, ...) @printf(i8* getelementptr inbounds ([30 x i8], [30 x i8]* @.str.5, i32 0, i32 0), i8* %99)
          to label %101 unwind label %144, !dbg !11262

; <label>:101:                                    ; preds = %98
  store i32 1, i32* %3, align 4, !dbg !11263
  store i32 1, i32* %17, align 4
  br label %502, !dbg !11263

; <label>:102:                                    ; preds = %2
  %103 = landingpad { i8*, i32 }
          cleanup, !dbg !11264
  %104 = extractvalue { i8*, i32 } %103, 0, !dbg !11264
  store i8* %104, i8** %8, align 8, !dbg !11264
  %105 = extractvalue { i8*, i32 } %103, 1, !dbg !11264
  store i32 %105, i32* %9, align 4, !dbg !11264
  call void @_ZNSaIcED1Ev(%"class.std::allocator"* %7) #3, !dbg !11265
  br label %507, !dbg !11265

; <label>:106:                                    ; preds = %90, %78, %66, %54, %51
  %107 = landingpad { i8*, i32 }
          cleanup, !dbg !11266
  %108 = extractvalue { i8*, i32 } %107, 0, !dbg !11266
  store i8* %108, i8** %8, align 8, !dbg !11266
  %109 = extractvalue { i8*, i32 } %107, 1, !dbg !11266
  store i32 %109, i32* %9, align 4, !dbg !11266
  br label %506, !dbg !11266

; <label>:110:                                    ; preds = %61
  %111 = landingpad { i8*, i32 }
          cleanup, !dbg !11267
  %112 = extractvalue { i8*, i32 } %111, 0, !dbg !11267
  store i8* %112, i8** %8, align 8, !dbg !11267
  %113 = extractvalue { i8*, i32 } %111, 1, !dbg !11267
  store i32 %113, i32* %9, align 4, !dbg !11267
  %114 = icmp eq %class.ap_fixed* %59, %62, !dbg !11268
  br i1 %114, label %119, label %115, !dbg !11268

; <label>:115:                                    ; preds = %115, %110
  %116 = phi %class.ap_fixed* [ %62, %110 ], [ %117, %115 ], !dbg !11270
  %117 = getelementptr inbounds %class.ap_fixed, %class.ap_fixed* %116, i64 -1, !dbg !11270
  call void @_ZN8ap_fixedILi16ELi4EL9ap_q_mode5EL9ap_o_mode3ELi0EED2Ev(%class.ap_fixed* %117) #3, !dbg !11270
  %118 = icmp eq %class.ap_fixed* %117, %59, !dbg !11270
  br i1 %118, label %119, label %115, !dbg !11270

; <label>:119:                                    ; preds = %115, %110
  call void @_ZdaPv(i8* %55) #16, !dbg !11272
  br label %506, !dbg !11272

; <label>:120:                                    ; preds = %73
  %121 = landingpad { i8*, i32 }
          cleanup, !dbg !11274
  %122 = extractvalue { i8*, i32 } %121, 0, !dbg !11274
  store i8* %122, i8** %8, align 8, !dbg !11274
  %123 = extractvalue { i8*, i32 } %121, 1, !dbg !11274
  store i32 %123, i32* %9, align 4, !dbg !11274
  %124 = icmp eq %class.ap_uint* %71, %74, !dbg !11275
  br i1 %124, label %129, label %125, !dbg !11275

; <label>:125:                                    ; preds = %125, %120
  %126 = phi %class.ap_uint* [ %74, %120 ], [ %127, %125 ], !dbg !11276
  %127 = getelementptr inbounds %class.ap_uint, %class.ap_uint* %126, i64 -1, !dbg !11276
  call void @_ZN7ap_uintILi8EED2Ev(%class.ap_uint* %127) #3, !dbg !11276
  %128 = icmp eq %class.ap_uint* %127, %71, !dbg !11276
  br i1 %128, label %129, label %125, !dbg !11276

; <label>:129:                                    ; preds = %125, %120
  call void @_ZdaPv(i8* %67) #16, !dbg !11277
  br label %506, !dbg !11277

; <label>:130:                                    ; preds = %85
  %131 = landingpad { i8*, i32 }
          cleanup, !dbg !11278
  %132 = extractvalue { i8*, i32 } %131, 0, !dbg !11278
  store i8* %132, i8** %8, align 8, !dbg !11278
  %133 = extractvalue { i8*, i32 } %131, 1, !dbg !11278
  store i32 %133, i32* %9, align 4, !dbg !11278
  %134 = icmp eq %class.ap_fixed.1* %83, %86, !dbg !11279
  br i1 %134, label %139, label %135, !dbg !11279

; <label>:135:                                    ; preds = %135, %130
  %136 = phi %class.ap_fixed.1* [ %86, %130 ], [ %137, %135 ], !dbg !11280
  %137 = getelementptr inbounds %class.ap_fixed.1, %class.ap_fixed.1* %136, i64 -1, !dbg !11280
  call void @_ZN8ap_fixedILi32ELi13EL9ap_q_mode5EL9ap_o_mode3ELi0EED2Ev(%class.ap_fixed.1* %137) #3, !dbg !11280
  %138 = icmp eq %class.ap_fixed.1* %137, %83, !dbg !11280
  br i1 %138, label %139, label %135, !dbg !11280

; <label>:139:                                    ; preds = %135, %130
  call void @_ZdaPv(i8* %79) #16, !dbg !11281
  br label %506, !dbg !11281

; <label>:140:                                    ; preds = %91
  %141 = landingpad { i8*, i32 }
          cleanup, !dbg !11282
  %142 = extractvalue { i8*, i32 } %141, 0, !dbg !11282
  store i8* %142, i8** %8, align 8, !dbg !11282
  %143 = extractvalue { i8*, i32 } %141, 1, !dbg !11282
  store i32 %143, i32* %9, align 4, !dbg !11282
  br label %505, !dbg !11282

; <label>:144:                                    ; preds = %453, %450, %447, %432, %428, %426, %416, %404, %394, %371, %368, %353, %343, %331, %311, %301, %289, %269, %259, %247, %233, %230, %228, %214, %207, %191, %188, %180, %174, %171, %155, %152, %98, %92
  %145 = landingpad { i8*, i32 }
          cleanup, !dbg !11283
  %146 = extractvalue { i8*, i32 } %145, 0, !dbg !11283
  store i8* %146, i8** %8, align 8, !dbg !11283
  %147 = extractvalue { i8*, i32 } %145, 1, !dbg !11283
  store i32 %147, i32* %9, align 4, !dbg !11283
  br label %504, !dbg !11283

; <label>:148:                                    ; preds = %95
  call void @llvm.dbg.declare(metadata i32* %18, metadata !11284, metadata !11119), !dbg !11286
  store i32 0, i32* %18, align 4, !dbg !11286
  br label %149, !dbg !11287

; <label>:149:                                    ; preds = %164, %148
  %150 = load i32, i32* %18, align 4, !dbg !11288
  %151 = icmp slt i32 %150, 5120000, !dbg !11291
  br i1 %151, label %152, label %171, !dbg !11292

; <label>:152:                                    ; preds = %149
  call void @llvm.dbg.declare(metadata float* %19, metadata !11293, metadata !11119), !dbg !11295
  %153 = load %struct._IO_FILE*, %struct._IO_FILE** %15, align 8, !dbg !11296
  %154 = invoke i32 (%struct._IO_FILE*, i8*, ...) @fscanf(%struct._IO_FILE* %153, i8* getelementptr inbounds ([3 x i8], [3 x i8]* @.str.6, i32 0, i32 0), float* %19)
          to label %155 unwind label %144, !dbg !11297

; <label>:155:                                    ; preds = %152
  %156 = load i32, i32* %18, align 4, !dbg !11298
  %157 = sext i32 %156 to i64, !dbg !11299
  %158 = load %class.ap_fixed*, %class.ap_fixed** %10, align 8, !dbg !11299
  %159 = getelementptr inbounds %class.ap_fixed, %class.ap_fixed* %158, i64 %157, !dbg !11299
  %160 = load float, float* %19, align 4, !dbg !11300
  invoke void @_ZN8ap_fixedILi16ELi4EL9ap_q_mode5EL9ap_o_mode3ELi0EEC2Ef(%class.ap_fixed* %20, float %160)
          to label %161 unwind label %144, !dbg !11300

; <label>:161:                                    ; preds = %155
  %162 = invoke dereferenceable(2) %class.ap_fixed* @_ZN8ap_fixedILi16ELi4EL9ap_q_mode5EL9ap_o_mode3ELi0EEaSERKS2_(%class.ap_fixed* %159, %class.ap_fixed* dereferenceable(2) %20)
          to label %163 unwind label %167, !dbg !11301

; <label>:163:                                    ; preds = %161
  call void @_ZN8ap_fixedILi16ELi4EL9ap_q_mode5EL9ap_o_mode3ELi0EED2Ev(%class.ap_fixed* %20) #3, !dbg !11303
  br label %164, !dbg !11305

; <label>:164:                                    ; preds = %163
  %165 = load i32, i32* %18, align 4, !dbg !11306
  %166 = add nsw i32 %165, 1, !dbg !11306
  store i32 %166, i32* %18, align 4, !dbg !11306
  br label %149, !dbg !11308, !llvm.loop !11309

; <label>:167:                                    ; preds = %161
  %168 = landingpad { i8*, i32 }
          cleanup, !dbg !11311
  %169 = extractvalue { i8*, i32 } %168, 0, !dbg !11311
  store i8* %169, i8** %8, align 8, !dbg !11311
  %170 = extractvalue { i8*, i32 } %168, 1, !dbg !11311
  store i32 %170, i32* %9, align 4, !dbg !11311
  call void @_ZN8ap_fixedILi16ELi4EL9ap_q_mode5EL9ap_o_mode3ELi0EED2Ev(%class.ap_fixed* %20) #3, !dbg !11313
  br label %504, !dbg !11313

; <label>:171:                                    ; preds = %149
  %172 = load %struct._IO_FILE*, %struct._IO_FILE** %15, align 8, !dbg !11315
  %173 = invoke i32 @fclose(%struct._IO_FILE* %172)
          to label %174 unwind label %144, !dbg !11316

; <label>:174:                                    ; preds = %171
  %175 = call i8* @_ZNKSt7__cxx1112basic_stringIcSt11char_traitsIcESaIcEE5c_strEv(%"class.std::__cxx11::basic_string"* %14) #3, !dbg !11317
  %176 = invoke %struct._IO_FILE* @fopen(i8* %175, i8* getelementptr inbounds ([2 x i8], [2 x i8]* @.str.4, i32 0, i32 0))
          to label %177 unwind label %144, !dbg !11318

; <label>:177:                                    ; preds = %174
  store %struct._IO_FILE* %176, %struct._IO_FILE** %16, align 8, !dbg !11319
  %178 = load %struct._IO_FILE*, %struct._IO_FILE** %16, align 8, !dbg !11320
  %179 = icmp ne %struct._IO_FILE* %178, null, !dbg !11320
  br i1 %179, label %184, label %180, !dbg !11322

; <label>:180:                                    ; preds = %177
  %181 = call i8* @_ZNKSt7__cxx1112basic_stringIcSt11char_traitsIcESaIcEE5c_strEv(%"class.std::__cxx11::basic_string"* %14) #3, !dbg !11323
  %182 = invoke i32 (i8*, ...) @printf(i8* getelementptr inbounds ([31 x i8], [31 x i8]* @.str.7, i32 0, i32 0), i8* %181)
          to label %183 unwind label %144, !dbg !11325

; <label>:183:                                    ; preds = %180
  store i32 1, i32* %3, align 4, !dbg !11326
  store i32 1, i32* %17, align 4
  br label %502, !dbg !11326

; <label>:184:                                    ; preds = %177
  call void @llvm.dbg.declare(metadata i32* %21, metadata !11327, metadata !11119), !dbg !11329
  store i32 0, i32* %21, align 4, !dbg !11329
  br label %185, !dbg !11330

; <label>:185:                                    ; preds = %200, %184
  %186 = load i32, i32* %21, align 4, !dbg !11331
  %187 = icmp slt i32 %186, 5000, !dbg !11334
  br i1 %187, label %188, label %207, !dbg !11335

; <label>:188:                                    ; preds = %185
  call void @llvm.dbg.declare(metadata i32* %22, metadata !11336, metadata !11119), !dbg !11338
  %189 = load %struct._IO_FILE*, %struct._IO_FILE** %16, align 8, !dbg !11339
  %190 = invoke i32 (%struct._IO_FILE*, i8*, ...) @fscanf(%struct._IO_FILE* %189, i8* getelementptr inbounds ([3 x i8], [3 x i8]* @.str.8, i32 0, i32 0), i32* %22)
          to label %191 unwind label %144, !dbg !11340

; <label>:191:                                    ; preds = %188
  %192 = load i32, i32* %21, align 4, !dbg !11341
  %193 = sext i32 %192 to i64, !dbg !11342
  %194 = load %class.ap_uint*, %class.ap_uint** %11, align 8, !dbg !11342
  %195 = getelementptr inbounds %class.ap_uint, %class.ap_uint* %194, i64 %193, !dbg !11342
  %196 = load i32, i32* %22, align 4, !dbg !11343
  invoke void @_ZN7ap_uintILi8EEC2Ei(%class.ap_uint* %23, i32 %196)
          to label %197 unwind label %144, !dbg !11343

; <label>:197:                                    ; preds = %191
  %198 = invoke dereferenceable(1) %class.ap_uint* @_ZN7ap_uintILi8EEaSERKS0_(%class.ap_uint* %195, %class.ap_uint* dereferenceable(1) %23)
          to label %199 unwind label %203, !dbg !11344

; <label>:199:                                    ; preds = %197
  call void @_ZN7ap_uintILi8EED2Ev(%class.ap_uint* %23) #3, !dbg !11346
  br label %200, !dbg !11348

; <label>:200:                                    ; preds = %199
  %201 = load i32, i32* %21, align 4, !dbg !11349
  %202 = add nsw i32 %201, 1, !dbg !11349
  store i32 %202, i32* %21, align 4, !dbg !11349
  br label %185, !dbg !11351, !llvm.loop !11352

; <label>:203:                                    ; preds = %197
  %204 = landingpad { i8*, i32 }
          cleanup, !dbg !11354
  %205 = extractvalue { i8*, i32 } %204, 0, !dbg !11354
  store i8* %205, i8** %8, align 8, !dbg !11354
  %206 = extractvalue { i8*, i32 } %204, 1, !dbg !11354
  store i32 %206, i32* %9, align 4, !dbg !11354
  call void @_ZN7ap_uintILi8EED2Ev(%class.ap_uint* %23) #3, !dbg !11356
  br label %504, !dbg !11356

; <label>:207:                                    ; preds = %185
  %208 = load %struct._IO_FILE*, %struct._IO_FILE** %16, align 8, !dbg !11358
  %209 = invoke i32 @fclose(%struct._IO_FILE* %208)
          to label %210 unwind label %144, !dbg !11359

; <label>:210:                                    ; preds = %207
  call void @llvm.dbg.declare(metadata i64* %24, metadata !11360, metadata !11119), !dbg !11362
  store i64 0, i64* %24, align 8, !dbg !11362
  br label %211, !dbg !11363

; <label>:211:                                    ; preds = %221, %210
  %212 = load i64, i64* %24, align 8, !dbg !11364
  %213 = icmp ult i64 %212, 1024, !dbg !11367
  br i1 %213, label %214, label %228, !dbg !11368

; <label>:214:                                    ; preds = %211
  %215 = load i64, i64* %24, align 8, !dbg !11369
  %216 = load %class.ap_fixed.1*, %class.ap_fixed.1** %12, align 8, !dbg !11370
  %217 = getelementptr inbounds %class.ap_fixed.1, %class.ap_fixed.1* %216, i64 %215, !dbg !11370
  invoke void @_ZN8ap_fixedILi32ELi13EL9ap_q_mode5EL9ap_o_mode3ELi0EEC2Ei(%class.ap_fixed.1* %25, i32 0)
          to label %218 unwind label %144, !dbg !11371

; <label>:218:                                    ; preds = %214
  %219 = invoke dereferenceable(4) %class.ap_fixed.1* @_ZN8ap_fixedILi32ELi13EL9ap_q_mode5EL9ap_o_mode3ELi0EEaSERKS2_(%class.ap_fixed.1* %217, %class.ap_fixed.1* dereferenceable(4) %25)
          to label %220 unwind label %224, !dbg !11372

; <label>:220:                                    ; preds = %218
  call void @_ZN8ap_fixedILi32ELi13EL9ap_q_mode5EL9ap_o_mode3ELi0EED2Ev(%class.ap_fixed.1* %25) #3, !dbg !11373
  br label %221, !dbg !11373

; <label>:221:                                    ; preds = %220
  %222 = load i64, i64* %24, align 8, !dbg !11375
  %223 = add i64 %222, 1, !dbg !11375
  store i64 %223, i64* %24, align 8, !dbg !11375
  br label %211, !dbg !11376, !llvm.loop !11377

; <label>:224:                                    ; preds = %218
  %225 = landingpad { i8*, i32 }
          cleanup, !dbg !11379
  %226 = extractvalue { i8*, i32 } %225, 0, !dbg !11379
  store i8* %226, i8** %8, align 8, !dbg !11379
  %227 = extractvalue { i8*, i32 } %225, 1, !dbg !11379
  store i32 %227, i32* %9, align 4, !dbg !11379
  call void @_ZN8ap_fixedILi32ELi13EL9ap_q_mode5EL9ap_o_mode3ELi0EED2Ev(%class.ap_fixed.1* %25) #3, !dbg !11381
  br label %504, !dbg !11381

; <label>:228:                                    ; preds = %211
  call void @llvm.dbg.declare(metadata %struct.timeval* %26, metadata !11383, metadata !11119), !dbg !11390
  call void @llvm.dbg.declare(metadata %struct.timeval* %27, metadata !11391, metadata !11119), !dbg !11392
  call void @llvm.dbg.declare(metadata %class.ap_uint.4** %28, metadata !11393, metadata !11119), !dbg !11394
  %229 = invoke i8* @sds_alloc_non_cacheable(i32 9216000)
          to label %230 unwind label %144, !dbg !11395

; <label>:230:                                    ; preds = %228
  %231 = bitcast i8* %229 to %class.ap_uint.4*, !dbg !11396
  store %class.ap_uint.4* %231, %class.ap_uint.4** %28, align 8, !dbg !11397
  call void @llvm.dbg.declare(metadata %class.ap_uint.6** %29, metadata !11398, metadata !11119), !dbg !11399
  %232 = invoke i8* @sds_alloc(i32 4500)
          to label %233 unwind label %144, !dbg !11400

; <label>:233:                                    ; preds = %230
  %234 = bitcast i8* %232 to %class.ap_uint.6*, !dbg !11401
  store %class.ap_uint.6* %234, %class.ap_uint.6** %29, align 8, !dbg !11402
  call void @llvm.dbg.declare(metadata %class.ap_uint.4** %30, metadata !11403, metadata !11119), !dbg !11404
  %235 = invoke i8* @sds_alloc(i32 4096)
          to label %236 unwind label %144, !dbg !11405

; <label>:236:                                    ; preds = %233
  %237 = bitcast i8* %235 to %class.ap_uint.4*, !dbg !11406
  store %class.ap_uint.4* %237, %class.ap_uint.4** %30, align 8, !dbg !11407
  call void @llvm.dbg.declare(metadata i32* %31, metadata !11408, metadata !11119), !dbg !11410
  store i32 0, i32* %31, align 4, !dbg !11410
  br label %238, !dbg !11411

; <label>:238:                                    ; preds = %276, %236
  %239 = load i32, i32* %31, align 4, !dbg !11412
  %240 = sext i32 %239 to i64, !dbg !11412
  %241 = icmp ult i64 %240, 1152000, !dbg !11415
  br i1 %241, label %242, label %279, !dbg !11416

; <label>:242:                                    ; preds = %238
  call void @llvm.dbg.declare(metadata i32* %32, metadata !11417, metadata !11119), !dbg !11419
  store i32 0, i32* %32, align 4, !dbg !11419
  br label %243, !dbg !11420

; <label>:243:                                    ; preds = %272, %242
  %244 = load i32, i32* %32, align 4, !dbg !11421
  %245 = sext i32 %244 to i64, !dbg !11421
  %246 = icmp ult i64 %245, 4, !dbg !11424
  br i1 %246, label %247, label %275, !dbg !11425

; <label>:247:                                    ; preds = %243
  %248 = load i32, i32* %31, align 4, !dbg !11426
  %249 = sext i32 %248 to i64, !dbg !11427
  %250 = load %class.ap_uint.4*, %class.ap_uint.4** %28, align 8, !dbg !11427
  %251 = getelementptr inbounds %class.ap_uint.4, %class.ap_uint.4* %250, i64 %249, !dbg !11427
  %252 = bitcast %class.ap_uint.4* %251 to %class.ap_private.5*, !dbg !11427
  %253 = load i32, i32* %32, align 4, !dbg !11428
  %254 = add nsw i32 %253, 1, !dbg !11429
  %255 = mul nsw i32 %254, 16, !dbg !11430
  %256 = sub nsw i32 %255, 1, !dbg !11431
  %257 = load i32, i32* %32, align 4, !dbg !11432
  %258 = mul nsw i32 %257, 16, !dbg !11433
  invoke void @_ZN10ap_privateILi64ELb0ELb1EE5rangeEii(%struct.ap_range_ref* sret %33, %class.ap_private.5* %252, i32 %256, i32 %258)
          to label %259 unwind label %144, !dbg !11434

; <label>:259:                                    ; preds = %247
  %260 = load i32, i32* %31, align 4, !dbg !11435
  %261 = sext i32 %260 to i64, !dbg !11435
  %262 = mul i64 %261, 4, !dbg !11436
  %263 = load i32, i32* %32, align 4, !dbg !11437
  %264 = sext i32 %263 to i64, !dbg !11437
  %265 = add i64 %262, %264, !dbg !11438
  %266 = load %class.ap_fixed*, %class.ap_fixed** %10, align 8, !dbg !11439
  %267 = getelementptr inbounds %class.ap_fixed, %class.ap_fixed* %266, i64 %265, !dbg !11439
  %268 = bitcast %class.ap_fixed* %267 to %struct.ap_fixed_base*, !dbg !11439
  invoke void @_ZN13ap_fixed_baseILi16ELi4ELb1EL9ap_q_mode5EL9ap_o_mode3ELi0EE5rangeEii(%struct.af_range_ref* sret %34, %struct.ap_fixed_base* %268, i32 15, i32 0)
          to label %269 unwind label %144, !dbg !11440

; <label>:269:                                    ; preds = %259
  %270 = invoke dereferenceable(16) %struct.ap_range_ref* @_ZN12ap_range_refILi64ELb0EEaSILi16ELi4ELb1EL9ap_q_mode5EL9ap_o_mode3ELi0EEERS0_RK12af_range_refIXT_EXT0_EXT1_EXT2_EXT3_EXT4_EE(%struct.ap_range_ref* %33, %struct.af_range_ref* dereferenceable(16) %34)
          to label %271 unwind label %144, !dbg !11441

; <label>:271:                                    ; preds = %269
  br label %272, !dbg !11443

; <label>:272:                                    ; preds = %271
  %273 = load i32, i32* %32, align 4, !dbg !11445
  %274 = add nsw i32 %273, 1, !dbg !11445
  store i32 %274, i32* %32, align 4, !dbg !11445
  br label %243, !dbg !11446, !llvm.loop !11447

; <label>:275:                                    ; preds = %243
  br label %276, !dbg !11449

; <label>:276:                                    ; preds = %275
  %277 = load i32, i32* %31, align 4, !dbg !11451
  %278 = add nsw i32 %277, 1, !dbg !11451
  store i32 %278, i32* %31, align 4, !dbg !11451
  br label %238, !dbg !11453, !llvm.loop !11454

; <label>:279:                                    ; preds = %238
  call void @llvm.dbg.declare(metadata i32* %35, metadata !11456, metadata !11119), !dbg !11458
  store i32 0, i32* %35, align 4, !dbg !11458
  br label %280, !dbg !11459

; <label>:280:                                    ; preds = %318, %279
  %281 = load i32, i32* %35, align 4, !dbg !11460
  %282 = sext i32 %281 to i64, !dbg !11460
  %283 = icmp ult i64 %282, 1125, !dbg !11463
  br i1 %283, label %284, label %321, !dbg !11464

; <label>:284:                                    ; preds = %280
  call void @llvm.dbg.declare(metadata i32* %36, metadata !11465, metadata !11119), !dbg !11467
  store i32 0, i32* %36, align 4, !dbg !11467
  br label %285, !dbg !11468

; <label>:285:                                    ; preds = %314, %284
  %286 = load i32, i32* %36, align 4, !dbg !11469
  %287 = sext i32 %286 to i64, !dbg !11469
  %288 = icmp ult i64 %287, 4, !dbg !11472
  br i1 %288, label %289, label %317, !dbg !11473

; <label>:289:                                    ; preds = %285
  %290 = load i32, i32* %35, align 4, !dbg !11474
  %291 = sext i32 %290 to i64, !dbg !11475
  %292 = load %class.ap_uint.6*, %class.ap_uint.6** %29, align 8, !dbg !11475
  %293 = getelementptr inbounds %class.ap_uint.6, %class.ap_uint.6* %292, i64 %291, !dbg !11475
  %294 = bitcast %class.ap_uint.6* %293 to %class.ap_private.7*, !dbg !11475
  %295 = load i32, i32* %36, align 4, !dbg !11476
  %296 = add nsw i32 %295, 1, !dbg !11477
  %297 = mul nsw i32 %296, 8, !dbg !11478
  %298 = sub nsw i32 %297, 1, !dbg !11479
  %299 = load i32, i32* %36, align 4, !dbg !11480
  %300 = mul nsw i32 %299, 8, !dbg !11481
  invoke void @_ZN10ap_privateILi32ELb0ELb1EE5rangeEii(%struct.ap_range_ref.8* sret %37, %class.ap_private.7* %294, i32 %298, i32 %300)
          to label %301 unwind label %144, !dbg !11482

; <label>:301:                                    ; preds = %289
  %302 = load i32, i32* %35, align 4, !dbg !11483
  %303 = sext i32 %302 to i64, !dbg !11483
  %304 = mul i64 %303, 4, !dbg !11484
  %305 = load i32, i32* %36, align 4, !dbg !11485
  %306 = sext i32 %305 to i64, !dbg !11485
  %307 = add i64 %304, %306, !dbg !11486
  %308 = load %class.ap_uint*, %class.ap_uint** %11, align 8, !dbg !11487
  %309 = getelementptr inbounds %class.ap_uint, %class.ap_uint* %308, i64 %307, !dbg !11487
  %310 = bitcast %class.ap_uint* %309 to %class.ap_private.0*, !dbg !11487
  invoke void @_ZN10ap_privateILi8ELb0ELb1EE5rangeEii(%struct.ap_range_ref.9* sret %38, %class.ap_private.0* %310, i32 7, i32 0)
          to label %311 unwind label %144, !dbg !11488

; <label>:311:                                    ; preds = %301
  %312 = invoke dereferenceable(16) %struct.ap_range_ref.8* @_ZN12ap_range_refILi32ELb0EEaSILi8ELb0EEERS0_RKS_IXT_EXT0_EE(%struct.ap_range_ref.8* %37, %struct.ap_range_ref.9* dereferenceable(16) %38)
          to label %313 unwind label %144, !dbg !11489

; <label>:313:                                    ; preds = %311
  br label %314, !dbg !11491

; <label>:314:                                    ; preds = %313
  %315 = load i32, i32* %36, align 4, !dbg !11493
  %316 = add nsw i32 %315, 1, !dbg !11493
  store i32 %316, i32* %36, align 4, !dbg !11493
  br label %285, !dbg !11494, !llvm.loop !11495

; <label>:317:                                    ; preds = %285
  br label %318, !dbg !11497

; <label>:318:                                    ; preds = %317
  %319 = load i32, i32* %35, align 4, !dbg !11499
  %320 = add nsw i32 %319, 1, !dbg !11499
  store i32 %320, i32* %35, align 4, !dbg !11499
  br label %280, !dbg !11501, !llvm.loop !11502

; <label>:321:                                    ; preds = %280
  call void @llvm.dbg.declare(metadata i32* %39, metadata !11504, metadata !11119), !dbg !11506
  store i32 0, i32* %39, align 4, !dbg !11506
  br label %322, !dbg !11507

; <label>:322:                                    ; preds = %360, %321
  %323 = load i32, i32* %39, align 4, !dbg !11508
  %324 = sext i32 %323 to i64, !dbg !11508
  %325 = icmp ult i64 %324, 512, !dbg !11511
  br i1 %325, label %326, label %363, !dbg !11512

; <label>:326:                                    ; preds = %322
  call void @llvm.dbg.declare(metadata i32* %40, metadata !11513, metadata !11119), !dbg !11515
  store i32 0, i32* %40, align 4, !dbg !11515
  br label %327, !dbg !11516

; <label>:327:                                    ; preds = %356, %326
  %328 = load i32, i32* %40, align 4, !dbg !11517
  %329 = sext i32 %328 to i64, !dbg !11517
  %330 = icmp ult i64 %329, 2, !dbg !11520
  br i1 %330, label %331, label %359, !dbg !11521

; <label>:331:                                    ; preds = %327
  %332 = load i32, i32* %39, align 4, !dbg !11522
  %333 = sext i32 %332 to i64, !dbg !11523
  %334 = load %class.ap_uint.4*, %class.ap_uint.4** %30, align 8, !dbg !11523
  %335 = getelementptr inbounds %class.ap_uint.4, %class.ap_uint.4* %334, i64 %333, !dbg !11523
  %336 = bitcast %class.ap_uint.4* %335 to %class.ap_private.5*, !dbg !11523
  %337 = load i32, i32* %40, align 4, !dbg !11524
  %338 = add nsw i32 %337, 1, !dbg !11525
  %339 = mul nsw i32 %338, 32, !dbg !11526
  %340 = sub nsw i32 %339, 1, !dbg !11527
  %341 = load i32, i32* %40, align 4, !dbg !11528
  %342 = mul nsw i32 %341, 32, !dbg !11529
  invoke void @_ZN10ap_privateILi64ELb0ELb1EE5rangeEii(%struct.ap_range_ref* sret %41, %class.ap_private.5* %336, i32 %340, i32 %342)
          to label %343 unwind label %144, !dbg !11530

; <label>:343:                                    ; preds = %331
  %344 = load i32, i32* %39, align 4, !dbg !11531
  %345 = sext i32 %344 to i64, !dbg !11531
  %346 = mul i64 %345, 2, !dbg !11532
  %347 = load i32, i32* %40, align 4, !dbg !11533
  %348 = sext i32 %347 to i64, !dbg !11533
  %349 = add i64 %346, %348, !dbg !11534
  %350 = load %class.ap_fixed.1*, %class.ap_fixed.1** %12, align 8, !dbg !11535
  %351 = getelementptr inbounds %class.ap_fixed.1, %class.ap_fixed.1* %350, i64 %349, !dbg !11535
  %352 = bitcast %class.ap_fixed.1* %351 to %struct.ap_fixed_base.2*, !dbg !11535
  invoke void @_ZN13ap_fixed_baseILi32ELi13ELb1EL9ap_q_mode5EL9ap_o_mode3ELi0EE5rangeEii(%struct.af_range_ref.10* sret %42, %struct.ap_fixed_base.2* %352, i32 31, i32 0)
          to label %353 unwind label %144, !dbg !11536

; <label>:353:                                    ; preds = %343
  %354 = invoke dereferenceable(16) %struct.ap_range_ref* @_ZN12ap_range_refILi64ELb0EEaSILi32ELi13ELb1EL9ap_q_mode5EL9ap_o_mode3ELi0EEERS0_RK12af_range_refIXT_EXT0_EXT1_EXT2_EXT3_EXT4_EE(%struct.ap_range_ref* %41, %struct.af_range_ref.10* dereferenceable(16) %42)
          to label %355 unwind label %144, !dbg !11537

; <label>:355:                                    ; preds = %353
  br label %356, !dbg !11539

; <label>:356:                                    ; preds = %355
  %357 = load i32, i32* %40, align 4, !dbg !11541
  %358 = add nsw i32 %357, 1, !dbg !11541
  store i32 %358, i32* %40, align 4, !dbg !11541
  br label %327, !dbg !11542, !llvm.loop !11543

; <label>:359:                                    ; preds = %327
  br label %360, !dbg !11545

; <label>:360:                                    ; preds = %359
  %361 = load i32, i32* %39, align 4, !dbg !11547
  %362 = add nsw i32 %361, 1, !dbg !11547
  store i32 %362, i32* %39, align 4, !dbg !11547
  br label %322, !dbg !11549, !llvm.loop !11550

; <label>:363:                                    ; preds = %322
  %364 = call i32 @gettimeofday(%struct.timeval* %26, %struct.timezone* null) #3, !dbg !11552
  call void @llvm.dbg.declare(metadata i32* %43, metadata !11553, metadata !11119), !dbg !11555
  store i32 0, i32* %43, align 4, !dbg !11555
  br label %365, !dbg !11556

; <label>:365:                                    ; preds = %380, %363
  %366 = load i32, i32* %43, align 4, !dbg !11557
  %367 = icmp slt i32 %366, 5, !dbg !11560
  br i1 %367, label %368, label %383, !dbg !11561

; <label>:368:                                    ; preds = %365
  %369 = load i32, i32* %43, align 4, !dbg !11562
  %370 = invoke i32 (i8*, ...) @printf(i8* getelementptr inbounds ([13 x i8], [13 x i8]* @.str.9, i32 0, i32 0), i32 %369)
          to label %371 unwind label %144, !dbg !11564

; <label>:371:                                    ; preds = %368
  %372 = load %class.ap_uint.4*, %class.ap_uint.4** %28, align 8, !dbg !11565
  %373 = load %class.ap_uint.6*, %class.ap_uint.6** %29, align 8, !dbg !11566
  %374 = load %class.ap_uint.4*, %class.ap_uint.4** %30, align 8, !dbg !11567
  %375 = load i32, i32* %43, align 4, !dbg !11568
  %376 = icmp eq i32 %375, 0, !dbg !11569
  %377 = load i32, i32* %43, align 4, !dbg !11570
  %378 = icmp eq i32 %377, 4, !dbg !11571
  invoke void @_Z5SgdLRP7ap_uintILi64EEPS_ILi32EES1_bb(%class.ap_uint.4* %372, %class.ap_uint.6* %373, %class.ap_uint.4* %374, i1 %376, i1 %378)
          to label %379 unwind label %144, !dbg !11572

; <label>:379:                                    ; preds = %371
  br label %380, !dbg !11573

; <label>:380:                                    ; preds = %379
  %381 = load i32, i32* %43, align 4, !dbg !11574
  %382 = add nsw i32 %381, 1, !dbg !11574
  store i32 %382, i32* %43, align 4, !dbg !11574
  br label %365, !dbg !11576, !llvm.loop !11577

; <label>:383:                                    ; preds = %365
  %384 = call i32 @gettimeofday(%struct.timeval* %27, %struct.timezone* null) #3, !dbg !11579
  call void @llvm.dbg.declare(metadata i32* %44, metadata !11580, metadata !11119), !dbg !11582
  store i32 0, i32* %44, align 4, !dbg !11582
  br label %385, !dbg !11583

; <label>:385:                                    ; preds = %423, %383
  %386 = load i32, i32* %44, align 4, !dbg !11584
  %387 = sext i32 %386 to i64, !dbg !11584
  %388 = icmp ult i64 %387, 512, !dbg !11587
  br i1 %388, label %389, label %426, !dbg !11588

; <label>:389:                                    ; preds = %385
  call void @llvm.dbg.declare(metadata i32* %45, metadata !11589, metadata !11119), !dbg !11591
  store i32 0, i32* %45, align 4, !dbg !11591
  br label %390, !dbg !11592

; <label>:390:                                    ; preds = %419, %389
  %391 = load i32, i32* %45, align 4, !dbg !11593
  %392 = sext i32 %391 to i64, !dbg !11593
  %393 = icmp ult i64 %392, 2, !dbg !11596
  br i1 %393, label %394, label %422, !dbg !11597

; <label>:394:                                    ; preds = %390
  %395 = load i32, i32* %44, align 4, !dbg !11598
  %396 = sext i32 %395 to i64, !dbg !11598
  %397 = mul i64 %396, 2, !dbg !11599
  %398 = load i32, i32* %45, align 4, !dbg !11600
  %399 = sext i32 %398 to i64, !dbg !11600
  %400 = add i64 %397, %399, !dbg !11601
  %401 = load %class.ap_fixed.1*, %class.ap_fixed.1** %12, align 8, !dbg !11602
  %402 = getelementptr inbounds %class.ap_fixed.1, %class.ap_fixed.1* %401, i64 %400, !dbg !11602
  %403 = bitcast %class.ap_fixed.1* %402 to %struct.ap_fixed_base.2*, !dbg !11602
  invoke void @_ZN13ap_fixed_baseILi32ELi13ELb1EL9ap_q_mode5EL9ap_o_mode3ELi0EE5rangeEii(%struct.af_range_ref.10* sret %46, %struct.ap_fixed_base.2* %403, i32 31, i32 0)
          to label %404 unwind label %144, !dbg !11603

; <label>:404:                                    ; preds = %394
  %405 = load i32, i32* %44, align 4, !dbg !11604
  %406 = sext i32 %405 to i64, !dbg !11605
  %407 = load %class.ap_uint.4*, %class.ap_uint.4** %30, align 8, !dbg !11605
  %408 = getelementptr inbounds %class.ap_uint.4, %class.ap_uint.4* %407, i64 %406, !dbg !11605
  %409 = bitcast %class.ap_uint.4* %408 to %class.ap_private.5*, !dbg !11605
  %410 = load i32, i32* %45, align 4, !dbg !11606
  %411 = add nsw i32 %410, 1, !dbg !11607
  %412 = mul nsw i32 %411, 32, !dbg !11608
  %413 = sub nsw i32 %412, 1, !dbg !11609
  %414 = load i32, i32* %45, align 4, !dbg !11610
  %415 = mul nsw i32 %414, 32, !dbg !11611
  invoke void @_ZN10ap_privateILi64ELb0ELb1EE5rangeEii(%struct.ap_range_ref* sret %47, %class.ap_private.5* %409, i32 %413, i32 %415)
          to label %416 unwind label %144, !dbg !11612

; <label>:416:                                    ; preds = %404
  %417 = invoke dereferenceable(16) %struct.af_range_ref.10* @_ZN12af_range_refILi32ELi13ELb1EL9ap_q_mode5EL9ap_o_mode3ELi0EEaSILi64ELb0EEERS2_RK12ap_range_refIXT_EXT0_EE(%struct.af_range_ref.10* %46, %struct.ap_range_ref* dereferenceable(16) %47)
          to label %418 unwind label %144, !dbg !11613

; <label>:418:                                    ; preds = %416
  br label %419, !dbg !11615

; <label>:419:                                    ; preds = %418
  %420 = load i32, i32* %45, align 4, !dbg !11617
  %421 = add nsw i32 %420, 1, !dbg !11617
  store i32 %421, i32* %45, align 4, !dbg !11617
  br label %390, !dbg !11618, !llvm.loop !11619

; <label>:422:                                    ; preds = %390
  br label %423, !dbg !11621

; <label>:423:                                    ; preds = %422
  %424 = load i32, i32* %44, align 4, !dbg !11623
  %425 = add nsw i32 %424, 1, !dbg !11623
  store i32 %425, i32* %44, align 4, !dbg !11623
  br label %385, !dbg !11625, !llvm.loop !11626

; <label>:426:                                    ; preds = %385
  %427 = invoke i32 (i8*, ...) @printf(i8* getelementptr inbounds ([19 x i8], [19 x i8]* @.str.10, i32 0, i32 0))
          to label %428 unwind label %144, !dbg !11628

; <label>:428:                                    ; preds = %426
  %429 = load %class.ap_fixed.1*, %class.ap_fixed.1** %12, align 8, !dbg !11629
  %430 = load %class.ap_fixed*, %class.ap_fixed** %10, align 8, !dbg !11630
  %431 = load %class.ap_uint*, %class.ap_uint** %11, align 8, !dbg !11631
  invoke void @_Z13check_resultsP8ap_fixedILi32ELi13EL9ap_q_mode5EL9ap_o_mode3ELi0EEPS_ILi16ELi4ELS0_5ELS1_3ELi0EEP7ap_uintILi8EE(%class.ap_fixed.1* %429, %class.ap_fixed* %430, %class.ap_uint* %431)
          to label %432 unwind label %144, !dbg !11632

; <label>:432:                                    ; preds = %428
  call void @llvm.dbg.declare(metadata i64* %48, metadata !11633, metadata !11119), !dbg !11634
  %433 = getelementptr inbounds %struct.timeval, %struct.timeval* %27, i32 0, i32 0, !dbg !11635
  %434 = load i64, i64* %433, align 8, !dbg !11635
  %435 = getelementptr inbounds %struct.timeval, %struct.timeval* %26, i32 0, i32 0, !dbg !11636
  %436 = load i64, i64* %435, align 8, !dbg !11636
  %437 = sub nsw i64 %434, %436, !dbg !11637
  %438 = mul nsw i64 %437, 1000000, !dbg !11638
  %439 = getelementptr inbounds %struct.timeval, %struct.timeval* %27, i32 0, i32 1, !dbg !11639
  %440 = load i64, i64* %439, align 8, !dbg !11639
  %441 = add nsw i64 %438, %440, !dbg !11640
  %442 = getelementptr inbounds %struct.timeval, %struct.timeval* %26, i32 0, i32 1, !dbg !11641
  %443 = load i64, i64* %442, align 8, !dbg !11641
  %444 = sub nsw i64 %441, %443, !dbg !11642
  store i64 %444, i64* %48, align 8, !dbg !11634
  %445 = load i64, i64* %48, align 8, !dbg !11643
  %446 = invoke i32 (i8*, ...) @printf(i8* getelementptr inbounds ([23 x i8], [23 x i8]* @.str.11, i32 0, i32 0), i64 %445)
          to label %447 unwind label %144, !dbg !11644

; <label>:447:                                    ; preds = %432
  %448 = load %class.ap_uint.4*, %class.ap_uint.4** %28, align 8, !dbg !11645
  %449 = bitcast %class.ap_uint.4* %448 to i8*, !dbg !11645
  invoke void @sds_free(i8* %449)
          to label %450 unwind label %144, !dbg !11646

; <label>:450:                                    ; preds = %447
  %451 = load %class.ap_uint.6*, %class.ap_uint.6** %29, align 8, !dbg !11647
  %452 = bitcast %class.ap_uint.6* %451 to i8*, !dbg !11647
  invoke void @sds_free(i8* %452)
          to label %453 unwind label %144, !dbg !11648

; <label>:453:                                    ; preds = %450
  %454 = load %class.ap_uint.4*, %class.ap_uint.4** %30, align 8, !dbg !11649
  %455 = bitcast %class.ap_uint.4* %454 to i8*, !dbg !11649
  invoke void @sds_free(i8* %455)
          to label %456 unwind label %144, !dbg !11650

; <label>:456:                                    ; preds = %453
  %457 = load %class.ap_fixed*, %class.ap_fixed** %10, align 8, !dbg !11651
  %458 = icmp eq %class.ap_fixed* %457, null, !dbg !11652
  br i1 %458, label %471, label %459, !dbg !11652

; <label>:459:                                    ; preds = %456
  %460 = bitcast %class.ap_fixed* %457 to i8*, !dbg !11653
  %461 = getelementptr inbounds i8, i8* %460, i64 -8, !dbg !11653
  %462 = bitcast i8* %461 to i64*, !dbg !11653
  %463 = load i64, i64* %462, align 2, !dbg !11653
  %464 = getelementptr inbounds %class.ap_fixed, %class.ap_fixed* %457, i64 %463, !dbg !11653
  %465 = icmp eq %class.ap_fixed* %457, %464, !dbg !11653
  br i1 %465, label %470, label %466, !dbg !11653

; <label>:466:                                    ; preds = %466, %459
  %467 = phi %class.ap_fixed* [ %464, %459 ], [ %468, %466 ], !dbg !11654
  %468 = getelementptr inbounds %class.ap_fixed, %class.ap_fixed* %467, i64 -1, !dbg !11654
  call void @_ZN8ap_fixedILi16ELi4EL9ap_q_mode5EL9ap_o_mode3ELi0EED2Ev(%class.ap_fixed* %468) #3, !dbg !11654
  %469 = icmp eq %class.ap_fixed* %468, %457, !dbg !11654
  br i1 %469, label %470, label %466, !dbg !11654

; <label>:470:                                    ; preds = %466, %459
  call void @_ZdaPv(i8* %461) #16, !dbg !11655
  br label %471, !dbg !11655

; <label>:471:                                    ; preds = %470, %456
  %472 = load %class.ap_uint*, %class.ap_uint** %11, align 8, !dbg !11656
  %473 = icmp eq %class.ap_uint* %472, null, !dbg !11657
  br i1 %473, label %486, label %474, !dbg !11657

; <label>:474:                                    ; preds = %471
  %475 = bitcast %class.ap_uint* %472 to i8*, !dbg !11658
  %476 = getelementptr inbounds i8, i8* %475, i64 -8, !dbg !11658
  %477 = bitcast i8* %476 to i64*, !dbg !11658
  %478 = load i64, i64* %477, align 1, !dbg !11658
  %479 = getelementptr inbounds %class.ap_uint, %class.ap_uint* %472, i64 %478, !dbg !11658
  %480 = icmp eq %class.ap_uint* %472, %479, !dbg !11658
  br i1 %480, label %485, label %481, !dbg !11658

; <label>:481:                                    ; preds = %481, %474
  %482 = phi %class.ap_uint* [ %479, %474 ], [ %483, %481 ], !dbg !11659
  %483 = getelementptr inbounds %class.ap_uint, %class.ap_uint* %482, i64 -1, !dbg !11659
  call void @_ZN7ap_uintILi8EED2Ev(%class.ap_uint* %483) #3, !dbg !11659
  %484 = icmp eq %class.ap_uint* %483, %472, !dbg !11659
  br i1 %484, label %485, label %481, !dbg !11659

; <label>:485:                                    ; preds = %481, %474
  call void @_ZdaPv(i8* %476) #16, !dbg !11660
  br label %486, !dbg !11660

; <label>:486:                                    ; preds = %485, %471
  %487 = load %class.ap_fixed.1*, %class.ap_fixed.1** %12, align 8, !dbg !11661
  %488 = icmp eq %class.ap_fixed.1* %487, null, !dbg !11662
  br i1 %488, label %501, label %489, !dbg !11662

; <label>:489:                                    ; preds = %486
  %490 = bitcast %class.ap_fixed.1* %487 to i8*, !dbg !11663
  %491 = getelementptr inbounds i8, i8* %490, i64 -8, !dbg !11663
  %492 = bitcast i8* %491 to i64*, !dbg !11663
  %493 = load i64, i64* %492, align 4, !dbg !11663
  %494 = getelementptr inbounds %class.ap_fixed.1, %class.ap_fixed.1* %487, i64 %493, !dbg !11663
  %495 = icmp eq %class.ap_fixed.1* %487, %494, !dbg !11663
  br i1 %495, label %500, label %496, !dbg !11663

; <label>:496:                                    ; preds = %496, %489
  %497 = phi %class.ap_fixed.1* [ %494, %489 ], [ %498, %496 ], !dbg !11664
  %498 = getelementptr inbounds %class.ap_fixed.1, %class.ap_fixed.1* %497, i64 -1, !dbg !11664
  call void @_ZN8ap_fixedILi32ELi13EL9ap_q_mode5EL9ap_o_mode3ELi0EED2Ev(%class.ap_fixed.1* %498) #3, !dbg !11664
  %499 = icmp eq %class.ap_fixed.1* %498, %487, !dbg !11664
  br i1 %499, label %500, label %496, !dbg !11664

; <label>:500:                                    ; preds = %496, %489
  call void @_ZdaPv(i8* %491) #16, !dbg !11665
  br label %501, !dbg !11665

; <label>:501:                                    ; preds = %500, %486
  store i32 0, i32* %3, align 4, !dbg !11666
  store i32 1, i32* %17, align 4
  br label %502, !dbg !11666

; <label>:502:                                    ; preds = %501, %183, %101
  call void @_ZNSt7__cxx1112basic_stringIcSt11char_traitsIcESaIcEED1Ev(%"class.std::__cxx11::basic_string"* %14) #3, !dbg !11667
  call void @_ZNSt7__cxx1112basic_stringIcSt11char_traitsIcESaIcEED1Ev(%"class.std::__cxx11::basic_string"* %13) #3, !dbg !11669
  call void @_ZNSt7__cxx1112basic_stringIcSt11char_traitsIcESaIcEED1Ev(%"class.std::__cxx11::basic_string"* %6) #3, !dbg !11671
  %503 = load i32, i32* %3, align 4, !dbg !11667
  ret i32 %503, !dbg !11667

; <label>:504:                                    ; preds = %224, %203, %167, %144
  call void @_ZNSt7__cxx1112basic_stringIcSt11char_traitsIcESaIcEED1Ev(%"class.std::__cxx11::basic_string"* %14) #3, !dbg !11673
  br label %505, !dbg !11673

; <label>:505:                                    ; preds = %504, %140
  call void @_ZNSt7__cxx1112basic_stringIcSt11char_traitsIcESaIcEED1Ev(%"class.std::__cxx11::basic_string"* %13) #3, !dbg !11675
  br label %506, !dbg !11675

; <label>:506:                                    ; preds = %505, %139, %129, %119, %106
  call void @_ZNSt7__cxx1112basic_stringIcSt11char_traitsIcESaIcEED1Ev(%"class.std::__cxx11::basic_string"* %6) #3, !dbg !11677
  br label %507, !dbg !11677

; <label>:507:                                    ; preds = %506, %102
  %508 = load i8*, i8** %8, align 8, !dbg !11679
  %509 = load i32, i32* %9, align 4, !dbg !11679
  %510 = insertvalue { i8*, i32 } undef, i8* %508, 0, !dbg !11679
  %511 = insertvalue { i8*, i32 } %510, i32 %509, 1, !dbg !11679
  resume { i8*, i32 } %511, !dbg !11679
}

; Function Attrs: nounwind readnone
declare void @llvm.dbg.declare(metadata, metadata, metadata) #5

; Function Attrs: nounwind
declare !xidane.fname !11680 !xidane.function_declaration_type !11681 !xidane.function_declaration_filename !11682 !xidane.ExternC !11683 void @setbuf(%struct._IO_FILE*, i8*) #2

declare !xidane.fname !11684 !xidane.function_declaration_type !11685 !xidane.function_declaration_filename !11682 !xidane.ExternC !11683 i32 @printf(i8*, ...) #1

; Function Attrs: nounwind
declare !xidane.fname !11686 !xidane.function_declaration_type !11109 !xidane.function_declaration_filename !11687 void @_ZNSaIcEC1Ev(%"class.std::allocator"*) unnamed_addr #2

declare !xidane.fname !11688 !xidane.function_declaration_type !11689 !xidane.function_declaration_filename !11690 void @_ZNSt7__cxx1112basic_stringIcSt11char_traitsIcESaIcEEC1EPKcRKS3_(%"class.std::__cxx11::basic_string"*, i8*, %"class.std::allocator"* dereferenceable(1)) unnamed_addr #1

declare i32 @__gxx_personality_v0(...)

; Function Attrs: nounwind
declare !xidane.fname !11691 !xidane.function_declaration_type !11109 !xidane.function_declaration_filename !11687 void @_ZNSaIcED1Ev(%"class.std::allocator"*) unnamed_addr #2

declare !xidane.fname !11692 !xidane.function_declaration_type !11693 !xidane.function_declaration_filename !11694 void @_Z29parse_sdsoc_command_line_argsiPPcRNSt7__cxx1112basic_stringIcSt11char_traitsIcESaIcEEE(i32, i8**, %"class.std::__cxx11::basic_string"* dereferenceable(32)) #1

; Function Attrs: nobuiltin
declare !xidane.fname !11695 !xidane.function_declaration_type !11696 noalias i8* @_Znam(i64) #6

; Function Attrs: inlinehint
define linkonce_odr void @_ZN8ap_fixedILi16ELi4EL9ap_q_mode5EL9ap_o_mode3ELi0EEC2Ev(%class.ap_fixed*) unnamed_addr #7 comdat align 2 !dbg !11697 !xidane.fname !11698 !xidane.function_declaration_type !11109 !xidane.function_declaration_filename !11699 {
  %2 = alloca %class.ap_fixed*, align 8
  store %class.ap_fixed* %0, %class.ap_fixed** %2, align 8
  call void @llvm.dbg.declare(metadata %class.ap_fixed** %2, metadata !11700, metadata !11119), !dbg !11702
  %3 = load %class.ap_fixed*, %class.ap_fixed** %2, align 8
  %4 = bitcast %class.ap_fixed* %3 to %struct.ap_fixed_base*, !dbg !11703
  call void @_ZN13ap_fixed_baseILi16ELi4ELb1EL9ap_q_mode5EL9ap_o_mode3ELi0EEC2Ev(%struct.ap_fixed_base* %4), !dbg !11704
  ret void, !dbg !11705
}

; Function Attrs: inlinehint nounwind
define linkonce_odr void @_ZN8ap_fixedILi16ELi4EL9ap_q_mode5EL9ap_o_mode3ELi0EED2Ev(%class.ap_fixed*) unnamed_addr #8 comdat align 2 !dbg !11706 !xidane.fname !11708 !xidane.function_declaration_type !11109 !xidane.function_declaration_filename !11699 {
  %2 = alloca %class.ap_fixed*, align 8
  store %class.ap_fixed* %0, %class.ap_fixed** %2, align 8
  call void @llvm.dbg.declare(metadata %class.ap_fixed** %2, metadata !11709, metadata !11119), !dbg !11710
  %3 = load %class.ap_fixed*, %class.ap_fixed** %2, align 8
  %4 = bitcast %class.ap_fixed* %3 to %struct.ap_fixed_base*, !dbg !11711
  call void @_ZN13ap_fixed_baseILi16ELi4ELb1EL9ap_q_mode5EL9ap_o_mode3ELi0EED2Ev(%struct.ap_fixed_base* %4) #3, !dbg !11711
  ret void, !dbg !11713
}

; Function Attrs: nobuiltin nounwind
declare !xidane.fname !11714 !xidane.function_declaration_type !11715 void @_ZdaPv(i8*) #9

; Function Attrs: inlinehint
define linkonce_odr void @_ZN7ap_uintILi8EEC2Ev(%class.ap_uint*) unnamed_addr #7 comdat align 2 !dbg !11716 !xidane.fname !11717 !xidane.function_declaration_type !11109 !xidane.function_declaration_filename !11699 {
  %2 = alloca %class.ap_uint*, align 8
  store %class.ap_uint* %0, %class.ap_uint** %2, align 8
  call void @llvm.dbg.declare(metadata %class.ap_uint** %2, metadata !11718, metadata !11119), !dbg !11720
  %3 = load %class.ap_uint*, %class.ap_uint** %2, align 8
  %4 = bitcast %class.ap_uint* %3 to %class.ap_private.0*, !dbg !11721
  call void @_ZN10ap_privateILi8ELb0ELb1EEC2Ev(%class.ap_private.0* %4), !dbg !11722
  ret void, !dbg !11723
}

; Function Attrs: inlinehint nounwind
define linkonce_odr void @_ZN7ap_uintILi8EED2Ev(%class.ap_uint*) unnamed_addr #8 comdat align 2 !dbg !11724 !xidane.fname !11726 !xidane.function_declaration_type !11109 !xidane.function_declaration_filename !11699 {
  %2 = alloca %class.ap_uint*, align 8
  store %class.ap_uint* %0, %class.ap_uint** %2, align 8
  call void @llvm.dbg.declare(metadata %class.ap_uint** %2, metadata !11727, metadata !11119), !dbg !11728
  %3 = load %class.ap_uint*, %class.ap_uint** %2, align 8
  %4 = bitcast %class.ap_uint* %3 to %class.ap_private.0*, !dbg !11729
  call void @_ZN10ap_privateILi8ELb0ELb1EED2Ev(%class.ap_private.0* %4) #3, !dbg !11729
  ret void, !dbg !11731
}

; Function Attrs: inlinehint
define linkonce_odr void @_ZN8ap_fixedILi32ELi13EL9ap_q_mode5EL9ap_o_mode3ELi0EEC2Ev(%class.ap_fixed.1*) unnamed_addr #7 comdat align 2 !dbg !11732 !xidane.fname !11698 !xidane.function_declaration_type !11109 !xidane.function_declaration_filename !11699 {
  %2 = alloca %class.ap_fixed.1*, align 8
  store %class.ap_fixed.1* %0, %class.ap_fixed.1** %2, align 8
  call void @llvm.dbg.declare(metadata %class.ap_fixed.1** %2, metadata !11733, metadata !11119), !dbg !11735
  %3 = load %class.ap_fixed.1*, %class.ap_fixed.1** %2, align 8
  %4 = bitcast %class.ap_fixed.1* %3 to %struct.ap_fixed_base.2*, !dbg !11736
  call void @_ZN13ap_fixed_baseILi32ELi13ELb1EL9ap_q_mode5EL9ap_o_mode3ELi0EEC2Ev(%struct.ap_fixed_base.2* %4), !dbg !11737
  ret void, !dbg !11738
}

; Function Attrs: inlinehint nounwind
define linkonce_odr void @_ZN8ap_fixedILi32ELi13EL9ap_q_mode5EL9ap_o_mode3ELi0EED2Ev(%class.ap_fixed.1*) unnamed_addr #8 comdat align 2 !dbg !11739 !xidane.fname !11708 !xidane.function_declaration_type !11109 !xidane.function_declaration_filename !11699 {
  %2 = alloca %class.ap_fixed.1*, align 8
  store %class.ap_fixed.1* %0, %class.ap_fixed.1** %2, align 8
  call void @llvm.dbg.declare(metadata %class.ap_fixed.1** %2, metadata !11741, metadata !11119), !dbg !11742
  %3 = load %class.ap_fixed.1*, %class.ap_fixed.1** %2, align 8
  %4 = bitcast %class.ap_fixed.1* %3 to %struct.ap_fixed_base.2*, !dbg !11743
  call void @_ZN13ap_fixed_baseILi32ELi13ELb1EL9ap_q_mode5EL9ap_o_mode3ELi0EED2Ev(%struct.ap_fixed_base.2* %4) #3, !dbg !11743
  ret void, !dbg !11745
}

; Function Attrs: inlinehint
define linkonce_odr void @_ZStplIcSt11char_traitsIcESaIcEENSt7__cxx1112basic_stringIT_T0_T1_EERKS8_PKS5_(%"class.std::__cxx11::basic_string"* noalias sret, %"class.std::__cxx11::basic_string"* dereferenceable(32), i8*) #7 comdat personality i8* bitcast (i32 (...)* @__gxx_personality_v0 to i8*) !dbg !11746 !xidane.fname !11809 !xidane.function_declaration_type !11810 !xidane.function_declaration_filename !11690 {
  %4 = alloca %"class.std::__cxx11::basic_string"*, align 8
  %5 = alloca i8*, align 8
  %6 = alloca i1, align 1
  %7 = alloca i8*
  %8 = alloca i32
  store %"class.std::__cxx11::basic_string"* %1, %"class.std::__cxx11::basic_string"** %4, align 8
  call void @llvm.dbg.declare(metadata %"class.std::__cxx11::basic_string"** %4, metadata !11811, metadata !11119), !dbg !11812
  store i8* %2, i8** %5, align 8
  call void @llvm.dbg.declare(metadata i8** %5, metadata !11813, metadata !11119), !dbg !11814
  store i1 false, i1* %6, align 1, !dbg !11815
  call void @llvm.dbg.declare(metadata %"class.std::__cxx11::basic_string"* %0, metadata !11816, metadata !11817), !dbg !11818
  %9 = load %"class.std::__cxx11::basic_string"*, %"class.std::__cxx11::basic_string"** %4, align 8, !dbg !11819
  call void @_ZNSt7__cxx1112basic_stringIcSt11char_traitsIcESaIcEEC1ERKS4_(%"class.std::__cxx11::basic_string"* %0, %"class.std::__cxx11::basic_string"* dereferenceable(32) %9), !dbg !11818
  %10 = load i8*, i8** %5, align 8, !dbg !11820
  %11 = invoke dereferenceable(32) %"class.std::__cxx11::basic_string"* @_ZNSt7__cxx1112basic_stringIcSt11char_traitsIcESaIcEE6appendEPKc(%"class.std::__cxx11::basic_string"* %0, i8* %10)
          to label %12 unwind label %14, !dbg !11821

; <label>:12:                                     ; preds = %3
  store i1 true, i1* %6, align 1, !dbg !11822
  %13 = load i1, i1* %6, align 1, !dbg !11823
  br i1 %13, label %19, label %18, !dbg !11823

; <label>:14:                                     ; preds = %3
  %15 = landingpad { i8*, i32 }
          cleanup, !dbg !11824
  %16 = extractvalue { i8*, i32 } %15, 0, !dbg !11824
  store i8* %16, i8** %7, align 8, !dbg !11824
  %17 = extractvalue { i8*, i32 } %15, 1, !dbg !11824
  store i32 %17, i32* %8, align 4, !dbg !11824
  call void @_ZNSt7__cxx1112basic_stringIcSt11char_traitsIcESaIcEED1Ev(%"class.std::__cxx11::basic_string"* %0) #3, !dbg !11824
  br label %20, !dbg !11824

; <label>:18:                                     ; preds = %12
  call void @_ZNSt7__cxx1112basic_stringIcSt11char_traitsIcESaIcEED1Ev(%"class.std::__cxx11::basic_string"* %0) #3, !dbg !11826
  br label %19, !dbg !11826

; <label>:19:                                     ; preds = %18, %12
  ret void, !dbg !11828

; <label>:20:                                     ; preds = %14
  %21 = load i8*, i8** %7, align 8, !dbg !11830
  %22 = load i32, i32* %8, align 4, !dbg !11830
  %23 = insertvalue { i8*, i32 } undef, i8* %21, 0, !dbg !11830
  %24 = insertvalue { i8*, i32 } %23, i32 %22, 1, !dbg !11830
  resume { i8*, i32 } %24, !dbg !11830
}

declare !xidane.fname !11832 !xidane.function_declaration_type !11833 !xidane.function_declaration_filename !11682 !xidane.ExternC !11683 %struct._IO_FILE* @fopen(i8*, i8*) #1

; Function Attrs: nounwind
declare !xidane.fname !11834 !xidane.function_declaration_type !11835 !xidane.function_declaration_filename !11690 i8* @_ZNKSt7__cxx1112basic_stringIcSt11char_traitsIcESaIcEE5c_strEv(%"class.std::__cxx11::basic_string"*) #2

declare !xidane.fname !11836 !xidane.function_declaration_type !11837 !xidane.function_declaration_filename !11682 !xidane.ExternC !11683 i32 @fscanf(%struct._IO_FILE*, i8*, ...) #1

; Function Attrs: inlinehint
define linkonce_odr dereferenceable(2) %class.ap_fixed* @_ZN8ap_fixedILi16ELi4EL9ap_q_mode5EL9ap_o_mode3ELi0EEaSERKS2_(%class.ap_fixed*, %class.ap_fixed* dereferenceable(2)) #7 comdat align 2 !dbg !11838 !xidane.fname !11839 !xidane.function_declaration_type !11840 !xidane.function_declaration_filename !11699 {
  %3 = alloca %class.ap_fixed*, align 8
  %4 = alloca %class.ap_fixed*, align 8
  store %class.ap_fixed* %0, %class.ap_fixed** %3, align 8
  call void @llvm.dbg.declare(metadata %class.ap_fixed** %3, metadata !11841, metadata !11119), !dbg !11842
  store %class.ap_fixed* %1, %class.ap_fixed** %4, align 8
  call void @llvm.dbg.declare(metadata %class.ap_fixed** %4, metadata !11843, metadata !11119), !dbg !11844
  %5 = load %class.ap_fixed*, %class.ap_fixed** %3, align 8
  %6 = bitcast %class.ap_fixed* %5 to %struct.ap_fixed_base*, !dbg !11845
  %7 = load %class.ap_fixed*, %class.ap_fixed** %4, align 8, !dbg !11846
  %8 = bitcast %class.ap_fixed* %7 to %struct.ap_fixed_base*, !dbg !11846
  %9 = call dereferenceable(2) %struct.ap_fixed_base* @_ZN13ap_fixed_baseILi16ELi4ELb1EL9ap_q_mode5EL9ap_o_mode3ELi0EEaSERKS2_(%struct.ap_fixed_base* %6, %struct.ap_fixed_base* dereferenceable(2) %8), !dbg !11845
  ret %class.ap_fixed* %5, !dbg !11847
}

; Function Attrs: inlinehint
define linkonce_odr void @_ZN8ap_fixedILi16ELi4EL9ap_q_mode5EL9ap_o_mode3ELi0EEC2Ef(%class.ap_fixed*, float) unnamed_addr #7 comdat align 2 !dbg !11848 !xidane.fname !11698 !xidane.function_declaration_type !11849 !xidane.function_declaration_filename !11699 {
  %3 = alloca %class.ap_fixed*, align 8
  %4 = alloca float, align 4
  store %class.ap_fixed* %0, %class.ap_fixed** %3, align 8
  call void @llvm.dbg.declare(metadata %class.ap_fixed** %3, metadata !11850, metadata !11119), !dbg !11851
  store float %1, float* %4, align 4
  call void @llvm.dbg.declare(metadata float* %4, metadata !11852, metadata !11119), !dbg !11853
  %5 = load %class.ap_fixed*, %class.ap_fixed** %3, align 8
  %6 = bitcast %class.ap_fixed* %5 to %struct.ap_fixed_base*, !dbg !11853
  %7 = load float, float* %4, align 4, !dbg !11853
  call void @_ZN13ap_fixed_baseILi16ELi4ELb1EL9ap_q_mode5EL9ap_o_mode3ELi0EEC2Ef(%struct.ap_fixed_base* %6, float %7), !dbg !11853
  ret void, !dbg !11853
}

declare !xidane.fname !11854 !xidane.function_declaration_type !11855 !xidane.function_declaration_filename !11682 !xidane.ExternC !11683 i32 @fclose(%struct._IO_FILE*) #1

; Function Attrs: inlinehint
define linkonce_odr dereferenceable(1) %class.ap_uint* @_ZN7ap_uintILi8EEaSERKS0_(%class.ap_uint*, %class.ap_uint* dereferenceable(1)) #7 comdat align 2 !dbg !11856 !xidane.fname !11839 !xidane.function_declaration_type !11857 !xidane.function_declaration_filename !11699 {
  %3 = alloca %class.ap_uint*, align 8
  %4 = alloca %class.ap_uint*, align 8
  store %class.ap_uint* %0, %class.ap_uint** %3, align 8
  call void @llvm.dbg.declare(metadata %class.ap_uint** %3, metadata !11858, metadata !11119), !dbg !11859
  store %class.ap_uint* %1, %class.ap_uint** %4, align 8
  call void @llvm.dbg.declare(metadata %class.ap_uint** %4, metadata !11860, metadata !11119), !dbg !11861
  %5 = load %class.ap_uint*, %class.ap_uint** %3, align 8
  %6 = bitcast %class.ap_uint* %5 to %class.ap_private.0*, !dbg !11862
  %7 = load %class.ap_uint*, %class.ap_uint** %4, align 8, !dbg !11863
  %8 = bitcast %class.ap_uint* %7 to %class.ap_private.0*, !dbg !11864
  %9 = call dereferenceable(1) %class.ap_private.0* @_ZN10ap_privateILi8ELb0ELb1EEaSERKS0_(%class.ap_private.0* %6, %class.ap_private.0* dereferenceable(1) %8), !dbg !11862
  ret %class.ap_uint* %5, !dbg !11865
}

; Function Attrs: inlinehint
define linkonce_odr void @_ZN7ap_uintILi8EEC2Ei(%class.ap_uint*, i32) unnamed_addr #7 comdat align 2 !dbg !11866 !xidane.fname !11717 !xidane.function_declaration_type !11867 !xidane.function_declaration_filename !11699 {
  %3 = alloca %class.ap_uint*, align 8
  %4 = alloca i32, align 4
  store %class.ap_uint* %0, %class.ap_uint** %3, align 8
  call void @llvm.dbg.declare(metadata %class.ap_uint** %3, metadata !11868, metadata !11119), !dbg !11869
  store i32 %1, i32* %4, align 4
  call void @llvm.dbg.declare(metadata i32* %4, metadata !11870, metadata !11119), !dbg !11871
  %5 = load %class.ap_uint*, %class.ap_uint** %3, align 8
  %6 = bitcast %class.ap_uint* %5 to %class.ap_private.0*, !dbg !11871
  %7 = load i32, i32* %4, align 4, !dbg !11871
  call void @_ZN10ap_privateILi8ELb0ELb1EEC2Ei(%class.ap_private.0* %6, i32 %7), !dbg !11871
  ret void, !dbg !11871
}

; Function Attrs: inlinehint
define linkonce_odr dereferenceable(4) %class.ap_fixed.1* @_ZN8ap_fixedILi32ELi13EL9ap_q_mode5EL9ap_o_mode3ELi0EEaSERKS2_(%class.ap_fixed.1*, %class.ap_fixed.1* dereferenceable(4)) #7 comdat align 2 !dbg !11872 !xidane.fname !11839 !xidane.function_declaration_type !11873 !xidane.function_declaration_filename !11699 {
  %3 = alloca %class.ap_fixed.1*, align 8
  %4 = alloca %class.ap_fixed.1*, align 8
  store %class.ap_fixed.1* %0, %class.ap_fixed.1** %3, align 8
  call void @llvm.dbg.declare(metadata %class.ap_fixed.1** %3, metadata !11874, metadata !11119), !dbg !11875
  store %class.ap_fixed.1* %1, %class.ap_fixed.1** %4, align 8
  call void @llvm.dbg.declare(metadata %class.ap_fixed.1** %4, metadata !11876, metadata !11119), !dbg !11877
  %5 = load %class.ap_fixed.1*, %class.ap_fixed.1** %3, align 8
  %6 = bitcast %class.ap_fixed.1* %5 to %struct.ap_fixed_base.2*, !dbg !11878
  %7 = load %class.ap_fixed.1*, %class.ap_fixed.1** %4, align 8, !dbg !11879
  %8 = bitcast %class.ap_fixed.1* %7 to %struct.ap_fixed_base.2*, !dbg !11879
  %9 = call dereferenceable(4) %struct.ap_fixed_base.2* @_ZN13ap_fixed_baseILi32ELi13ELb1EL9ap_q_mode5EL9ap_o_mode3ELi0EEaSERKS2_(%struct.ap_fixed_base.2* %6, %struct.ap_fixed_base.2* dereferenceable(4) %8), !dbg !11878
  ret %class.ap_fixed.1* %5, !dbg !11880
}

; Function Attrs: inlinehint
define linkonce_odr void @_ZN8ap_fixedILi32ELi13EL9ap_q_mode5EL9ap_o_mode3ELi0EEC2Ei(%class.ap_fixed.1*, i32) unnamed_addr #7 comdat align 2 !dbg !11881 !xidane.fname !11698 !xidane.function_declaration_type !11867 !xidane.function_declaration_filename !11699 {
  %3 = alloca %class.ap_fixed.1*, align 8
  %4 = alloca i32, align 4
  store %class.ap_fixed.1* %0, %class.ap_fixed.1** %3, align 8
  call void @llvm.dbg.declare(metadata %class.ap_fixed.1** %3, metadata !11882, metadata !11119), !dbg !11883
  store i32 %1, i32* %4, align 4
  call void @llvm.dbg.declare(metadata i32* %4, metadata !11884, metadata !11119), !dbg !11885
  %5 = load %class.ap_fixed.1*, %class.ap_fixed.1** %3, align 8
  %6 = bitcast %class.ap_fixed.1* %5 to %struct.ap_fixed_base.2*, !dbg !11885
  %7 = load i32, i32* %4, align 4, !dbg !11885
  call void @_ZN13ap_fixed_baseILi32ELi13ELb1EL9ap_q_mode5EL9ap_o_mode3ELi0EEC2Ei(%struct.ap_fixed_base.2* %6, i32 %7), !dbg !11885
  ret void, !dbg !11885
}

declare !xidane.fname !11886 !xidane.function_declaration_type !11887 !xidane.function_declaration_filename !11888 !xidane.ExternC !11683 i8* @sds_alloc_non_cacheable(i32) #1

declare !xidane.fname !11889 !xidane.function_declaration_type !11887 !xidane.function_declaration_filename !11888 !xidane.ExternC !11683 i8* @sds_alloc(i32) #1

; Function Attrs: inlinehint
define linkonce_odr void @_ZN10ap_privateILi64ELb0ELb1EE5rangeEii(%struct.ap_range_ref* noalias sret, %class.ap_private.5*, i32, i32) #7 comdat align 2 !dbg !11890 !xidane.fname !11891 !xidane.function_declaration_type !11892 !xidane.function_declaration_filename !11893 {
  %5 = alloca %class.ap_private.5*, align 8
  %6 = alloca i32, align 4
  %7 = alloca i32, align 4
  store %class.ap_private.5* %1, %class.ap_private.5** %5, align 8
  call void @llvm.dbg.declare(metadata %class.ap_private.5** %5, metadata !11894, metadata !11119), !dbg !11895
  store i32 %2, i32* %6, align 4
  call void @llvm.dbg.declare(metadata i32* %6, metadata !11896, metadata !11119), !dbg !11897
  store i32 %3, i32* %7, align 4
  call void @llvm.dbg.declare(metadata i32* %7, metadata !11898, metadata !11119), !dbg !11899
  %8 = load %class.ap_private.5*, %class.ap_private.5** %5, align 8
  %9 = load i32, i32* %6, align 4, !dbg !11900
  %10 = load i32, i32* %7, align 4, !dbg !11901
  call void @_ZN12ap_range_refILi64ELb0EEC2EP10ap_privateILi64ELb0ELb1EEii(%struct.ap_range_ref* %0, %class.ap_private.5* %8, i32 %9, i32 %10), !dbg !11902
  ret void, !dbg !11903
}

; Function Attrs: inlinehint
define linkonce_odr dereferenceable(16) %struct.ap_range_ref* @_ZN12ap_range_refILi64ELb0EEaSILi16ELi4ELb1EL9ap_q_mode5EL9ap_o_mode3ELi0EEERS0_RK12af_range_refIXT_EXT0_EXT1_EXT2_EXT3_EXT4_EE(%struct.ap_range_ref*, %struct.af_range_ref* dereferenceable(16)) #7 comdat align 2 personality i8* bitcast (i32 (...)* @__gxx_personality_v0 to i8*) !dbg !11904 !xidane.fname !11909 !xidane.function_declaration_type !11910 !xidane.function_declaration_filename !11699 {
  %3 = alloca %struct.ap_range_ref*, align 8
  %4 = alloca %struct.af_range_ref*, align 8
  %5 = alloca %class.ap_private, align 2
  %6 = alloca i8*
  %7 = alloca i32
  store %struct.ap_range_ref* %0, %struct.ap_range_ref** %3, align 8
  call void @llvm.dbg.declare(metadata %struct.ap_range_ref** %3, metadata !11911, metadata !11119), !dbg !11913
  store %struct.af_range_ref* %1, %struct.af_range_ref** %4, align 8
  call void @llvm.dbg.declare(metadata %struct.af_range_ref** %4, metadata !11914, metadata !11119), !dbg !11915
  %8 = load %struct.ap_range_ref*, %struct.ap_range_ref** %3, align 8
  %9 = load %struct.af_range_ref*, %struct.af_range_ref** %4, align 8, !dbg !11916
  call void @_ZN10ap_privateILi16ELb1ELb1EEC2ILi16ELi4ELb1EL9ap_q_mode5EL9ap_o_mode3ELi0EEERK12af_range_refIXT_EXT0_EXT1_EXT2_EXT3_EXT4_EE(%class.ap_private* %5, %struct.af_range_ref* dereferenceable(16) %9), !dbg !11917
  %10 = invoke dereferenceable(16) %struct.ap_range_ref* @_ZN12ap_range_refILi64ELb0EEaSILi16ELb1EEERS0_RK10ap_privateIXT_EXT0_EXleT_Li64EEE(%struct.ap_range_ref* %8, %class.ap_private* dereferenceable(2) %5)
          to label %11 unwind label %12, !dbg !11918

; <label>:11:                                     ; preds = %2
  call void @_ZN10ap_privateILi16ELb1ELb1EED2Ev(%class.ap_private* %5) #3, !dbg !11919
  ret %struct.ap_range_ref* %10, !dbg !11919

; <label>:12:                                     ; preds = %2
  %13 = landingpad { i8*, i32 }
          cleanup, !dbg !11921
  %14 = extractvalue { i8*, i32 } %13, 0, !dbg !11921
  store i8* %14, i8** %6, align 8, !dbg !11921
  %15 = extractvalue { i8*, i32 } %13, 1, !dbg !11921
  store i32 %15, i32* %7, align 4, !dbg !11921
  call void @_ZN10ap_privateILi16ELb1ELb1EED2Ev(%class.ap_private* %5) #3, !dbg !11922
  br label %16, !dbg !11922

; <label>:16:                                     ; preds = %12
  %17 = load i8*, i8** %6, align 8, !dbg !11924
  %18 = load i32, i32* %7, align 4, !dbg !11924
  %19 = insertvalue { i8*, i32 } undef, i8* %17, 0, !dbg !11924
  %20 = insertvalue { i8*, i32 } %19, i32 %18, 1, !dbg !11924
  resume { i8*, i32 } %20, !dbg !11924
}

; Function Attrs: inlinehint
define linkonce_odr void @_ZN13ap_fixed_baseILi16ELi4ELb1EL9ap_q_mode5EL9ap_o_mode3ELi0EE5rangeEii(%struct.af_range_ref* noalias sret, %struct.ap_fixed_base*, i32, i32) #7 comdat align 2 !dbg !11926 !xidane.fname !11891 !xidane.function_declaration_type !11927 !xidane.function_declaration_filename !11699 {
  %5 = alloca %struct.ap_fixed_base*, align 8
  %6 = alloca i32, align 4
  %7 = alloca i32, align 4
  store %struct.ap_fixed_base* %1, %struct.ap_fixed_base** %5, align 8
  call void @llvm.dbg.declare(metadata %struct.ap_fixed_base** %5, metadata !11928, metadata !11119), !dbg !11929
  store i32 %2, i32* %6, align 4
  call void @llvm.dbg.declare(metadata i32* %6, metadata !11930, metadata !11119), !dbg !11931
  store i32 %3, i32* %7, align 4
  call void @llvm.dbg.declare(metadata i32* %7, metadata !11932, metadata !11119), !dbg !11933
  %8 = load %struct.ap_fixed_base*, %struct.ap_fixed_base** %5, align 8
  %9 = load i32, i32* %6, align 4, !dbg !11934
  %10 = load i32, i32* %7, align 4, !dbg !11935
  call void @_ZN12af_range_refILi16ELi4ELb1EL9ap_q_mode5EL9ap_o_mode3ELi0EEC2EP13ap_fixed_baseILi16ELi4ELb1ELS0_5ELS1_3ELi0EEii(%struct.af_range_ref* %0, %struct.ap_fixed_base* %8, i32 %9, i32 %10), !dbg !11936
  ret void, !dbg !11937
}

; Function Attrs: inlinehint
define linkonce_odr void @_ZN10ap_privateILi32ELb0ELb1EE5rangeEii(%struct.ap_range_ref.8* noalias sret, %class.ap_private.7*, i32, i32) #7 comdat align 2 !dbg !11938 !xidane.fname !11891 !xidane.function_declaration_type !11939 !xidane.function_declaration_filename !11893 {
  %5 = alloca %class.ap_private.7*, align 8
  %6 = alloca i32, align 4
  %7 = alloca i32, align 4
  store %class.ap_private.7* %1, %class.ap_private.7** %5, align 8
  call void @llvm.dbg.declare(metadata %class.ap_private.7** %5, metadata !11940, metadata !11119), !dbg !11941
  store i32 %2, i32* %6, align 4
  call void @llvm.dbg.declare(metadata i32* %6, metadata !11942, metadata !11119), !dbg !11943
  store i32 %3, i32* %7, align 4
  call void @llvm.dbg.declare(metadata i32* %7, metadata !11944, metadata !11119), !dbg !11945
  %8 = load %class.ap_private.7*, %class.ap_private.7** %5, align 8
  %9 = load i32, i32* %6, align 4, !dbg !11946
  %10 = load i32, i32* %7, align 4, !dbg !11947
  call void @_ZN12ap_range_refILi32ELb0EEC2EP10ap_privateILi32ELb0ELb1EEii(%struct.ap_range_ref.8* %0, %class.ap_private.7* %8, i32 %9, i32 %10), !dbg !11948
  ret void, !dbg !11949
}

; Function Attrs: inlinehint
define linkonce_odr dereferenceable(16) %struct.ap_range_ref.8* @_ZN12ap_range_refILi32ELb0EEaSILi8ELb0EEERS0_RKS_IXT_EXT0_EE(%struct.ap_range_ref.8*, %struct.ap_range_ref.9* dereferenceable(16)) #7 comdat align 2 personality i8* bitcast (i32 (...)* @__gxx_personality_v0 to i8*) !dbg !11950 !xidane.fname !11957 !xidane.function_declaration_type !11958 !xidane.function_declaration_filename !11699 {
  %3 = alloca %struct.ap_range_ref.8*, align 8
  %4 = alloca %struct.ap_range_ref.9*, align 8
  %5 = alloca %class.ap_private.7, align 4
  %6 = alloca i8*
  %7 = alloca i32
  store %struct.ap_range_ref.8* %0, %struct.ap_range_ref.8** %3, align 8
  call void @llvm.dbg.declare(metadata %struct.ap_range_ref.8** %3, metadata !11959, metadata !11119), !dbg !11961
  store %struct.ap_range_ref.9* %1, %struct.ap_range_ref.9** %4, align 8
  call void @llvm.dbg.declare(metadata %struct.ap_range_ref.9** %4, metadata !11962, metadata !11119), !dbg !11963
  %8 = load %struct.ap_range_ref.8*, %struct.ap_range_ref.8** %3, align 8
  call void @llvm.dbg.declare(metadata %class.ap_private.7* %5, metadata !11964, metadata !11119), !dbg !11965
  %9 = load %struct.ap_range_ref.9*, %struct.ap_range_ref.9** %4, align 8, !dbg !11966
  call void @_ZN10ap_privateILi32ELb0ELb1EEC2ILi8ELb0EEERK12ap_range_refIXT_EXT0_EE(%class.ap_private.7* %5, %struct.ap_range_ref.9* dereferenceable(16) %9), !dbg !11965
  %10 = invoke dereferenceable(16) %struct.ap_range_ref.8* @_ZN12ap_range_refILi32ELb0EEaSILi32ELb0EEERS0_RK10ap_privateIXT_EXT0_EXleT_Li64EEE(%struct.ap_range_ref.8* %8, %class.ap_private.7* dereferenceable(4) %5)
          to label %11 unwind label %12, !dbg !11967

; <label>:11:                                     ; preds = %2
  call void @_ZN10ap_privateILi32ELb0ELb1EED2Ev(%class.ap_private.7* %5) #3, !dbg !11968
  ret %struct.ap_range_ref.8* %10, !dbg !11968

; <label>:12:                                     ; preds = %2
  %13 = landingpad { i8*, i32 }
          cleanup, !dbg !11969
  %14 = extractvalue { i8*, i32 } %13, 0, !dbg !11969
  store i8* %14, i8** %6, align 8, !dbg !11969
  %15 = extractvalue { i8*, i32 } %13, 1, !dbg !11969
  store i32 %15, i32* %7, align 4, !dbg !11969
  call void @_ZN10ap_privateILi32ELb0ELb1EED2Ev(%class.ap_private.7* %5) #3, !dbg !11969
  br label %16, !dbg !11969

; <label>:16:                                     ; preds = %12
  %17 = load i8*, i8** %6, align 8, !dbg !11971
  %18 = load i32, i32* %7, align 4, !dbg !11971
  %19 = insertvalue { i8*, i32 } undef, i8* %17, 0, !dbg !11971
  %20 = insertvalue { i8*, i32 } %19, i32 %18, 1, !dbg !11971
  resume { i8*, i32 } %20, !dbg !11971
}

; Function Attrs: inlinehint
define linkonce_odr void @_ZN10ap_privateILi8ELb0ELb1EE5rangeEii(%struct.ap_range_ref.9* noalias sret, %class.ap_private.0*, i32, i32) #7 comdat align 2 !dbg !11973 !xidane.fname !11891 !xidane.function_declaration_type !11974 !xidane.function_declaration_filename !11893 {
  %5 = alloca %class.ap_private.0*, align 8
  %6 = alloca i32, align 4
  %7 = alloca i32, align 4
  store %class.ap_private.0* %1, %class.ap_private.0** %5, align 8
  call void @llvm.dbg.declare(metadata %class.ap_private.0** %5, metadata !11975, metadata !11119), !dbg !11976
  store i32 %2, i32* %6, align 4
  call void @llvm.dbg.declare(metadata i32* %6, metadata !11977, metadata !11119), !dbg !11978
  store i32 %3, i32* %7, align 4
  call void @llvm.dbg.declare(metadata i32* %7, metadata !11979, metadata !11119), !dbg !11980
  %8 = load %class.ap_private.0*, %class.ap_private.0** %5, align 8
  %9 = load i32, i32* %6, align 4, !dbg !11981
  %10 = load i32, i32* %7, align 4, !dbg !11982
  call void @_ZN12ap_range_refILi8ELb0EEC2EP10ap_privateILi8ELb0ELb1EEii(%struct.ap_range_ref.9* %0, %class.ap_private.0* %8, i32 %9, i32 %10), !dbg !11983
  ret void, !dbg !11984
}

; Function Attrs: inlinehint
define linkonce_odr dereferenceable(16) %struct.ap_range_ref* @_ZN12ap_range_refILi64ELb0EEaSILi32ELi13ELb1EL9ap_q_mode5EL9ap_o_mode3ELi0EEERS0_RK12af_range_refIXT_EXT0_EXT1_EXT2_EXT3_EXT4_EE(%struct.ap_range_ref*, %struct.af_range_ref.10* dereferenceable(16)) #7 comdat align 2 personality i8* bitcast (i32 (...)* @__gxx_personality_v0 to i8*) !dbg !11985 !xidane.fname !11990 !xidane.function_declaration_type !11991 !xidane.function_declaration_filename !11699 {
  %3 = alloca %struct.ap_range_ref*, align 8
  %4 = alloca %struct.af_range_ref.10*, align 8
  %5 = alloca %class.ap_private.3, align 4
  %6 = alloca i8*
  %7 = alloca i32
  store %struct.ap_range_ref* %0, %struct.ap_range_ref** %3, align 8
  call void @llvm.dbg.declare(metadata %struct.ap_range_ref** %3, metadata !11992, metadata !11119), !dbg !11993
  store %struct.af_range_ref.10* %1, %struct.af_range_ref.10** %4, align 8
  call void @llvm.dbg.declare(metadata %struct.af_range_ref.10** %4, metadata !11994, metadata !11119), !dbg !11995
  %8 = load %struct.ap_range_ref*, %struct.ap_range_ref** %3, align 8
  %9 = load %struct.af_range_ref.10*, %struct.af_range_ref.10** %4, align 8, !dbg !11996
  call void @_ZN10ap_privateILi32ELb1ELb1EEC2ILi32ELi13ELb1EL9ap_q_mode5EL9ap_o_mode3ELi0EEERK12af_range_refIXT_EXT0_EXT1_EXT2_EXT3_EXT4_EE(%class.ap_private.3* %5, %struct.af_range_ref.10* dereferenceable(16) %9), !dbg !11997
  %10 = invoke dereferenceable(16) %struct.ap_range_ref* @_ZN12ap_range_refILi64ELb0EEaSILi32ELb1EEERS0_RK10ap_privateIXT_EXT0_EXleT_Li64EEE(%struct.ap_range_ref* %8, %class.ap_private.3* dereferenceable(4) %5)
          to label %11 unwind label %12, !dbg !11998

; <label>:11:                                     ; preds = %2
  call void @_ZN10ap_privateILi32ELb1ELb1EED2Ev(%class.ap_private.3* %5) #3, !dbg !11999
  ret %struct.ap_range_ref* %10, !dbg !11999

; <label>:12:                                     ; preds = %2
  %13 = landingpad { i8*, i32 }
          cleanup, !dbg !12001
  %14 = extractvalue { i8*, i32 } %13, 0, !dbg !12001
  store i8* %14, i8** %6, align 8, !dbg !12001
  %15 = extractvalue { i8*, i32 } %13, 1, !dbg !12001
  store i32 %15, i32* %7, align 4, !dbg !12001
  call void @_ZN10ap_privateILi32ELb1ELb1EED2Ev(%class.ap_private.3* %5) #3, !dbg !12002
  br label %16, !dbg !12002

; <label>:16:                                     ; preds = %12
  %17 = load i8*, i8** %6, align 8, !dbg !12004
  %18 = load i32, i32* %7, align 4, !dbg !12004
  %19 = insertvalue { i8*, i32 } undef, i8* %17, 0, !dbg !12004
  %20 = insertvalue { i8*, i32 } %19, i32 %18, 1, !dbg !12004
  resume { i8*, i32 } %20, !dbg !12004
}

; Function Attrs: inlinehint
define linkonce_odr void @_ZN13ap_fixed_baseILi32ELi13ELb1EL9ap_q_mode5EL9ap_o_mode3ELi0EE5rangeEii(%struct.af_range_ref.10* noalias sret, %struct.ap_fixed_base.2*, i32, i32) #7 comdat align 2 !dbg !12006 !xidane.fname !11891 !xidane.function_declaration_type !12007 !xidane.function_declaration_filename !11699 {
  %5 = alloca %struct.ap_fixed_base.2*, align 8
  %6 = alloca i32, align 4
  %7 = alloca i32, align 4
  store %struct.ap_fixed_base.2* %1, %struct.ap_fixed_base.2** %5, align 8
  call void @llvm.dbg.declare(metadata %struct.ap_fixed_base.2** %5, metadata !12008, metadata !11119), !dbg !12009
  store i32 %2, i32* %6, align 4
  call void @llvm.dbg.declare(metadata i32* %6, metadata !12010, metadata !11119), !dbg !12011
  store i32 %3, i32* %7, align 4
  call void @llvm.dbg.declare(metadata i32* %7, metadata !12012, metadata !11119), !dbg !12013
  %8 = load %struct.ap_fixed_base.2*, %struct.ap_fixed_base.2** %5, align 8
  %9 = load i32, i32* %6, align 4, !dbg !12014
  %10 = load i32, i32* %7, align 4, !dbg !12015
  call void @_ZN12af_range_refILi32ELi13ELb1EL9ap_q_mode5EL9ap_o_mode3ELi0EEC2EP13ap_fixed_baseILi32ELi13ELb1ELS0_5ELS1_3ELi0EEii(%struct.af_range_ref.10* %0, %struct.ap_fixed_base.2* %8, i32 %9, i32 %10), !dbg !12016
  ret void, !dbg !12017
}

; Function Attrs: nounwind
declare !xidane.fname !12018 !xidane.function_declaration_type !12019 !xidane.function_declaration_filename !12020 !xidane.ExternC !11683 i32 @gettimeofday(%struct.timeval*, %struct.timezone*) #2

declare !xidane.fname !12021 !xidane.function_declaration_type !12022 !xidane.function_declaration_filename !12023 !xidane.function_argument_annotation !12024 void @_Z5SgdLRP7ap_uintILi64EEPS_ILi32EES1_bb(%class.ap_uint.4*, %class.ap_uint.6*, %class.ap_uint.4*, i1, i1) #1

; Function Attrs: inlinehint
define linkonce_odr dereferenceable(16) %struct.af_range_ref.10* @_ZN12af_range_refILi32ELi13ELb1EL9ap_q_mode5EL9ap_o_mode3ELi0EEaSILi64ELb0EEERS2_RK12ap_range_refIXT_EXT0_EE(%struct.af_range_ref.10*, %struct.ap_range_ref* dereferenceable(16)) #7 comdat align 2 personality i8* bitcast (i32 (...)* @__gxx_personality_v0 to i8*) !dbg !12025 !xidane.fname !12031 !xidane.function_declaration_type !12032 !xidane.function_declaration_filename !11699 {
  %3 = alloca %struct.af_range_ref.10*, align 8
  %4 = alloca %struct.ap_range_ref*, align 8
  %5 = alloca %class.ap_private.7, align 4
  %6 = alloca i8*
  %7 = alloca i32
  store %struct.af_range_ref.10* %0, %struct.af_range_ref.10** %3, align 8
  call void @llvm.dbg.declare(metadata %struct.af_range_ref.10** %3, metadata !12033, metadata !11119), !dbg !12035
  store %struct.ap_range_ref* %1, %struct.ap_range_ref** %4, align 8
  call void @llvm.dbg.declare(metadata %struct.ap_range_ref** %4, metadata !12036, metadata !11119), !dbg !12037
  %8 = load %struct.af_range_ref.10*, %struct.af_range_ref.10** %3, align 8
  call void @llvm.dbg.declare(metadata %class.ap_private.7* %5, metadata !12038, metadata !11119), !dbg !12039
  %9 = load %struct.ap_range_ref*, %struct.ap_range_ref** %4, align 8, !dbg !12040
  call void @_ZN10ap_privateILi32ELb0ELb1EEC2ILi64ELb0EEERK12ap_range_refIXT_EXT0_EE(%class.ap_private.7* %5, %struct.ap_range_ref* dereferenceable(16) %9), !dbg !12039
  %10 = invoke dereferenceable(16) %struct.af_range_ref.10* @_ZN12af_range_refILi32ELi13ELb1EL9ap_q_mode5EL9ap_o_mode3ELi0EEaSILi32ELb0EEERS2_RK10ap_privateIXT_EXT0_EXleT_Li64EEE(%struct.af_range_ref.10* %8, %class.ap_private.7* dereferenceable(4) %5)
          to label %11 unwind label %12, !dbg !12041

; <label>:11:                                     ; preds = %2
  call void @_ZN10ap_privateILi32ELb0ELb1EED2Ev(%class.ap_private.7* %5) #3, !dbg !12042
  ret %struct.af_range_ref.10* %10, !dbg !12042

; <label>:12:                                     ; preds = %2
  %13 = landingpad { i8*, i32 }
          cleanup, !dbg !12043
  %14 = extractvalue { i8*, i32 } %13, 0, !dbg !12043
  store i8* %14, i8** %6, align 8, !dbg !12043
  %15 = extractvalue { i8*, i32 } %13, 1, !dbg !12043
  store i32 %15, i32* %7, align 4, !dbg !12043
  call void @_ZN10ap_privateILi32ELb0ELb1EED2Ev(%class.ap_private.7* %5) #3, !dbg !12043
  br label %16, !dbg !12043

; <label>:16:                                     ; preds = %12
  %17 = load i8*, i8** %6, align 8, !dbg !12045
  %18 = load i32, i32* %7, align 4, !dbg !12045
  %19 = insertvalue { i8*, i32 } undef, i8* %17, 0, !dbg !12045
  %20 = insertvalue { i8*, i32 } %19, i32 %18, 1, !dbg !12045
  resume { i8*, i32 } %20, !dbg !12045
}

declare !xidane.fname !12047 !xidane.function_declaration_type !12048 !xidane.function_declaration_filename !12049 void @_Z13check_resultsP8ap_fixedILi32ELi13EL9ap_q_mode5EL9ap_o_mode3ELi0EEPS_ILi16ELi4ELS0_5ELS1_3ELi0EEP7ap_uintILi8EE(%class.ap_fixed.1*, %class.ap_fixed*, %class.ap_uint*) #1

declare !xidane.fname !12050 !xidane.function_declaration_type !11715 !xidane.function_declaration_filename !11888 !xidane.ExternC !11683 void @sds_free(i8*) #1

; Function Attrs: nounwind
declare !xidane.fname !12051 !xidane.function_declaration_type !11109 !xidane.function_declaration_filename !11690 void @_ZNSt7__cxx1112basic_stringIcSt11char_traitsIcESaIcEED1Ev(%"class.std::__cxx11::basic_string"*) unnamed_addr #2

; Function Attrs: inlinehint nounwind
define linkonce_odr void @_ZN10ap_privateILi16ELb1ELb1EED2Ev(%class.ap_private*) unnamed_addr #8 comdat align 2 personality i8* bitcast (i32 (...)* @__gxx_personality_v0 to i8*) !dbg !12052 !xidane.fname !12053 !xidane.function_declaration_type !11109 !xidane.function_declaration_filename !11893 {
  %2 = alloca %class.ap_private*, align 8
  store %class.ap_private* %0, %class.ap_private** %2, align 8
  call void @llvm.dbg.declare(metadata %class.ap_private** %2, metadata !12054, metadata !11119), !dbg !12056
  %3 = load %class.ap_private*, %class.ap_private** %2, align 8
  invoke void @_ZN10ap_privateILi16ELb1ELb1EE12check_canaryEv(%class.ap_private* %3)
          to label %4 unwind label %5, !dbg !12057

; <label>:4:                                      ; preds = %1
  ret void, !dbg !12059

; <label>:5:                                      ; preds = %1
  %6 = landingpad { i8*, i32 }
          catch i8* null, !dbg !12061
  %7 = extractvalue { i8*, i32 } %6, 0, !dbg !12061
  call void @__clang_call_terminate(i8* %7) #17, !dbg !12061
  unreachable, !dbg !12061
}

; Function Attrs: nounwind
define linkonce_odr void @_ZN10ap_privateILi16ELb1ELb1EE12check_canaryEv(%class.ap_private*) #10 comdat align 2 !dbg !12063 !xidane.fname !12064 !xidane.function_declaration_type !11109 !xidane.function_declaration_filename !11893 {
  %2 = alloca %class.ap_private*, align 8
  store %class.ap_private* %0, %class.ap_private** %2, align 8
  call void @llvm.dbg.declare(metadata %class.ap_private** %2, metadata !12065, metadata !11119), !dbg !12066
  %3 = load %class.ap_private*, %class.ap_private** %2, align 8
  ret void, !dbg !12067
}

; Function Attrs: noinline noreturn nounwind
define linkonce_odr hidden void @__clang_call_terminate(i8*) #11 comdat {
  %2 = call i8* @__cxa_begin_catch(i8* %0) #3
  call void @_ZSt9terminatev() #17
  unreachable
}

declare i8* @__cxa_begin_catch(i8*)

declare void @_ZSt9terminatev()

; Function Attrs: nounwind
define linkonce_odr void @_ZN10ap_privateILi8ELb0ELb1EE12check_canaryEv(%class.ap_private.0*) #10 comdat align 2 !dbg !12068 !xidane.fname !12064 !xidane.function_declaration_type !11109 !xidane.function_declaration_filename !11893 {
  %2 = alloca %class.ap_private.0*, align 8
  store %class.ap_private.0* %0, %class.ap_private.0** %2, align 8
  call void @llvm.dbg.declare(metadata %class.ap_private.0** %2, metadata !12069, metadata !11119), !dbg !12070
  %3 = load %class.ap_private.0*, %class.ap_private.0** %2, align 8
  ret void, !dbg !12071
}

; Function Attrs: inlinehint nounwind
define linkonce_odr void @_ZN10ap_privateILi32ELb1ELb1EED2Ev(%class.ap_private.3*) unnamed_addr #8 comdat align 2 personality i8* bitcast (i32 (...)* @__gxx_personality_v0 to i8*) !dbg !12072 !xidane.fname !12053 !xidane.function_declaration_type !11109 !xidane.function_declaration_filename !11893 {
  %2 = alloca %class.ap_private.3*, align 8
  store %class.ap_private.3* %0, %class.ap_private.3** %2, align 8
  call void @llvm.dbg.declare(metadata %class.ap_private.3** %2, metadata !12073, metadata !11119), !dbg !12075
  %3 = load %class.ap_private.3*, %class.ap_private.3** %2, align 8
  invoke void @_ZN10ap_privateILi32ELb1ELb1EE12check_canaryEv(%class.ap_private.3* %3)
          to label %4 unwind label %5, !dbg !12076

; <label>:4:                                      ; preds = %1
  ret void, !dbg !12078

; <label>:5:                                      ; preds = %1
  %6 = landingpad { i8*, i32 }
          catch i8* null, !dbg !12080
  %7 = extractvalue { i8*, i32 } %6, 0, !dbg !12080
  call void @__clang_call_terminate(i8* %7) #17, !dbg !12080
  unreachable, !dbg !12080
}

; Function Attrs: nounwind
define linkonce_odr void @_ZN10ap_privateILi32ELb1ELb1EE12check_canaryEv(%class.ap_private.3*) #10 comdat align 2 !dbg !12082 !xidane.fname !12064 !xidane.function_declaration_type !11109 !xidane.function_declaration_filename !11893 {
  %2 = alloca %class.ap_private.3*, align 8
  store %class.ap_private.3* %0, %class.ap_private.3** %2, align 8
  call void @llvm.dbg.declare(metadata %class.ap_private.3** %2, metadata !12083, metadata !11119), !dbg !12084
  %3 = load %class.ap_private.3*, %class.ap_private.3** %2, align 8
  ret void, !dbg !12085
}

declare !xidane.fname !11688 !xidane.function_declaration_type !12086 !xidane.function_declaration_filename !11690 void @_ZNSt7__cxx1112basic_stringIcSt11char_traitsIcESaIcEEC1ERKS4_(%"class.std::__cxx11::basic_string"*, %"class.std::__cxx11::basic_string"* dereferenceable(32)) unnamed_addr #1

declare !xidane.fname !12087 !xidane.function_declaration_type !12088 !xidane.function_declaration_filename !11690 dereferenceable(32) %"class.std::__cxx11::basic_string"* @_ZNSt7__cxx1112basic_stringIcSt11char_traitsIcESaIcEE6appendEPKc(%"class.std::__cxx11::basic_string"*, i8*) #1

; Function Attrs: inlinehint
define linkonce_odr void @_ZN13ap_fixed_baseILi16ELi4ELb1EL9ap_q_mode5EL9ap_o_mode3ELi0EEC2Ev(%struct.ap_fixed_base*) unnamed_addr #7 comdat align 2 !dbg !12089 !xidane.fname !12090 !xidane.function_declaration_type !11109 !xidane.function_declaration_filename !11699 {
  %2 = alloca %struct.ap_fixed_base*, align 8
  store %struct.ap_fixed_base* %0, %struct.ap_fixed_base** %2, align 8
  call void @llvm.dbg.declare(metadata %struct.ap_fixed_base** %2, metadata !12091, metadata !11119), !dbg !12092
  %3 = load %struct.ap_fixed_base*, %struct.ap_fixed_base** %2, align 8
  %4 = getelementptr inbounds %struct.ap_fixed_base, %struct.ap_fixed_base* %3, i32 0, i32 0, !dbg !12093
  call void @_ZN10ap_privateILi16ELb1ELb1EEC2Ev(%class.ap_private* %4), !dbg !12093
  ret void, !dbg !12094
}

; Function Attrs: inlinehint
define linkonce_odr void @_ZN10ap_privateILi16ELb1ELb1EEC2Ev(%class.ap_private*) unnamed_addr #7 comdat align 2 !dbg !12095 !xidane.fname !12096 !xidane.function_declaration_type !11109 !xidane.function_declaration_filename !11893 {
  %2 = alloca %class.ap_private*, align 8
  store %class.ap_private* %0, %class.ap_private** %2, align 8
  call void @llvm.dbg.declare(metadata %class.ap_private** %2, metadata !12097, metadata !11119), !dbg !12098
  %3 = load %class.ap_private*, %class.ap_private** %2, align 8
  call void @_ZN10ap_privateILi16ELb1ELb1EE10set_canaryEv(%class.ap_private* %3), !dbg !12099
  call void @_ZN10ap_privateILi16ELb1ELb1EE15clearUnusedBitsEv(%class.ap_private* %3), !dbg !12101
  call void @_ZN10ap_privateILi16ELb1ELb1EE12check_canaryEv(%class.ap_private* %3), !dbg !12102
  ret void, !dbg !12103
}

; Function Attrs: nounwind
define linkonce_odr void @_ZN10ap_privateILi16ELb1ELb1EE10set_canaryEv(%class.ap_private*) #10 comdat align 2 !dbg !12104 !xidane.fname !12105 !xidane.function_declaration_type !11109 !xidane.function_declaration_filename !11893 {
  %2 = alloca %class.ap_private*, align 8
  store %class.ap_private* %0, %class.ap_private** %2, align 8
  call void @llvm.dbg.declare(metadata %class.ap_private** %2, metadata !12106, metadata !11119), !dbg !12107
  %3 = load %class.ap_private*, %class.ap_private** %2, align 8
  ret void, !dbg !12108
}

; Function Attrs: inlinehint nounwind
define linkonce_odr void @_ZN10ap_privateILi16ELb1ELb1EE15clearUnusedBitsEv(%class.ap_private*) #8 comdat align 2 !dbg !32 !xidane.fname !12109 !xidane.function_declaration_type !11109 !xidane.function_declaration_filename !11893 {
  %2 = alloca %class.ap_private*, align 8
  store %class.ap_private* %0, %class.ap_private** %2, align 8
  call void @llvm.dbg.declare(metadata %class.ap_private** %2, metadata !12110, metadata !11119), !dbg !12111
  %3 = load %class.ap_private*, %class.ap_private** %2, align 8
  %4 = getelementptr inbounds %class.ap_private, %class.ap_private* %3, i32 0, i32 0, !dbg !12112
  %5 = load i16, i16* %4, align 2, !dbg !12112
  %6 = sext i16 %5 to i64, !dbg !12112
  %7 = shl i64 %6, 48, !dbg !12113
  %8 = ashr i64 %7, 48, !dbg !12114
  %9 = trunc i64 %8 to i16, !dbg !12115
  %10 = getelementptr inbounds %class.ap_private, %class.ap_private* %3, i32 0, i32 0, !dbg !12116
  store i16 %9, i16* %10, align 2, !dbg !12117
  ret void, !dbg !12118
}

; Function Attrs: inlinehint
define linkonce_odr void @_ZN10ap_privateILi8ELb0ELb1EEC2Ev(%class.ap_private.0*) unnamed_addr #7 comdat align 2 !dbg !12119 !xidane.fname !12096 !xidane.function_declaration_type !11109 !xidane.function_declaration_filename !11893 {
  %2 = alloca %class.ap_private.0*, align 8
  store %class.ap_private.0* %0, %class.ap_private.0** %2, align 8
  call void @llvm.dbg.declare(metadata %class.ap_private.0** %2, metadata !12120, metadata !11119), !dbg !12121
  %3 = load %class.ap_private.0*, %class.ap_private.0** %2, align 8
  call void @_ZN10ap_privateILi8ELb0ELb1EE10set_canaryEv(%class.ap_private.0* %3), !dbg !12122
  call void @_ZN10ap_privateILi8ELb0ELb1EE15clearUnusedBitsEv(%class.ap_private.0* %3), !dbg !12124
  call void @_ZN10ap_privateILi8ELb0ELb1EE12check_canaryEv(%class.ap_private.0* %3), !dbg !12125
  ret void, !dbg !12126
}

; Function Attrs: nounwind
define linkonce_odr void @_ZN10ap_privateILi8ELb0ELb1EE10set_canaryEv(%class.ap_private.0*) #10 comdat align 2 !dbg !12127 !xidane.fname !12105 !xidane.function_declaration_type !11109 !xidane.function_declaration_filename !11893 {
  %2 = alloca %class.ap_private.0*, align 8
  store %class.ap_private.0* %0, %class.ap_private.0** %2, align 8
  call void @llvm.dbg.declare(metadata %class.ap_private.0** %2, metadata !12128, metadata !11119), !dbg !12129
  %3 = load %class.ap_private.0*, %class.ap_private.0** %2, align 8
  ret void, !dbg !12130
}

; Function Attrs: inlinehint nounwind
define linkonce_odr void @_ZN10ap_privateILi8ELb0ELb1EE15clearUnusedBitsEv(%class.ap_private.0*) #8 comdat align 2 !dbg !2428 !xidane.fname !12109 !xidane.function_declaration_type !11109 !xidane.function_declaration_filename !11893 {
  %2 = alloca %class.ap_private.0*, align 8
  store %class.ap_private.0* %0, %class.ap_private.0** %2, align 8
  call void @llvm.dbg.declare(metadata %class.ap_private.0** %2, metadata !12131, metadata !11119), !dbg !12132
  %3 = load %class.ap_private.0*, %class.ap_private.0** %2, align 8
  %4 = getelementptr inbounds %class.ap_private.0, %class.ap_private.0* %3, i32 0, i32 0, !dbg !12133
  %5 = load i8, i8* %4, align 1, !dbg !12133
  %6 = zext i8 %5 to i64, !dbg !12133
  %7 = shl i64 %6, 56, !dbg !12134
  %8 = lshr i64 %7, 56, !dbg !12135
  %9 = trunc i64 %8 to i8, !dbg !12136
  %10 = getelementptr inbounds %class.ap_private.0, %class.ap_private.0* %3, i32 0, i32 0, !dbg !12137
  store i8 %9, i8* %10, align 1, !dbg !12138
  ret void, !dbg !12139
}

; Function Attrs: inlinehint
define linkonce_odr void @_ZN13ap_fixed_baseILi32ELi13ELb1EL9ap_q_mode5EL9ap_o_mode3ELi0EEC2Ev(%struct.ap_fixed_base.2*) unnamed_addr #7 comdat align 2 !dbg !12140 !xidane.fname !12090 !xidane.function_declaration_type !11109 !xidane.function_declaration_filename !11699 {
  %2 = alloca %struct.ap_fixed_base.2*, align 8
  store %struct.ap_fixed_base.2* %0, %struct.ap_fixed_base.2** %2, align 8
  call void @llvm.dbg.declare(metadata %struct.ap_fixed_base.2** %2, metadata !12141, metadata !11119), !dbg !12142
  %3 = load %struct.ap_fixed_base.2*, %struct.ap_fixed_base.2** %2, align 8
  %4 = getelementptr inbounds %struct.ap_fixed_base.2, %struct.ap_fixed_base.2* %3, i32 0, i32 0, !dbg !12143
  call void @_ZN10ap_privateILi32ELb1ELb1EEC2Ev(%class.ap_private.3* %4), !dbg !12143
  ret void, !dbg !12144
}

; Function Attrs: inlinehint
define linkonce_odr void @_ZN10ap_privateILi32ELb1ELb1EEC2Ev(%class.ap_private.3*) unnamed_addr #7 comdat align 2 !dbg !12145 !xidane.fname !12096 !xidane.function_declaration_type !11109 !xidane.function_declaration_filename !11893 {
  %2 = alloca %class.ap_private.3*, align 8
  store %class.ap_private.3* %0, %class.ap_private.3** %2, align 8
  call void @llvm.dbg.declare(metadata %class.ap_private.3** %2, metadata !12146, metadata !11119), !dbg !12147
  %3 = load %class.ap_private.3*, %class.ap_private.3** %2, align 8
  call void @_ZN10ap_privateILi32ELb1ELb1EE10set_canaryEv(%class.ap_private.3* %3), !dbg !12148
  call void @_ZN10ap_privateILi32ELb1ELb1EE15clearUnusedBitsEv(%class.ap_private.3* %3), !dbg !12150
  call void @_ZN10ap_privateILi32ELb1ELb1EE12check_canaryEv(%class.ap_private.3* %3), !dbg !12151
  ret void, !dbg !12152
}

; Function Attrs: nounwind
define linkonce_odr void @_ZN10ap_privateILi32ELb1ELb1EE10set_canaryEv(%class.ap_private.3*) #10 comdat align 2 !dbg !12153 !xidane.fname !12105 !xidane.function_declaration_type !11109 !xidane.function_declaration_filename !11893 {
  %2 = alloca %class.ap_private.3*, align 8
  store %class.ap_private.3* %0, %class.ap_private.3** %2, align 8
  call void @llvm.dbg.declare(metadata %class.ap_private.3** %2, metadata !12154, metadata !11119), !dbg !12155
  %3 = load %class.ap_private.3*, %class.ap_private.3** %2, align 8
  ret void, !dbg !12156
}

; Function Attrs: inlinehint nounwind
define linkonce_odr void @_ZN10ap_privateILi32ELb1ELb1EE15clearUnusedBitsEv(%class.ap_private.3*) #8 comdat align 2 !dbg !4037 !xidane.fname !12109 !xidane.function_declaration_type !11109 !xidane.function_declaration_filename !11893 {
  %2 = alloca %class.ap_private.3*, align 8
  store %class.ap_private.3* %0, %class.ap_private.3** %2, align 8
  call void @llvm.dbg.declare(metadata %class.ap_private.3** %2, metadata !12157, metadata !11119), !dbg !12158
  %3 = load %class.ap_private.3*, %class.ap_private.3** %2, align 8
  %4 = getelementptr inbounds %class.ap_private.3, %class.ap_private.3* %3, i32 0, i32 0, !dbg !12159
  %5 = load i32, i32* %4, align 4, !dbg !12159
  %6 = sext i32 %5 to i64, !dbg !12159
  %7 = shl i64 %6, 32, !dbg !12160
  %8 = ashr i64 %7, 32, !dbg !12161
  %9 = trunc i64 %8 to i32, !dbg !12162
  %10 = getelementptr inbounds %class.ap_private.3, %class.ap_private.3* %3, i32 0, i32 0, !dbg !12163
  store i32 %9, i32* %10, align 4, !dbg !12164
  ret void, !dbg !12165
}

; Function Attrs: inlinehint
define linkonce_odr void @_ZN13ap_fixed_baseILi16ELi4ELb1EL9ap_q_mode5EL9ap_o_mode3ELi0EEC2Ef(%struct.ap_fixed_base*, float) unnamed_addr #7 comdat align 2 personality i8* bitcast (i32 (...)* @__gxx_personality_v0 to i8*) !dbg !12166 !xidane.fname !12090 !xidane.function_declaration_type !11849 !xidane.function_declaration_filename !11699 {
  %3 = alloca %struct.ap_fixed_base*, align 8
  %4 = alloca float, align 4
  %5 = alloca %struct.ap_fixed_base, align 2
  %6 = alloca i8*
  %7 = alloca i32
  store %struct.ap_fixed_base* %0, %struct.ap_fixed_base** %3, align 8
  call void @llvm.dbg.declare(metadata %struct.ap_fixed_base** %3, metadata !12167, metadata !11119), !dbg !12168
  store float %1, float* %4, align 4
  call void @llvm.dbg.declare(metadata float* %4, metadata !12169, metadata !11119), !dbg !12170
  %8 = load %struct.ap_fixed_base*, %struct.ap_fixed_base** %3, align 8
  %9 = getelementptr inbounds %struct.ap_fixed_base, %struct.ap_fixed_base* %8, i32 0, i32 0, !dbg !12171
  call void @_ZN10ap_privateILi16ELb1ELb1EEC2Ei(%class.ap_private* %9, i32 0), !dbg !12171
  %10 = load float, float* %4, align 4, !dbg !12172
  %11 = fpext float %10 to double, !dbg !12172
  invoke void @_ZN13ap_fixed_baseILi16ELi4ELb1EL9ap_q_mode5EL9ap_o_mode3ELi0EEC2Ed(%struct.ap_fixed_base* %5, double %11)
          to label %12 unwind label %15, !dbg !12174

; <label>:12:                                     ; preds = %2
  %13 = invoke dereferenceable(2) %struct.ap_fixed_base* @_ZN13ap_fixed_baseILi16ELi4ELb1EL9ap_q_mode5EL9ap_o_mode3ELi0EEaSERKS2_(%struct.ap_fixed_base* %8, %struct.ap_fixed_base* dereferenceable(2) %5)
          to label %14 unwind label %19, !dbg !12175

; <label>:14:                                     ; preds = %12
  call void @_ZN13ap_fixed_baseILi16ELi4ELb1EL9ap_q_mode5EL9ap_o_mode3ELi0EED2Ev(%struct.ap_fixed_base* %5) #3, !dbg !12177
  ret void, !dbg !12179

; <label>:15:                                     ; preds = %2
  %16 = landingpad { i8*, i32 }
          cleanup, !dbg !12180
  %17 = extractvalue { i8*, i32 } %16, 0, !dbg !12180
  store i8* %17, i8** %6, align 8, !dbg !12180
  %18 = extractvalue { i8*, i32 } %16, 1, !dbg !12180
  store i32 %18, i32* %7, align 4, !dbg !12180
  br label %23, !dbg !12180

; <label>:19:                                     ; preds = %12
  %20 = landingpad { i8*, i32 }
          cleanup, !dbg !12181
  %21 = extractvalue { i8*, i32 } %20, 0, !dbg !12181
  store i8* %21, i8** %6, align 8, !dbg !12181
  %22 = extractvalue { i8*, i32 } %20, 1, !dbg !12181
  store i32 %22, i32* %7, align 4, !dbg !12181
  call void @_ZN13ap_fixed_baseILi16ELi4ELb1EL9ap_q_mode5EL9ap_o_mode3ELi0EED2Ev(%struct.ap_fixed_base* %5) #3, !dbg !12182
  br label %23, !dbg !12182

; <label>:23:                                     ; preds = %19, %15
  call void @_ZN10ap_privateILi16ELb1ELb1EED2Ev(%class.ap_private* %9) #3, !dbg !12184
  br label %24, !dbg !12184

; <label>:24:                                     ; preds = %23
  %25 = load i8*, i8** %6, align 8, !dbg !12185
  %26 = load i32, i32* %7, align 4, !dbg !12185
  %27 = insertvalue { i8*, i32 } undef, i8* %25, 0, !dbg !12185
  %28 = insertvalue { i8*, i32 } %27, i32 %26, 1, !dbg !12185
  resume { i8*, i32 } %28, !dbg !12185
}

; Function Attrs: inlinehint nounwind
define linkonce_odr void @_ZN10ap_privateILi16ELb1ELb1EEC2Ei(%class.ap_private*, i32) unnamed_addr #8 comdat align 2 !dbg !12187 !xidane.fname !12096 !xidane.function_declaration_type !11867 !xidane.function_declaration_filename !11893 {
  %3 = alloca %class.ap_private*, align 8
  %4 = alloca i32, align 4
  store %class.ap_private* %0, %class.ap_private** %3, align 8
  call void @llvm.dbg.declare(metadata %class.ap_private** %3, metadata !12188, metadata !11119), !dbg !12189
  store i32 %1, i32* %4, align 4
  call void @llvm.dbg.declare(metadata i32* %4, metadata !12190, metadata !11119), !dbg !12191
  %5 = load %class.ap_private*, %class.ap_private** %3, align 8
  %6 = getelementptr inbounds %class.ap_private, %class.ap_private* %5, i32 0, i32 0, !dbg !12191
  %7 = load i32, i32* %4, align 4, !dbg !12191
  %8 = trunc i32 %7 to i16, !dbg !12191
  store i16 %8, i16* %6, align 2, !dbg !12191
  call void @_ZN10ap_privateILi16ELb1ELb1EE10set_canaryEv(%class.ap_private* %5), !dbg !12192
  call void @_ZN10ap_privateILi16ELb1ELb1EE15clearUnusedBitsEv(%class.ap_private* %5), !dbg !12194
  call void @_ZN10ap_privateILi16ELb1ELb1EE12check_canaryEv(%class.ap_private* %5), !dbg !12196
  ret void, !dbg !12191
}

; Function Attrs: inlinehint
define linkonce_odr dereferenceable(2) %struct.ap_fixed_base* @_ZN13ap_fixed_baseILi16ELi4ELb1EL9ap_q_mode5EL9ap_o_mode3ELi0EEaSERKS2_(%struct.ap_fixed_base*, %struct.ap_fixed_base* dereferenceable(2)) #7 comdat align 2 !dbg !12198 !xidane.fname !11839 !xidane.function_declaration_type !12199 !xidane.function_declaration_filename !11699 {
  %3 = alloca %struct.ap_fixed_base*, align 8
  %4 = alloca %struct.ap_fixed_base*, align 8
  store %struct.ap_fixed_base* %0, %struct.ap_fixed_base** %3, align 8
  call void @llvm.dbg.declare(metadata %struct.ap_fixed_base** %3, metadata !12200, metadata !11119), !dbg !12201
  store %struct.ap_fixed_base* %1, %struct.ap_fixed_base** %4, align 8
  call void @llvm.dbg.declare(metadata %struct.ap_fixed_base** %4, metadata !12202, metadata !11119), !dbg !12203
  %5 = load %struct.ap_fixed_base*, %struct.ap_fixed_base** %3, align 8
  %6 = getelementptr inbounds %struct.ap_fixed_base, %struct.ap_fixed_base* %5, i32 0, i32 0, !dbg !12204
  %7 = load %struct.ap_fixed_base*, %struct.ap_fixed_base** %4, align 8, !dbg !12205
  %8 = getelementptr inbounds %struct.ap_fixed_base, %struct.ap_fixed_base* %7, i32 0, i32 0, !dbg !12206
  %9 = call dereferenceable(2) %class.ap_private* @_ZN10ap_privateILi16ELb1ELb1EEaSERKS0_(%class.ap_private* %6, %class.ap_private* dereferenceable(2) %8), !dbg !12207
  ret %struct.ap_fixed_base* %5, !dbg !12208
}

; Function Attrs: inlinehint
define linkonce_odr void @_ZN13ap_fixed_baseILi16ELi4ELb1EL9ap_q_mode5EL9ap_o_mode3ELi0EEC2Ed(%struct.ap_fixed_base*, double) unnamed_addr #7 comdat align 2 personality i8* bitcast (i32 (...)* @__gxx_personality_v0 to i8*) !dbg !5689 !xidane.fname !12090 !xidane.function_declaration_type !12209 !xidane.function_declaration_filename !11699 {
  %3 = alloca %struct.ap_fixed_base*, align 8
  %4 = alloca double, align 8
  %5 = alloca i8, align 1
  %6 = alloca i64, align 8
  %7 = alloca i8*
  %8 = alloca i32
  %9 = alloca i32, align 4
  %10 = alloca %class.ap_private.11, align 8
  %11 = alloca %struct.ap_range_ref.12, align 8
  %12 = alloca %class.ap_private.11, align 8
  %13 = alloca i32, align 4
  %14 = alloca i32, align 4
  %15 = alloca i8, align 1
  %16 = alloca i8, align 1
  %17 = alloca i32, align 4
  %18 = alloca %class.ap_private, align 2
  %19 = alloca %class.ap_private.11, align 8
  %20 = alloca %class.ap_private.13, align 8
  %21 = alloca %class.ap_private.11, align 8
  %22 = alloca %class.ap_private.13, align 8
  store %struct.ap_fixed_base* %0, %struct.ap_fixed_base** %3, align 8
  call void @llvm.dbg.declare(metadata %struct.ap_fixed_base** %3, metadata !12210, metadata !11119), !dbg !12211
  store double %1, double* %4, align 8
  call void @llvm.dbg.declare(metadata double* %4, metadata !12212, metadata !11119), !dbg !12213
  %23 = load %struct.ap_fixed_base*, %struct.ap_fixed_base** %3, align 8
  %24 = getelementptr inbounds %struct.ap_fixed_base, %struct.ap_fixed_base* %23, i32 0, i32 0, !dbg !12214
  call void @_ZN10ap_privateILi16ELb1ELb1EEC2Ei(%class.ap_private* %24, i32 0), !dbg !12214
  %25 = load double, double* %4, align 8, !dbg !12215
  %26 = fcmp une double %25, 0.000000e+00, !dbg !12215
  br i1 %26, label %28, label %27, !dbg !12218

; <label>:27:                                     ; preds = %2
  br label %185, !dbg !12219

; <label>:28:                                     ; preds = %2
  call void @llvm.dbg.declare(metadata i8* %5, metadata !12221, metadata !11119), !dbg !12222
  %29 = load double, double* %4, align 8, !dbg !12223
  %30 = fcmp olt double %29, 0.000000e+00, !dbg !12224
  %31 = zext i1 %30 to i8, !dbg !12222
  store i8 %31, i8* %5, align 1, !dbg !12222
  call void @llvm.dbg.declare(metadata i64* %6, metadata !12225, metadata !11119), !dbg !12226
  %32 = load i8, i8* %5, align 1, !dbg !12227
  %33 = trunc i8 %32 to i1, !dbg !12227
  br i1 %33, label %34, label %37, !dbg !12227

; <label>:34:                                     ; preds = %28
  %35 = load double, double* %4, align 8, !dbg !12228
  %36 = fsub double -0.000000e+00, %35, !dbg !12230
  br label %39, !dbg !12231

; <label>:37:                                     ; preds = %28
  %38 = load double, double* %4, align 8, !dbg !12232
  br label %39, !dbg !12234

; <label>:39:                                     ; preds = %37, %34
  %40 = phi double [ %36, %34 ], [ %38, %37 ], !dbg !12235
  %41 = invoke i64 @_ZNK13ap_fixed_baseILi16ELi4ELb1EL9ap_q_mode5EL9ap_o_mode3ELi0EE15doubleToRawBitsEd(%struct.ap_fixed_base* %23, double %40)
          to label %42 unwind label %68, !dbg !12237

; <label>:42:                                     ; preds = %39
  store i64 %41, i64* %6, align 8, !dbg !12238
  %43 = load i64, i64* %6, align 8, !dbg !12240
  %44 = and i64 %43, 9223372036854775807, !dbg !12242
  %45 = icmp ne i64 %44, 0, !dbg !12243
  br i1 %45, label %46, label %184, !dbg !12244

; <label>:46:                                     ; preds = %42
  call void @llvm.dbg.declare(metadata i32* %9, metadata !12245, metadata !11119), !dbg !12248
  %47 = load i64, i64* %6, align 8, !dbg !12249
  %48 = lshr i64 %47, 52, !dbg !12250
  %49 = and i64 %48, 2047, !dbg !12251
  %50 = sub i64 %49, 1023, !dbg !12252
  %51 = trunc i64 %50 to i32, !dbg !12253
  store i32 %51, i32* %9, align 4, !dbg !12248
  call void @llvm.dbg.declare(metadata %class.ap_private.11* %10, metadata !12254, metadata !11119), !dbg !12255
  %52 = load i64, i64* %6, align 8, !dbg !12256
  %53 = and i64 %52, 18014398509481983, !dbg !12257
  invoke void @_ZN10ap_privateILi54ELb1ELb1EEC2Ey(%class.ap_private.11* %10, i64 %53)
          to label %54 unwind label %68, !dbg !12256

; <label>:54:                                     ; preds = %46
  %55 = load i32, i32* %9, align 4, !dbg !12258
  %56 = sext i32 %55 to i64, !dbg !12258
  %57 = icmp eq i64 %56, 1024, !dbg !12260
  br i1 %57, label %58, label %62, !dbg !12261

; <label>:58:                                     ; preds = %54
  invoke void @_ZN10ap_privateILi54ELb1ELb1EE5rangeEii(%struct.ap_range_ref.12* sret %11, %class.ap_private.11* %10, i32 51, i32 0)
          to label %59 unwind label %72, !dbg !12262

; <label>:59:                                     ; preds = %58
  %60 = invoke i1 @_ZneILi54ELb1EEbRK12ap_range_refIXT_EXT0_EEi(%struct.ap_range_ref.12* dereferenceable(16) %11, i32 0)
          to label %61 unwind label %72, !dbg !12263

; <label>:61:                                     ; preds = %59
  br label %62

; <label>:62:                                     ; preds = %61, %54
  %63 = phi i1 [ false, %54 ], [ %60, %61 ]
  br i1 %63, label %64, label %76, !dbg !12265

; <label>:64:                                     ; preds = %62
  %65 = load %struct._IO_FILE*, %struct._IO_FILE** @stderr, align 8, !dbg !12267
  %66 = invoke i32 (%struct._IO_FILE*, i8*, ...) @fprintf(%struct._IO_FILE* %65, i8* getelementptr inbounds ([69 x i8], [69 x i8]* @.str.12, i32 0, i32 0), i8* getelementptr inbounds ([1 x i8], [1 x i8]* @.str.1, i32 0, i32 0), i32 16)
          to label %67 unwind label %72, !dbg !12269

; <label>:67:                                     ; preds = %64
  call void @exit(i32 1) #17, !dbg !12270
  unreachable, !dbg !12270

; <label>:68:                                     ; preds = %184, %46, %39
  %69 = landingpad { i8*, i32 }
          cleanup, !dbg !12271
  %70 = extractvalue { i8*, i32 } %69, 0, !dbg !12271
  store i8* %70, i8** %7, align 8, !dbg !12271
  %71 = extractvalue { i8*, i32 } %69, 1, !dbg !12271
  store i32 %71, i32* %8, align 4, !dbg !12271
  br label %186, !dbg !12271

; <label>:72:                                     ; preds = %175, %172, %125, %113, %103, %85, %83, %78, %76, %64, %59, %58
  %73 = landingpad { i8*, i32 }
          cleanup, !dbg !12272
  %74 = extractvalue { i8*, i32 } %73, 0, !dbg !12272
  store i8* %74, i8** %7, align 8, !dbg !12272
  %75 = extractvalue { i8*, i32 } %73, 1, !dbg !12272
  store i32 %75, i32* %8, align 4, !dbg !12272
  br label %183, !dbg !12272

; <label>:76:                                     ; preds = %62
  %77 = invoke dereferenceable(8) %class.ap_private.11* @_ZN10ap_privateILi54ELb1ELb1EE5clearEj(%class.ap_private.11* %10, i32 53)
          to label %78 unwind label %72, !dbg !12273

; <label>:78:                                     ; preds = %76
  %79 = invoke dereferenceable(8) %class.ap_private.11* @_ZN10ap_privateILi54ELb1ELb1EE3setEj(%class.ap_private.11* %10, i32 52)
          to label %80 unwind label %72, !dbg !12274

; <label>:80:                                     ; preds = %78
  %81 = load i8, i8* %5, align 1, !dbg !12275
  %82 = trunc i8 %81 to i1, !dbg !12275
  br i1 %82, label %83, label %87, !dbg !12277

; <label>:83:                                     ; preds = %80
  %84 = invoke dereferenceable(8) %class.ap_private.11* @_ZN10ap_privateILi54ELb1ELb1EE4flipEv(%class.ap_private.11* %10)
          to label %85 unwind label %72, !dbg !12278

; <label>:85:                                     ; preds = %83
  invoke void @_ZN10ap_privateILi54ELb1ELb1EEppEi(%class.ap_private.11* sret %12, %class.ap_private.11* %10, i32 0)
          to label %86 unwind label %72, !dbg !12280

; <label>:86:                                     ; preds = %85
  call void @_ZN10ap_privateILi54ELb1ELb1EED2Ev(%class.ap_private.11* %12) #3, !dbg !12281
  br label %87, !dbg !12283

; <label>:87:                                     ; preds = %86, %80
  call void @llvm.dbg.declare(metadata i32* %13, metadata !12284, metadata !11119), !dbg !12285
  %88 = load i32, i32* %9, align 4, !dbg !12286
  %89 = add nsw i32 %88, 2, !dbg !12287
  store i32 %89, i32* %13, align 4, !dbg !12285
  call void @llvm.dbg.declare(metadata i32* %14, metadata !12288, metadata !11119), !dbg !12289
  %90 = load i32, i32* %13, align 4, !dbg !12290
  %91 = sub nsw i32 54, %90, !dbg !12291
  store i32 %91, i32* %14, align 4, !dbg !12289
  call void @llvm.dbg.declare(metadata i8* %15, metadata !12292, metadata !11119), !dbg !12293
  %92 = load i32, i32* %14, align 4, !dbg !12294
  %93 = icmp sgt i32 %92, 12, !dbg !12295
  br i1 %93, label %94, label %95, !dbg !12296

; <label>:94:                                     ; preds = %87
  br label %95

; <label>:95:                                     ; preds = %94, %87
  %96 = phi i1 [ false, %87 ], [ false, %94 ]
  %97 = zext i1 %96 to i8, !dbg !12297
  store i8 %97, i8* %15, align 1, !dbg !12297
  call void @llvm.dbg.declare(metadata i8* %16, metadata !12298, metadata !11119), !dbg !12299
  store i8 0, i8* %16, align 1, !dbg !12299
  call void @llvm.dbg.declare(metadata i32* %17, metadata !12300, metadata !11119), !dbg !12301
  %98 = load i32, i32* %14, align 4, !dbg !12302
  %99 = sub nsw i32 %98, 12, !dbg !12303
  %100 = call i32 @abs(i32 %99) #5, !dbg !12304
  store i32 %100, i32* %17, align 4, !dbg !12301
  %101 = load i32, i32* %14, align 4, !dbg !12305
  %102 = icmp eq i32 %101, 12, !dbg !12307
  br i1 %102, label %103, label %107, !dbg !12308

; <label>:103:                                    ; preds = %95
  %104 = getelementptr inbounds %struct.ap_fixed_base, %struct.ap_fixed_base* %23, i32 0, i32 0, !dbg !12309
  %105 = invoke dereferenceable(2) %class.ap_private* @_ZN10ap_privateILi16ELb1ELb1EEaSILi54ELb1EEERS0_RKS_IXT_EXT0_EXleT_Li64EEE(%class.ap_private* %104, %class.ap_private.11* dereferenceable(8) %10)
          to label %106 unwind label %72, !dbg !12310

; <label>:106:                                    ; preds = %103
  br label %182, !dbg !12311

; <label>:107:                                    ; preds = %95
  %108 = load i32, i32* %14, align 4, !dbg !12313
  %109 = icmp sgt i32 %108, 12, !dbg !12315
  br i1 %109, label %110, label %169, !dbg !12316

; <label>:110:                                    ; preds = %107
  %111 = load i32, i32* %17, align 4, !dbg !12317
  %112 = icmp uge i32 %111, 54, !dbg !12320
  br i1 %112, label %113, label %125, !dbg !12321

; <label>:113:                                    ; preds = %110
  %114 = getelementptr inbounds %struct.ap_fixed_base, %struct.ap_fixed_base* %23, i32 0, i32 0, !dbg !12322
  %115 = load i8, i8* %5, align 1, !dbg !12323
  %116 = trunc i8 %115 to i1, !dbg !12323
  %117 = select i1 %116, i32 -1, i32 0, !dbg !12323
  invoke void @_ZN10ap_privateILi16ELb1ELb1EEC2Ei(%class.ap_private* %18, i32 %117)
          to label %118 unwind label %72, !dbg !12323

; <label>:118:                                    ; preds = %113
  %119 = invoke dereferenceable(2) %class.ap_private* @_ZN10ap_privateILi16ELb1ELb1EEaSERKS0_(%class.ap_private* %114, %class.ap_private* dereferenceable(2) %18)
          to label %120 unwind label %121, !dbg !12324

; <label>:120:                                    ; preds = %118
  call void @_ZN10ap_privateILi16ELb1ELb1EED2Ev(%class.ap_private* %18) #3, !dbg !12326
  br label %168, !dbg !12326

; <label>:121:                                    ; preds = %118
  %122 = landingpad { i8*, i32 }
          cleanup, !dbg !12328
  %123 = extractvalue { i8*, i32 } %122, 0, !dbg !12328
  store i8* %123, i8** %7, align 8, !dbg !12328
  %124 = extractvalue { i8*, i32 } %122, 1, !dbg !12328
  store i32 %124, i32* %8, align 4, !dbg !12328
  call void @_ZN10ap_privateILi16ELb1ELb1EED2Ev(%class.ap_private* %18) #3, !dbg !12329
  br label %183, !dbg !12329

; <label>:125:                                    ; preds = %110
  %126 = getelementptr inbounds %struct.ap_fixed_base, %struct.ap_fixed_base* %23, i32 0, i32 0, !dbg !12331
  %127 = load i32, i32* %17, align 4, !dbg !12332
  invoke void @_ZNK10ap_privateILi54ELb1ELb1EErsEj(%class.ap_private.11* sret %21, %class.ap_private.11* %10, i32 %127)
          to label %128 unwind label %72, !dbg !12333

; <label>:128:                                    ; preds = %125
  invoke void @_ZanILi54ELb1EEN10ap_privateIXT_EXT0_EXleT_Li64EEE5RTypeIXLi64EEXLb0EEE5logicERKS1_y(%class.ap_private.13* sret %22, %class.ap_private.11* dereferenceable(8) %10, i64 9007199254740992)
          to label %129 unwind label %149, !dbg !12334

; <label>:129:                                    ; preds = %128
  %130 = invoke i64 @_ZNK10ap_privateILi65ELb1ELb0EEcvlEv(%class.ap_private.13* %22)
          to label %131 unwind label %153, !dbg !12335

; <label>:131:                                    ; preds = %129
  %132 = icmp ne i64 %130, 0, !dbg !12336
  br i1 %132, label %133, label %142, !dbg !12336

; <label>:133:                                    ; preds = %131
  %134 = load i32, i32* %17, align 4, !dbg !12337
  %135 = sub i32 54, %134, !dbg !12338
  %136 = zext i32 %135 to i64, !dbg !12339
  %137 = lshr i64 18014398509481983, %136, !dbg !12339
  %138 = load i32, i32* %17, align 4, !dbg !12340
  %139 = sub i32 54, %138, !dbg !12341
  %140 = zext i32 %139 to i64, !dbg !12342
  %141 = shl i64 %137, %140, !dbg !12342
  br label %143, !dbg !12343

; <label>:142:                                    ; preds = %131
  br label %143, !dbg !12344

; <label>:143:                                    ; preds = %142, %133
  %144 = phi i64 [ %141, %133 ], [ 0, %142 ], !dbg !12346
  invoke void @_ZorILi54ELb1EEN10ap_privateIXT_EXT0_EXleT_Li64EEE5RTypeIXLi64EEXLb0EEE5logicERKS1_y(%class.ap_private.13* sret %20, %class.ap_private.11* dereferenceable(8) %21, i64 %144)
          to label %145 unwind label %153, !dbg !12348

; <label>:145:                                    ; preds = %143
  invoke void @_ZN10ap_privateILi54ELb1ELb1EEC2ILi65ELb1ELb0EEERKS_IXT_EXT0_EXT1_EE(%class.ap_private.11* %19, %class.ap_private.13* dereferenceable(16) %20)
          to label %146 unwind label %157, !dbg !12349

; <label>:146:                                    ; preds = %145
  %147 = invoke dereferenceable(2) %class.ap_private* @_ZN10ap_privateILi16ELb1ELb1EEaSILi54ELb1EEERS0_RKS_IXT_EXT0_EXleT_Li64EEE(%class.ap_private* %126, %class.ap_private.11* dereferenceable(8) %19)
          to label %148 unwind label %161, !dbg !12350

; <label>:148:                                    ; preds = %146
  call void @_ZN10ap_privateILi54ELb1ELb1EED2Ev(%class.ap_private.11* %19) #3, !dbg !12351
  call void @_ZN10ap_privateILi65ELb1ELb0EED2Ev(%class.ap_private.13* %20) #3, !dbg !12352
  call void @_ZN10ap_privateILi65ELb1ELb0EED2Ev(%class.ap_private.13* %22) #3, !dbg !12354
  call void @_ZN10ap_privateILi54ELb1ELb1EED2Ev(%class.ap_private.11* %21) #3, !dbg !12356
  br label %168

; <label>:149:                                    ; preds = %128
  %150 = landingpad { i8*, i32 }
          cleanup, !dbg !12358
  %151 = extractvalue { i8*, i32 } %150, 0, !dbg !12358
  store i8* %151, i8** %7, align 8, !dbg !12358
  %152 = extractvalue { i8*, i32 } %150, 1, !dbg !12358
  store i32 %152, i32* %8, align 4, !dbg !12358
  br label %167, !dbg !12358

; <label>:153:                                    ; preds = %143, %129
  %154 = landingpad { i8*, i32 }
          cleanup, !dbg !12359
  %155 = extractvalue { i8*, i32 } %154, 0, !dbg !12359
  store i8* %155, i8** %7, align 8, !dbg !12359
  %156 = extractvalue { i8*, i32 } %154, 1, !dbg !12359
  store i32 %156, i32* %8, align 4, !dbg !12359
  br label %166, !dbg !12359

; <label>:157:                                    ; preds = %145
  %158 = landingpad { i8*, i32 }
          cleanup, !dbg !12360
  %159 = extractvalue { i8*, i32 } %158, 0, !dbg !12360
  store i8* %159, i8** %7, align 8, !dbg !12360
  %160 = extractvalue { i8*, i32 } %158, 1, !dbg !12360
  store i32 %160, i32* %8, align 4, !dbg !12360
  br label %165, !dbg !12360

; <label>:161:                                    ; preds = %146
  %162 = landingpad { i8*, i32 }
          cleanup, !dbg !12361
  %163 = extractvalue { i8*, i32 } %162, 0, !dbg !12361
  store i8* %163, i8** %7, align 8, !dbg !12361
  %164 = extractvalue { i8*, i32 } %162, 1, !dbg !12361
  store i32 %164, i32* %8, align 4, !dbg !12361
  call void @_ZN10ap_privateILi54ELb1ELb1EED2Ev(%class.ap_private.11* %19) #3, !dbg !12363
  br label %165, !dbg !12363

; <label>:165:                                    ; preds = %161, %157
  call void @_ZN10ap_privateILi65ELb1ELb0EED2Ev(%class.ap_private.13* %20) #3, !dbg !12364
  br label %166, !dbg !12364

; <label>:166:                                    ; preds = %165, %153
  call void @_ZN10ap_privateILi65ELb1ELb0EED2Ev(%class.ap_private.13* %22) #3, !dbg !12365
  br label %167, !dbg !12365

; <label>:167:                                    ; preds = %166, %149
  call void @_ZN10ap_privateILi54ELb1ELb1EED2Ev(%class.ap_private.11* %21) #3, !dbg !12367
  br label %183, !dbg !12367

; <label>:168:                                    ; preds = %148, %120
  br label %181, !dbg !12369

; <label>:169:                                    ; preds = %107
  %170 = load i32, i32* %17, align 4, !dbg !12370
  %171 = icmp ult i32 %170, 16, !dbg !12373
  br i1 %171, label %172, label %180, !dbg !12374

; <label>:172:                                    ; preds = %169
  %173 = getelementptr inbounds %struct.ap_fixed_base, %struct.ap_fixed_base* %23, i32 0, i32 0, !dbg !12375
  %174 = invoke dereferenceable(2) %class.ap_private* @_ZN10ap_privateILi16ELb1ELb1EEaSILi54ELb1EEERS0_RKS_IXT_EXT0_EXleT_Li64EEE(%class.ap_private* %173, %class.ap_private.11* dereferenceable(8) %10)
          to label %175 unwind label %72, !dbg !12377

; <label>:175:                                    ; preds = %172
  %176 = getelementptr inbounds %struct.ap_fixed_base, %struct.ap_fixed_base* %23, i32 0, i32 0, !dbg !12378
  %177 = load i32, i32* %17, align 4, !dbg !12379
  %178 = invoke dereferenceable(2) %class.ap_private* @_ZN10ap_privateILi16ELb1ELb1EElSEj(%class.ap_private* %176, i32 %177)
          to label %179 unwind label %72, !dbg !12380

; <label>:179:                                    ; preds = %175
  br label %180, !dbg !12381

; <label>:180:                                    ; preds = %179, %169
  br label %181

; <label>:181:                                    ; preds = %180, %168
  br label %182

; <label>:182:                                    ; preds = %181, %106
  call void @_ZN10ap_privateILi54ELb1ELb1EED2Ev(%class.ap_private.11* %10) #3, !dbg !12382
  br label %184, !dbg !12383

; <label>:183:                                    ; preds = %167, %121, %72
  call void @_ZN10ap_privateILi54ELb1ELb1EED2Ev(%class.ap_private.11* %10) #3, !dbg !12384
  br label %186, !dbg !12384

; <label>:184:                                    ; preds = %182, %42
  invoke void @_ZN13ap_fixed_baseILi16ELi4ELb1EL9ap_q_mode5EL9ap_o_mode3ELi0EE6reportEv(%struct.ap_fixed_base* %23)
          to label %185 unwind label %68, !dbg !12386

; <label>:185:                                    ; preds = %27, %184
  ret void, !dbg !12387

; <label>:186:                                    ; preds = %183, %68
  call void @_ZN10ap_privateILi16ELb1ELb1EED2Ev(%class.ap_private* %24) #3, !dbg !12389
  br label %187, !dbg !12389

; <label>:187:                                    ; preds = %186
  %188 = load i8*, i8** %7, align 8, !dbg !12391
  %189 = load i32, i32* %8, align 4, !dbg !12391
  %190 = insertvalue { i8*, i32 } undef, i8* %188, 0, !dbg !12391
  %191 = insertvalue { i8*, i32 } %190, i32 %189, 1, !dbg !12391
  resume { i8*, i32 } %191, !dbg !12391
}

; Function Attrs: inlinehint nounwind
define linkonce_odr void @_ZN13ap_fixed_baseILi16ELi4ELb1EL9ap_q_mode5EL9ap_o_mode3ELi0EED2Ev(%struct.ap_fixed_base*) unnamed_addr #8 comdat align 2 !dbg !12393 !xidane.fname !12395 !xidane.function_declaration_type !11109 !xidane.function_declaration_filename !11699 {
  %2 = alloca %struct.ap_fixed_base*, align 8
  store %struct.ap_fixed_base* %0, %struct.ap_fixed_base** %2, align 8
  call void @llvm.dbg.declare(metadata %struct.ap_fixed_base** %2, metadata !12396, metadata !11119), !dbg !12397
  %3 = load %struct.ap_fixed_base*, %struct.ap_fixed_base** %2, align 8
  %4 = getelementptr inbounds %struct.ap_fixed_base, %struct.ap_fixed_base* %3, i32 0, i32 0, !dbg !12398
  call void @_ZN10ap_privateILi16ELb1ELb1EED2Ev(%class.ap_private* %4) #3, !dbg !12398
  ret void, !dbg !12400
}

define linkonce_odr dereferenceable(2) %class.ap_private* @_ZN10ap_privateILi16ELb1ELb1EEaSERKS0_(%class.ap_private*, %class.ap_private* dereferenceable(2)) #0 comdat align 2 !dbg !12401 !xidane.fname !11839 !xidane.function_declaration_type !12402 !xidane.function_declaration_filename !11893 {
  %3 = alloca %class.ap_private*, align 8
  %4 = alloca %class.ap_private*, align 8
  store %class.ap_private* %0, %class.ap_private** %3, align 8
  call void @llvm.dbg.declare(metadata %class.ap_private** %3, metadata !12403, metadata !11119), !dbg !12404
  store %class.ap_private* %1, %class.ap_private** %4, align 8
  call void @llvm.dbg.declare(metadata %class.ap_private** %4, metadata !12405, metadata !11119), !dbg !12406
  %5 = load %class.ap_private*, %class.ap_private** %3, align 8
  %6 = load %class.ap_private*, %class.ap_private** %4, align 8, !dbg !12407
  %7 = call i16 @_ZNK10ap_privateILi16ELb1ELb1EE7get_VALEv(%class.ap_private* %6), !dbg !12408
  %8 = getelementptr inbounds %class.ap_private, %class.ap_private* %5, i32 0, i32 0, !dbg !12409
  store i16 %7, i16* %8, align 2, !dbg !12410
  ret %class.ap_private* %5, !dbg !12411
}

; Function Attrs: inlinehint nounwind
define linkonce_odr i16 @_ZNK10ap_privateILi16ELb1ELb1EE7get_VALEv(%class.ap_private*) #8 comdat align 2 !dbg !12412 !xidane.fname !12413 !xidane.function_declaration_type !12414 !xidane.function_declaration_filename !11893 {
  %2 = alloca %class.ap_private*, align 8
  store %class.ap_private* %0, %class.ap_private** %2, align 8
  call void @llvm.dbg.declare(metadata %class.ap_private** %2, metadata !12415, metadata !11119), !dbg !12417
  %3 = load %class.ap_private*, %class.ap_private** %2, align 8
  %4 = getelementptr inbounds %class.ap_private, %class.ap_private* %3, i32 0, i32 0, !dbg !12418
  %5 = load i16, i16* %4, align 2, !dbg !12418
  ret i16 %5, !dbg !12419
}

; Function Attrs: inlinehint nounwind
define linkonce_odr i64 @_ZNK13ap_fixed_baseILi16ELi4ELb1EL9ap_q_mode5EL9ap_o_mode3ELi0EE15doubleToRawBitsEd(%struct.ap_fixed_base*, double) #8 comdat align 2 !dbg !12420 !xidane.fname !12421 !xidane.function_declaration_type !12422 !xidane.function_declaration_filename !11699 {
  %3 = alloca %struct.ap_fixed_base*, align 8
  %4 = alloca double, align 8
  %5 = alloca %union.anon.14, align 8
  store %struct.ap_fixed_base* %0, %struct.ap_fixed_base** %3, align 8
  call void @llvm.dbg.declare(metadata %struct.ap_fixed_base** %3, metadata !12423, metadata !11119), !dbg !12425
  store double %1, double* %4, align 8
  call void @llvm.dbg.declare(metadata double* %4, metadata !12426, metadata !11119), !dbg !12427
  %6 = load %struct.ap_fixed_base*, %struct.ap_fixed_base** %3, align 8
  call void @llvm.dbg.declare(metadata %union.anon.14* %5, metadata !12428, metadata !11119), !dbg !12433
  %7 = load double, double* %4, align 8, !dbg !12434
  %8 = bitcast %union.anon.14* %5 to double*, !dbg !12435
  store double %7, double* %8, align 8, !dbg !12436
  %9 = bitcast %union.anon.14* %5 to i64*, !dbg !12437
  %10 = load i64, i64* %9, align 8, !dbg !12437
  ret i64 %10, !dbg !12438
}

; Function Attrs: inlinehint
define linkonce_odr void @_ZN10ap_privateILi54ELb1ELb1EEC2Ey(%class.ap_private.11*, i64) unnamed_addr #7 comdat align 2 !dbg !12439 !xidane.fname !12096 !xidane.function_declaration_type !12440 !xidane.function_declaration_filename !11893 {
  %3 = alloca %class.ap_private.11*, align 8
  %4 = alloca i64, align 8
  store %class.ap_private.11* %0, %class.ap_private.11** %3, align 8
  call void @llvm.dbg.declare(metadata %class.ap_private.11** %3, metadata !12441, metadata !11119), !dbg !12442
  store i64 %1, i64* %4, align 8
  call void @llvm.dbg.declare(metadata i64* %4, metadata !12443, metadata !11119), !dbg !12444
  %5 = load %class.ap_private.11*, %class.ap_private.11** %3, align 8
  %6 = getelementptr inbounds %class.ap_private.11, %class.ap_private.11* %5, i32 0, i32 0, !dbg !12444
  %7 = load i64, i64* %4, align 8, !dbg !12444
  store i64 %7, i64* %6, align 8, !dbg !12444
  call void @_ZN10ap_privateILi54ELb1ELb1EE10set_canaryEv(%class.ap_private.11* %5), !dbg !12445
  call void @_ZN10ap_privateILi54ELb1ELb1EE15clearUnusedBitsEv(%class.ap_private.11* %5), !dbg !12447
  call void @_ZN10ap_privateILi54ELb1ELb1EE12check_canaryEv(%class.ap_private.11* %5), !dbg !12449
  ret void, !dbg !12444
}

; Function Attrs: inlinehint
define linkonce_odr i1 @_ZneILi54ELb1EEbRK12ap_range_refIXT_EXT0_EEi(%struct.ap_range_ref.12* dereferenceable(16), i32) #7 comdat personality i8* bitcast (i32 (...)* @__gxx_personality_v0 to i8*) !dbg !12451 !xidane.fname !12454 !xidane.function_declaration_type !12455 !xidane.function_declaration_filename !11699 {
  %3 = alloca %struct.ap_range_ref.12*, align 8
  %4 = alloca i32, align 4
  %5 = alloca %class.ap_private.15, align 8
  %6 = alloca %class.ap_private.3, align 4
  %7 = alloca i8*
  %8 = alloca i32
  store %struct.ap_range_ref.12* %0, %struct.ap_range_ref.12** %3, align 8
  call void @llvm.dbg.declare(metadata %struct.ap_range_ref.12** %3, metadata !12456, metadata !11119), !dbg !12457
  store i32 %1, i32* %4, align 4
  call void @llvm.dbg.declare(metadata i32* %4, metadata !12458, metadata !11119), !dbg !12457
  %9 = load %struct.ap_range_ref.12*, %struct.ap_range_ref.12** %3, align 8, !dbg !12457
  call void @_ZN10ap_privateILi54ELb0ELb1EEC2ILi54ELb1EEERK12ap_range_refIXT_EXT0_EE(%class.ap_private.15* %5, %struct.ap_range_ref.12* dereferenceable(16) %9), !dbg !12457
  %10 = load i32, i32* %4, align 4, !dbg !12457
  invoke void @_ZN10ap_privateILi32ELb1ELb1EEC2Ei(%class.ap_private.3* %6, i32 %10)
          to label %11 unwind label %14, !dbg !12457

; <label>:11:                                     ; preds = %2
  %12 = invoke i1 @_ZNK10ap_privateILi54ELb0ELb1EEneILi32ELb1EEEbRKS_IXT_EXT0_EXleT_Li64EEE(%class.ap_private.15* %5, %class.ap_private.3* dereferenceable(4) %6)
          to label %13 unwind label %18, !dbg !12459

; <label>:13:                                     ; preds = %11
  call void @_ZN10ap_privateILi32ELb1ELb1EED2Ev(%class.ap_private.3* %6) #3, !dbg !12461
  call void @_ZN10ap_privateILi54ELb0ELb1EED2Ev(%class.ap_private.15* %5) #3, !dbg !12463
  ret i1 %12, !dbg !12461

; <label>:14:                                     ; preds = %2
  %15 = landingpad { i8*, i32 }
          cleanup, !dbg !12465
  %16 = extractvalue { i8*, i32 } %15, 0, !dbg !12465
  store i8* %16, i8** %7, align 8, !dbg !12465
  %17 = extractvalue { i8*, i32 } %15, 1, !dbg !12465
  store i32 %17, i32* %8, align 4, !dbg !12465
  br label %22, !dbg !12465

; <label>:18:                                     ; preds = %11
  %19 = landingpad { i8*, i32 }
          cleanup, !dbg !12467
  %20 = extractvalue { i8*, i32 } %19, 0, !dbg !12467
  store i8* %20, i8** %7, align 8, !dbg !12467
  %21 = extractvalue { i8*, i32 } %19, 1, !dbg !12467
  store i32 %21, i32* %8, align 4, !dbg !12467
  call void @_ZN10ap_privateILi32ELb1ELb1EED2Ev(%class.ap_private.3* %6) #3, !dbg !12467
  br label %22, !dbg !12467

; <label>:22:                                     ; preds = %18, %14
  call void @_ZN10ap_privateILi54ELb0ELb1EED2Ev(%class.ap_private.15* %5) #3, !dbg !12469
  br label %23, !dbg !12469

; <label>:23:                                     ; preds = %22
  %24 = load i8*, i8** %7, align 8, !dbg !12471
  %25 = load i32, i32* %8, align 4, !dbg !12471
  %26 = insertvalue { i8*, i32 } undef, i8* %24, 0, !dbg !12471
  %27 = insertvalue { i8*, i32 } %26, i32 %25, 1, !dbg !12471
  resume { i8*, i32 } %27, !dbg !12471
}

; Function Attrs: inlinehint
define linkonce_odr void @_ZN10ap_privateILi54ELb1ELb1EE5rangeEii(%struct.ap_range_ref.12* noalias sret, %class.ap_private.11*, i32, i32) #7 comdat align 2 !dbg !12473 !xidane.fname !11891 !xidane.function_declaration_type !12474 !xidane.function_declaration_filename !11893 {
  %5 = alloca %class.ap_private.11*, align 8
  %6 = alloca i32, align 4
  %7 = alloca i32, align 4
  store %class.ap_private.11* %1, %class.ap_private.11** %5, align 8
  call void @llvm.dbg.declare(metadata %class.ap_private.11** %5, metadata !12475, metadata !11119), !dbg !12476
  store i32 %2, i32* %6, align 4
  call void @llvm.dbg.declare(metadata i32* %6, metadata !12477, metadata !11119), !dbg !12478
  store i32 %3, i32* %7, align 4
  call void @llvm.dbg.declare(metadata i32* %7, metadata !12479, metadata !11119), !dbg !12480
  %8 = load %class.ap_private.11*, %class.ap_private.11** %5, align 8
  %9 = load i32, i32* %6, align 4, !dbg !12481
  %10 = load i32, i32* %7, align 4, !dbg !12482
  call void @_ZN12ap_range_refILi54ELb1EEC2EP10ap_privateILi54ELb1ELb1EEii(%struct.ap_range_ref.12* %0, %class.ap_private.11* %8, i32 %9, i32 %10), !dbg !12483
  ret void, !dbg !12484
}

declare !xidane.fname !12485 !xidane.function_declaration_type !11837 !xidane.function_declaration_filename !11682 !xidane.ExternC !11683 i32 @fprintf(%struct._IO_FILE*, i8*, ...) #1

; Function Attrs: noreturn nounwind
declare !xidane.fname !12486 !xidane.function_declaration_type !11867 !xidane.function_declaration_filename !12487 !xidane.ExternC !11683 void @exit(i32) #12

; Function Attrs: inlinehint nounwind
define linkonce_odr dereferenceable(8) %class.ap_private.11* @_ZN10ap_privateILi54ELb1ELb1EE5clearEj(%class.ap_private.11*, i32) #8 comdat align 2 !dbg !12488 !xidane.fname !12489 !xidane.function_declaration_type !12490 !xidane.function_declaration_filename !11893 {
  %3 = alloca %class.ap_private.11*, align 8
  %4 = alloca i32, align 4
  store %class.ap_private.11* %0, %class.ap_private.11** %3, align 8
  call void @llvm.dbg.declare(metadata %class.ap_private.11** %3, metadata !12491, metadata !11119), !dbg !12492
  store i32 %1, i32* %4, align 4
  call void @llvm.dbg.declare(metadata i32* %4, metadata !12493, metadata !11119), !dbg !12494
  %5 = load %class.ap_private.11*, %class.ap_private.11** %3, align 8
  %6 = load i32, i32* %4, align 4, !dbg !12495
  %7 = zext i32 %6 to i64, !dbg !12496
  %8 = shl i64 1, %7, !dbg !12496
  %9 = xor i64 %8, -1, !dbg !12497
  %10 = getelementptr inbounds %class.ap_private.11, %class.ap_private.11* %5, i32 0, i32 0, !dbg !12498
  %11 = load i64, i64* %10, align 8, !dbg !12499
  %12 = and i64 %11, %9, !dbg !12499
  store i64 %12, i64* %10, align 8, !dbg !12499
  call void @_ZN10ap_privateILi54ELb1ELb1EE15clearUnusedBitsEv(%class.ap_private.11* %5), !dbg !12500
  ret %class.ap_private.11* %5, !dbg !12501
}

; Function Attrs: inlinehint nounwind
define linkonce_odr dereferenceable(8) %class.ap_private.11* @_ZN10ap_privateILi54ELb1ELb1EE3setEj(%class.ap_private.11*, i32) #8 comdat align 2 !dbg !12502 !xidane.fname !12503 !xidane.function_declaration_type !12504 !xidane.function_declaration_filename !11893 {
  %3 = alloca %class.ap_private.11*, align 8
  %4 = alloca i32, align 4
  store %class.ap_private.11* %0, %class.ap_private.11** %3, align 8
  call void @llvm.dbg.declare(metadata %class.ap_private.11** %3, metadata !12505, metadata !11119), !dbg !12506
  store i32 %1, i32* %4, align 4
  call void @llvm.dbg.declare(metadata i32* %4, metadata !12507, metadata !11119), !dbg !12508
  %5 = load %class.ap_private.11*, %class.ap_private.11** %3, align 8
  %6 = load i32, i32* %4, align 4, !dbg !12509
  %7 = zext i32 %6 to i64, !dbg !12510
  %8 = shl i64 1, %7, !dbg !12510
  %9 = getelementptr inbounds %class.ap_private.11, %class.ap_private.11* %5, i32 0, i32 0, !dbg !12511
  %10 = load i64, i64* %9, align 8, !dbg !12512
  %11 = or i64 %10, %8, !dbg !12512
  store i64 %11, i64* %9, align 8, !dbg !12512
  call void @_ZN10ap_privateILi54ELb1ELb1EE15clearUnusedBitsEv(%class.ap_private.11* %5), !dbg !12513
  ret %class.ap_private.11* %5, !dbg !12514
}

; Function Attrs: inlinehint nounwind
define linkonce_odr dereferenceable(8) %class.ap_private.11* @_ZN10ap_privateILi54ELb1ELb1EE4flipEv(%class.ap_private.11*) #8 comdat align 2 !dbg !12515 !xidane.fname !12516 !xidane.function_declaration_type !12517 !xidane.function_declaration_filename !11893 {
  %2 = alloca %class.ap_private.11*, align 8
  store %class.ap_private.11* %0, %class.ap_private.11** %2, align 8
  call void @llvm.dbg.declare(metadata %class.ap_private.11** %2, metadata !12518, metadata !11119), !dbg !12519
  %3 = load %class.ap_private.11*, %class.ap_private.11** %2, align 8
  %4 = getelementptr inbounds %class.ap_private.11, %class.ap_private.11* %3, i32 0, i32 0, !dbg !12520
  %5 = load i64, i64* %4, align 8, !dbg !12520
  %6 = xor i64 -1, %5, !dbg !12521
  %7 = and i64 %6, 18014398509481983, !dbg !12522
  %8 = getelementptr inbounds %class.ap_private.11, %class.ap_private.11* %3, i32 0, i32 0, !dbg !12523
  store i64 %7, i64* %8, align 8, !dbg !12524
  call void @_ZN10ap_privateILi54ELb1ELb1EE15clearUnusedBitsEv(%class.ap_private.11* %3), !dbg !12525
  ret %class.ap_private.11* %3, !dbg !12526
}

define linkonce_odr void @_ZN10ap_privateILi54ELb1ELb1EEppEi(%class.ap_private.11* noalias sret, %class.ap_private.11*, i32) #0 comdat align 2 personality i8* bitcast (i32 (...)* @__gxx_personality_v0 to i8*) !dbg !12527 !xidane.fname !12528 !xidane.function_declaration_type !12529 !xidane.function_declaration_filename !11893 {
  %4 = alloca %class.ap_private.11*, align 8
  %5 = alloca i32, align 4
  %6 = alloca i1, align 1
  %7 = alloca i8*
  %8 = alloca i32
  store %class.ap_private.11* %1, %class.ap_private.11** %4, align 8
  call void @llvm.dbg.declare(metadata %class.ap_private.11** %4, metadata !12530, metadata !11119), !dbg !12531
  store i32 %2, i32* %5, align 4
  call void @llvm.dbg.declare(metadata i32* %5, metadata !12532, metadata !11119), !dbg !12533
  %9 = load %class.ap_private.11*, %class.ap_private.11** %4, align 8
  store i1 false, i1* %6, align 1, !dbg !12534
  call void @llvm.dbg.declare(metadata %class.ap_private.11* %0, metadata !12535, metadata !11817), !dbg !12536
  %10 = bitcast %class.ap_private.11* %0 to i8*, !dbg !12536
  %11 = bitcast %class.ap_private.11* %9 to i8*, !dbg !12536
  call void @llvm.memcpy.p0i8.p0i8.i64(i8* %10, i8* %11, i64 8, i32 8, i1 false), !dbg !12536
  %12 = getelementptr inbounds %class.ap_private.11, %class.ap_private.11* %9, i32 0, i32 0, !dbg !12537
  %13 = load i64, i64* %12, align 8, !dbg !12538
  %14 = add nsw i64 %13, 1, !dbg !12538
  store i64 %14, i64* %12, align 8, !dbg !12538
  invoke void @_ZN10ap_privateILi54ELb1ELb1EE15clearUnusedBitsEv(%class.ap_private.11* %9)
          to label %15 unwind label %17, !dbg !12539

; <label>:15:                                     ; preds = %3
  store i1 true, i1* %6, align 1, !dbg !12540
  %16 = load i1, i1* %6, align 1, !dbg !12541
  br i1 %16, label %22, label %21, !dbg !12541

; <label>:17:                                     ; preds = %3
  %18 = landingpad { i8*, i32 }
          cleanup, !dbg !12542
  %19 = extractvalue { i8*, i32 } %18, 0, !dbg !12542
  store i8* %19, i8** %7, align 8, !dbg !12542
  %20 = extractvalue { i8*, i32 } %18, 1, !dbg !12542
  store i32 %20, i32* %8, align 4, !dbg !12542
  call void @_ZN10ap_privateILi54ELb1ELb1EED2Ev(%class.ap_private.11* %0) #3, !dbg !12542
  br label %23, !dbg !12542

; <label>:21:                                     ; preds = %15
  call void @_ZN10ap_privateILi54ELb1ELb1EED2Ev(%class.ap_private.11* %0) #3, !dbg !12544
  br label %22, !dbg !12544

; <label>:22:                                     ; preds = %21, %15
  ret void, !dbg !12546

; <label>:23:                                     ; preds = %17
  %24 = load i8*, i8** %7, align 8, !dbg !12548
  %25 = load i32, i32* %8, align 4, !dbg !12548
  %26 = insertvalue { i8*, i32 } undef, i8* %24, 0, !dbg !12548
  %27 = insertvalue { i8*, i32 } %26, i32 %25, 1, !dbg !12548
  resume { i8*, i32 } %27, !dbg !12548
}

; Function Attrs: inlinehint nounwind
define linkonce_odr void @_ZN10ap_privateILi54ELb1ELb1EED2Ev(%class.ap_private.11*) unnamed_addr #8 comdat align 2 personality i8* bitcast (i32 (...)* @__gxx_personality_v0 to i8*) !dbg !12550 !xidane.fname !12053 !xidane.function_declaration_type !11109 !xidane.function_declaration_filename !11893 {
  %2 = alloca %class.ap_private.11*, align 8
  store %class.ap_private.11* %0, %class.ap_private.11** %2, align 8
  call void @llvm.dbg.declare(metadata %class.ap_private.11** %2, metadata !12551, metadata !11119), !dbg !12552
  %3 = load %class.ap_private.11*, %class.ap_private.11** %2, align 8
  invoke void @_ZN10ap_privateILi54ELb1ELb1EE12check_canaryEv(%class.ap_private.11* %3)
          to label %4 unwind label %5, !dbg !12553

; <label>:4:                                      ; preds = %1
  ret void, !dbg !12555

; <label>:5:                                      ; preds = %1
  %6 = landingpad { i8*, i32 }
          catch i8* null, !dbg !12557
  %7 = extractvalue { i8*, i32 } %6, 0, !dbg !12557
  call void @__clang_call_terminate(i8* %7) #17, !dbg !12557
  unreachable, !dbg !12557
}

; Function Attrs: nounwind readnone
declare !xidane.fname !12559 !xidane.function_declaration_type !12560 !xidane.function_declaration_filename !12487 !xidane.ExternC !11683 i32 @abs(i32) #13

; Function Attrs: nounwind
define linkonce_odr dereferenceable(2) %class.ap_private* @_ZN10ap_privateILi16ELb1ELb1EEaSILi54ELb1EEERS0_RKS_IXT_EXT0_EXleT_Li64EEE(%class.ap_private*, %class.ap_private.11* dereferenceable(8)) #10 comdat align 2 !dbg !12561 !xidane.fname !12565 !xidane.function_declaration_type !12566 !xidane.function_declaration_filename !11893 {
  %3 = alloca %class.ap_private*, align 8
  %4 = alloca %class.ap_private.11*, align 8
  store %class.ap_private* %0, %class.ap_private** %3, align 8
  call void @llvm.dbg.declare(metadata %class.ap_private** %3, metadata !12567, metadata !11119), !dbg !12568
  store %class.ap_private.11* %1, %class.ap_private.11** %4, align 8
  call void @llvm.dbg.declare(metadata %class.ap_private.11** %4, metadata !12569, metadata !11119), !dbg !12570
  %5 = load %class.ap_private*, %class.ap_private** %3, align 8
  %6 = load %class.ap_private.11*, %class.ap_private.11** %4, align 8, !dbg !12571
  %7 = call i64 @_ZNK10ap_privateILi54ELb1ELb1EE7get_VALEv(%class.ap_private.11* %6), !dbg !12572
  %8 = trunc i64 %7 to i16, !dbg !12573
  %9 = getelementptr inbounds %class.ap_private, %class.ap_private* %5, i32 0, i32 0, !dbg !12574
  store i16 %8, i16* %9, align 2, !dbg !12575
  call void @_ZN10ap_privateILi16ELb1ELb1EE15clearUnusedBitsEv(%class.ap_private* %5), !dbg !12576
  ret %class.ap_private* %5, !dbg !12577
}

; Function Attrs: inlinehint
define linkonce_odr void @_ZorILi54ELb1EEN10ap_privateIXT_EXT0_EXleT_Li64EEE5RTypeIXLi64EEXLb0EEE5logicERKS1_y(%class.ap_private.13* noalias sret, %class.ap_private.11* dereferenceable(8), i64) #7 comdat personality i8* bitcast (i32 (...)* @__gxx_personality_v0 to i8*) !dbg !12578 !xidane.fname !12583 !xidane.function_declaration_type !12584 !xidane.function_declaration_filename !11893 {
  %4 = alloca %class.ap_private.11*, align 8
  %5 = alloca i64, align 8
  %6 = alloca %class.ap_private.5, align 8
  %7 = alloca i8*
  %8 = alloca i32
  store %class.ap_private.11* %1, %class.ap_private.11** %4, align 8
  call void @llvm.dbg.declare(metadata %class.ap_private.11** %4, metadata !12585, metadata !11119), !dbg !12586
  store i64 %2, i64* %5, align 8
  call void @llvm.dbg.declare(metadata i64* %5, metadata !12587, metadata !11119), !dbg !12586
  %9 = load %class.ap_private.11*, %class.ap_private.11** %4, align 8, !dbg !12586
  %10 = load i64, i64* %5, align 8, !dbg !12586
  call void @_ZN10ap_privateILi64ELb0ELb1EEC2Ey(%class.ap_private.5* %6, i64 %10), !dbg !12586
  invoke void @_ZNK10ap_privateILi54ELb1ELb1EEorILi64ELb0EEENS0_5RTypeIXT_EXT0_EE5logicERKS_IXT_EXT0_EXleT_Li64EEE(%class.ap_private.13* sret %0, %class.ap_private.11* %9, %class.ap_private.5* dereferenceable(8) %6)
          to label %11 unwind label %12, !dbg !12586

; <label>:11:                                     ; preds = %3
  call void @_ZN10ap_privateILi64ELb0ELb1EED2Ev(%class.ap_private.5* %6) #3, !dbg !12588
  ret void, !dbg !12588

; <label>:12:                                     ; preds = %3
  %13 = landingpad { i8*, i32 }
          cleanup, !dbg !12590
  %14 = extractvalue { i8*, i32 } %13, 0, !dbg !12590
  store i8* %14, i8** %7, align 8, !dbg !12590
  %15 = extractvalue { i8*, i32 } %13, 1, !dbg !12590
  store i32 %15, i32* %8, align 4, !dbg !12590
  call void @_ZN10ap_privateILi64ELb0ELb1EED2Ev(%class.ap_private.5* %6) #3, !dbg !12590
  br label %16, !dbg !12590

; <label>:16:                                     ; preds = %12
  %17 = load i8*, i8** %7, align 8, !dbg !12592
  %18 = load i32, i32* %8, align 4, !dbg !12592
  %19 = insertvalue { i8*, i32 } undef, i8* %17, 0, !dbg !12592
  %20 = insertvalue { i8*, i32 } %19, i32 %18, 1, !dbg !12592
  resume { i8*, i32 } %20, !dbg !12592
}

; Function Attrs: inlinehint
define linkonce_odr void @_ZNK10ap_privateILi54ELb1ELb1EErsEj(%class.ap_private.11* noalias sret, %class.ap_private.11*, i32) #7 comdat align 2 !dbg !12594 !xidane.fname !12595 !xidane.function_declaration_type !12596 !xidane.function_declaration_filename !11893 {
  %4 = alloca %class.ap_private.11*, align 8
  %5 = alloca i32, align 4
  store %class.ap_private.11* %1, %class.ap_private.11** %4, align 8
  call void @llvm.dbg.declare(metadata %class.ap_private.11** %4, metadata !12597, metadata !11119), !dbg !12599
  store i32 %2, i32* %5, align 4
  call void @llvm.dbg.declare(metadata i32* %5, metadata !12600, metadata !11119), !dbg !12601
  %6 = load %class.ap_private.11*, %class.ap_private.11** %4, align 8
  %7 = load i32, i32* %5, align 4, !dbg !12602
  %8 = icmp uge i32 %7, 54, !dbg !12602
  br i1 %8, label %9, label %13, !dbg !12601

; <label>:9:                                      ; preds = %3
  %10 = call i1 @_ZNK10ap_privateILi54ELb1ELb1EE10isNegativeEv(%class.ap_private.11* %6), !dbg !12604
  br i1 %10, label %11, label %12, !dbg !12604

; <label>:11:                                     ; preds = %9
  call void @_ZN10ap_privateILi54ELb1ELb1EEC2Ei(%class.ap_private.11* %0, i32 -1), !dbg !12608
  br label %15, !dbg !12608

; <label>:12:                                     ; preds = %9
  call void @_ZN10ap_privateILi54ELb1ELb1EEC2Ei(%class.ap_private.11* %0, i32 0), !dbg !12610
  br label %15, !dbg !12610

; <label>:13:                                     ; preds = %3
  %14 = load i32, i32* %5, align 4, !dbg !12612
  call void @_ZNK10ap_privateILi54ELb1ELb1EE4ashrEj(%class.ap_private.11* sret %0, %class.ap_private.11* %6, i32 %14), !dbg !12612
  br label %15, !dbg !12612

; <label>:15:                                     ; preds = %13, %12, %11
  ret void, !dbg !12615
}

; Function Attrs: inlinehint
define linkonce_odr void @_ZanILi54ELb1EEN10ap_privateIXT_EXT0_EXleT_Li64EEE5RTypeIXLi64EEXLb0EEE5logicERKS1_y(%class.ap_private.13* noalias sret, %class.ap_private.11* dereferenceable(8), i64) #7 comdat personality i8* bitcast (i32 (...)* @__gxx_personality_v0 to i8*) !dbg !12617 !xidane.fname !12618 !xidane.function_declaration_type !12584 !xidane.function_declaration_filename !11893 {
  %4 = alloca %class.ap_private.11*, align 8
  %5 = alloca i64, align 8
  %6 = alloca %class.ap_private.5, align 8
  %7 = alloca i8*
  %8 = alloca i32
  store %class.ap_private.11* %1, %class.ap_private.11** %4, align 8
  call void @llvm.dbg.declare(metadata %class.ap_private.11** %4, metadata !12619, metadata !11119), !dbg !12620
  store i64 %2, i64* %5, align 8
  call void @llvm.dbg.declare(metadata i64* %5, metadata !12621, metadata !11119), !dbg !12620
  %9 = load %class.ap_private.11*, %class.ap_private.11** %4, align 8, !dbg !12620
  %10 = load i64, i64* %5, align 8, !dbg !12620
  call void @_ZN10ap_privateILi64ELb0ELb1EEC2Ey(%class.ap_private.5* %6, i64 %10), !dbg !12620
  invoke void @_ZNK10ap_privateILi54ELb1ELb1EEanILi64ELb0EEENS0_5RTypeIXT_EXT0_EE5logicERKS_IXT_EXT0_EXleT_Li64EEE(%class.ap_private.13* sret %0, %class.ap_private.11* %9, %class.ap_private.5* dereferenceable(8) %6)
          to label %11 unwind label %12, !dbg !12620

; <label>:11:                                     ; preds = %3
  call void @_ZN10ap_privateILi64ELb0ELb1EED2Ev(%class.ap_private.5* %6) #3, !dbg !12622
  ret void, !dbg !12622

; <label>:12:                                     ; preds = %3
  %13 = landingpad { i8*, i32 }
          cleanup, !dbg !12624
  %14 = extractvalue { i8*, i32 } %13, 0, !dbg !12624
  store i8* %14, i8** %7, align 8, !dbg !12624
  %15 = extractvalue { i8*, i32 } %13, 1, !dbg !12624
  store i32 %15, i32* %8, align 4, !dbg !12624
  call void @_ZN10ap_privateILi64ELb0ELb1EED2Ev(%class.ap_private.5* %6) #3, !dbg !12624
  br label %16, !dbg !12624

; <label>:16:                                     ; preds = %12
  %17 = load i8*, i8** %7, align 8, !dbg !12626
  %18 = load i32, i32* %8, align 4, !dbg !12626
  %19 = insertvalue { i8*, i32 } undef, i8* %17, 0, !dbg !12626
  %20 = insertvalue { i8*, i32 } %19, i32 %18, 1, !dbg !12626
  resume { i8*, i32 } %20, !dbg !12626
}

; Function Attrs: inlinehint
define linkonce_odr i64 @_ZNK10ap_privateILi65ELb1ELb0EEcvlEv(%class.ap_private.13*) #7 comdat align 2 !dbg !12628 !xidane.fname !12629 !xidane.function_declaration_type !12414 !xidane.function_declaration_filename !11893 {
  %2 = alloca %class.ap_private.13*, align 8
  store %class.ap_private.13* %0, %class.ap_private.13** %2, align 8
  call void @llvm.dbg.declare(metadata %class.ap_private.13** %2, metadata !12630, metadata !11119), !dbg !12632
  %3 = load %class.ap_private.13*, %class.ap_private.13** %2, align 8
  %4 = call i64 @_ZNK10ap_privateILi65ELb1ELb0EE7get_VALEv(%class.ap_private.13* %3), !dbg !12633
  ret i64 %4, !dbg !12634
}

; Function Attrs: inlinehint nounwind
define linkonce_odr void @_ZN10ap_privateILi54ELb1ELb1EEC2ILi65ELb1ELb0EEERKS_IXT_EXT0_EXT1_EE(%class.ap_private.11*, %class.ap_private.13* dereferenceable(16)) unnamed_addr #8 comdat align 2 !dbg !12635 !xidane.fname !12642 !xidane.function_declaration_type !12643 !xidane.function_declaration_filename !11893 {
  %3 = alloca %class.ap_private.11*, align 8
  %4 = alloca %class.ap_private.13*, align 8
  store %class.ap_private.11* %0, %class.ap_private.11** %3, align 8
  call void @llvm.dbg.declare(metadata %class.ap_private.11** %3, metadata !12644, metadata !11119), !dbg !12645
  store %class.ap_private.13* %1, %class.ap_private.13** %4, align 8
  call void @llvm.dbg.declare(metadata %class.ap_private.13** %4, metadata !12646, metadata !11119), !dbg !12647
  %5 = load %class.ap_private.11*, %class.ap_private.11** %3, align 8
  %6 = getelementptr inbounds %class.ap_private.11, %class.ap_private.11* %5, i32 0, i32 0, !dbg !12648
  %7 = load %class.ap_private.13*, %class.ap_private.13** %4, align 8, !dbg !12649
  %8 = call i64 @_ZNK10ap_privateILi65ELb1ELb0EE7get_VALEv(%class.ap_private.13* %7), !dbg !12650
  store i64 %8, i64* %6, align 8, !dbg !12648
  call void @_ZN10ap_privateILi54ELb1ELb1EE10set_canaryEv(%class.ap_private.11* %5), !dbg !12651
  call void @_ZN10ap_privateILi54ELb1ELb1EE15clearUnusedBitsEv(%class.ap_private.11* %5), !dbg !12653
  call void @_ZN10ap_privateILi54ELb1ELb1EE12check_canaryEv(%class.ap_private.11* %5), !dbg !12654
  ret void, !dbg !12655
}

; Function Attrs: inlinehint nounwind
define linkonce_odr void @_ZN10ap_privateILi65ELb1ELb0EED2Ev(%class.ap_private.13*) unnamed_addr #8 comdat align 2 personality i8* bitcast (i32 (...)* @__gxx_personality_v0 to i8*) !dbg !12656 !xidane.fname !12053 !xidane.function_declaration_type !11109 !xidane.function_declaration_filename !11893 {
  %2 = alloca %class.ap_private.13*, align 8
  store %class.ap_private.13* %0, %class.ap_private.13** %2, align 8
  call void @llvm.dbg.declare(metadata %class.ap_private.13** %2, metadata !12657, metadata !11119), !dbg !12659
  %3 = load %class.ap_private.13*, %class.ap_private.13** %2, align 8
  invoke void @_ZN10ap_privateILi65ELb1ELb0EE12check_canaryEv(%class.ap_private.13* %3)
          to label %4 unwind label %5, !dbg !12660

; <label>:4:                                      ; preds = %1
  ret void, !dbg !12662

; <label>:5:                                      ; preds = %1
  %6 = landingpad { i8*, i32 }
          catch i8* null, !dbg !12664
  %7 = extractvalue { i8*, i32 } %6, 0, !dbg !12664
  call void @__clang_call_terminate(i8* %7) #17, !dbg !12664
  unreachable, !dbg !12664
}

; Function Attrs: inlinehint nounwind
define linkonce_odr dereferenceable(2) %class.ap_private* @_ZN10ap_privateILi16ELb1ELb1EElSEj(%class.ap_private*, i32) #8 comdat align 2 !dbg !12666 !xidane.fname !12667 !xidane.function_declaration_type !12668 !xidane.function_declaration_filename !11893 {
  %3 = alloca %class.ap_private*, align 8
  %4 = alloca i32, align 4
  store %class.ap_private* %0, %class.ap_private** %3, align 8
  call void @llvm.dbg.declare(metadata %class.ap_private** %3, metadata !12669, metadata !11119), !dbg !12670
  store i32 %1, i32* %4, align 4
  call void @llvm.dbg.declare(metadata i32* %4, metadata !12671, metadata !11119), !dbg !12672
  %5 = load %class.ap_private*, %class.ap_private** %3, align 8
  %6 = load i32, i32* %4, align 4, !dbg !12673
  %7 = getelementptr inbounds %class.ap_private, %class.ap_private* %5, i32 0, i32 0, !dbg !12674
  %8 = load i16, i16* %7, align 2, !dbg !12675
  %9 = sext i16 %8 to i32, !dbg !12675
  %10 = shl i32 %9, %6, !dbg !12675
  %11 = trunc i32 %10 to i16, !dbg !12675
  store i16 %11, i16* %7, align 2, !dbg !12675
  call void @_ZN10ap_privateILi16ELb1ELb1EE15clearUnusedBitsEv(%class.ap_private* %5), !dbg !12676
  ret %class.ap_private* %5, !dbg !12677
}

; Function Attrs: inlinehint nounwind
define linkonce_odr void @_ZN13ap_fixed_baseILi16ELi4ELb1EL9ap_q_mode5EL9ap_o_mode3ELi0EE6reportEv(%struct.ap_fixed_base*) #8 comdat align 2 !dbg !12678 !xidane.fname !12679 !xidane.function_declaration_type !11109 !xidane.function_declaration_filename !11699 {
  %2 = alloca %struct.ap_fixed_base*, align 8
  store %struct.ap_fixed_base* %0, %struct.ap_fixed_base** %2, align 8
  call void @llvm.dbg.declare(metadata %struct.ap_fixed_base** %2, metadata !12680, metadata !11119), !dbg !12681
  %3 = load %struct.ap_fixed_base*, %struct.ap_fixed_base** %2, align 8
  ret void, !dbg !12682
}

; Function Attrs: nounwind
define linkonce_odr void @_ZN10ap_privateILi54ELb1ELb1EE10set_canaryEv(%class.ap_private.11*) #10 comdat align 2 !dbg !12683 !xidane.fname !12105 !xidane.function_declaration_type !11109 !xidane.function_declaration_filename !11893 {
  %2 = alloca %class.ap_private.11*, align 8
  store %class.ap_private.11* %0, %class.ap_private.11** %2, align 8
  call void @llvm.dbg.declare(metadata %class.ap_private.11** %2, metadata !12684, metadata !11119), !dbg !12685
  %3 = load %class.ap_private.11*, %class.ap_private.11** %2, align 8
  ret void, !dbg !12686
}

; Function Attrs: inlinehint nounwind
define linkonce_odr void @_ZN10ap_privateILi54ELb1ELb1EE15clearUnusedBitsEv(%class.ap_private.11*) #8 comdat align 2 !dbg !6167 !xidane.fname !12109 !xidane.function_declaration_type !11109 !xidane.function_declaration_filename !11893 {
  %2 = alloca %class.ap_private.11*, align 8
  store %class.ap_private.11* %0, %class.ap_private.11** %2, align 8
  call void @llvm.dbg.declare(metadata %class.ap_private.11** %2, metadata !12687, metadata !11119), !dbg !12688
  %3 = load %class.ap_private.11*, %class.ap_private.11** %2, align 8
  %4 = getelementptr inbounds %class.ap_private.11, %class.ap_private.11* %3, i32 0, i32 0, !dbg !12689
  %5 = load i64, i64* %4, align 8, !dbg !12689
  %6 = shl i64 %5, 10, !dbg !12690
  %7 = ashr i64 %6, 10, !dbg !12691
  %8 = getelementptr inbounds %class.ap_private.11, %class.ap_private.11* %3, i32 0, i32 0, !dbg !12692
  store i64 %7, i64* %8, align 8, !dbg !12693
  ret void, !dbg !12694
}

; Function Attrs: nounwind
define linkonce_odr void @_ZN10ap_privateILi54ELb1ELb1EE12check_canaryEv(%class.ap_private.11*) #10 comdat align 2 !dbg !12695 !xidane.fname !12064 !xidane.function_declaration_type !11109 !xidane.function_declaration_filename !11893 {
  %2 = alloca %class.ap_private.11*, align 8
  store %class.ap_private.11* %0, %class.ap_private.11** %2, align 8
  call void @llvm.dbg.declare(metadata %class.ap_private.11** %2, metadata !12696, metadata !11119), !dbg !12697
  %3 = load %class.ap_private.11*, %class.ap_private.11** %2, align 8
  ret void, !dbg !12698
}

; Function Attrs: inlinehint
define linkonce_odr void @_ZN10ap_privateILi54ELb0ELb1EEC2ILi54ELb1EEERK12ap_range_refIXT_EXT0_EE(%class.ap_private.15*, %struct.ap_range_ref.12* dereferenceable(16)) unnamed_addr #7 comdat align 2 personality i8* bitcast (i32 (...)* @__gxx_personality_v0 to i8*) !dbg !12699 !xidane.fname !12705 !xidane.function_declaration_type !12706 !xidane.function_declaration_filename !11893 {
  %3 = alloca %class.ap_private.15*, align 8
  %4 = alloca %struct.ap_range_ref.12*, align 8
  %5 = alloca %class.ap_private.15, align 8
  %6 = alloca i8*
  %7 = alloca i32
  store %class.ap_private.15* %0, %class.ap_private.15** %3, align 8
  call void @llvm.dbg.declare(metadata %class.ap_private.15** %3, metadata !12707, metadata !11119), !dbg !12709
  store %struct.ap_range_ref.12* %1, %struct.ap_range_ref.12** %4, align 8
  call void @llvm.dbg.declare(metadata %struct.ap_range_ref.12** %4, metadata !12710, metadata !11119), !dbg !12711
  %8 = load %class.ap_private.15*, %class.ap_private.15** %3, align 8
  call void @_ZN10ap_privateILi54ELb0ELb1EE10set_canaryEv(%class.ap_private.15* %8), !dbg !12712
  %9 = load %struct.ap_range_ref.12*, %struct.ap_range_ref.12** %4, align 8, !dbg !12714
  call void @_ZNK12ap_range_refILi54ELb1EE3getEv(%class.ap_private.15* sret %5, %struct.ap_range_ref.12* %9), !dbg !12715
  %10 = invoke dereferenceable(8) %class.ap_private.15* @_ZN10ap_privateILi54ELb0ELb1EEaSERKS0_(%class.ap_private.15* %8, %class.ap_private.15* dereferenceable(8) %5)
          to label %11 unwind label %12, !dbg !12716

; <label>:11:                                     ; preds = %2
  call void @_ZN10ap_privateILi54ELb0ELb1EED2Ev(%class.ap_private.15* %5) #3, !dbg !12717
  call void @_ZN10ap_privateILi54ELb0ELb1EE12check_canaryEv(%class.ap_private.15* %8), !dbg !12719
  ret void, !dbg !12720

; <label>:12:                                     ; preds = %2
  %13 = landingpad { i8*, i32 }
          cleanup, !dbg !12721
  %14 = extractvalue { i8*, i32 } %13, 0, !dbg !12721
  store i8* %14, i8** %6, align 8, !dbg !12721
  %15 = extractvalue { i8*, i32 } %13, 1, !dbg !12721
  store i32 %15, i32* %7, align 4, !dbg !12721
  call void @_ZN10ap_privateILi54ELb0ELb1EED2Ev(%class.ap_private.15* %5) #3, !dbg !12722
  br label %16, !dbg !12722

; <label>:16:                                     ; preds = %12
  %17 = load i8*, i8** %6, align 8, !dbg !12724
  %18 = load i32, i32* %7, align 4, !dbg !12724
  %19 = insertvalue { i8*, i32 } undef, i8* %17, 0, !dbg !12724
  %20 = insertvalue { i8*, i32 } %19, i32 %18, 1, !dbg !12724
  resume { i8*, i32 } %20, !dbg !12724
}

; Function Attrs: inlinehint
define linkonce_odr i1 @_ZNK10ap_privateILi54ELb0ELb1EEneILi32ELb1EEEbRKS_IXT_EXT0_EXleT_Li64EEE(%class.ap_private.15*, %class.ap_private.3* dereferenceable(4)) #7 comdat align 2 !dbg !12726 !xidane.fname !12731 !xidane.function_declaration_type !12732 !xidane.function_declaration_filename !11893 {
  %3 = alloca %class.ap_private.15*, align 8
  %4 = alloca %class.ap_private.3*, align 8
  store %class.ap_private.15* %0, %class.ap_private.15** %3, align 8
  call void @llvm.dbg.declare(metadata %class.ap_private.15** %3, metadata !12733, metadata !11119), !dbg !12735
  store %class.ap_private.3* %1, %class.ap_private.3** %4, align 8
  call void @llvm.dbg.declare(metadata %class.ap_private.3** %4, metadata !12736, metadata !11119), !dbg !12737
  %5 = load %class.ap_private.15*, %class.ap_private.15** %3, align 8
  %6 = load %class.ap_private.3*, %class.ap_private.3** %4, align 8, !dbg !12738
  %7 = call i1 @_ZNK10ap_privateILi54ELb0ELb1EEeqILi32ELb1EEEbRKS_IXT_EXT0_EXleT_Li64EEE(%class.ap_private.15* %5, %class.ap_private.3* dereferenceable(4) %6), !dbg !12739
  %8 = xor i1 %7, true, !dbg !12740
  ret i1 %8, !dbg !12741
}

; Function Attrs: inlinehint nounwind
define linkonce_odr void @_ZN10ap_privateILi32ELb1ELb1EEC2Ei(%class.ap_private.3*, i32) unnamed_addr #8 comdat align 2 !dbg !12742 !xidane.fname !12096 !xidane.function_declaration_type !11867 !xidane.function_declaration_filename !11893 {
  %3 = alloca %class.ap_private.3*, align 8
  %4 = alloca i32, align 4
  store %class.ap_private.3* %0, %class.ap_private.3** %3, align 8
  call void @llvm.dbg.declare(metadata %class.ap_private.3** %3, metadata !12743, metadata !11119), !dbg !12744
  store i32 %1, i32* %4, align 4
  call void @llvm.dbg.declare(metadata i32* %4, metadata !12745, metadata !11119), !dbg !12746
  %5 = load %class.ap_private.3*, %class.ap_private.3** %3, align 8
  %6 = getelementptr inbounds %class.ap_private.3, %class.ap_private.3* %5, i32 0, i32 0, !dbg !12746
  %7 = load i32, i32* %4, align 4, !dbg !12746
  store i32 %7, i32* %6, align 4, !dbg !12746
  call void @_ZN10ap_privateILi32ELb1ELb1EE10set_canaryEv(%class.ap_private.3* %5), !dbg !12747
  call void @_ZN10ap_privateILi32ELb1ELb1EE15clearUnusedBitsEv(%class.ap_private.3* %5), !dbg !12749
  call void @_ZN10ap_privateILi32ELb1ELb1EE12check_canaryEv(%class.ap_private.3* %5), !dbg !12751
  ret void, !dbg !12746
}

; Function Attrs: inlinehint nounwind
define linkonce_odr void @_ZN10ap_privateILi54ELb0ELb1EED2Ev(%class.ap_private.15*) unnamed_addr #8 comdat align 2 personality i8* bitcast (i32 (...)* @__gxx_personality_v0 to i8*) !dbg !12753 !xidane.fname !12053 !xidane.function_declaration_type !11109 !xidane.function_declaration_filename !11893 {
  %2 = alloca %class.ap_private.15*, align 8
  store %class.ap_private.15* %0, %class.ap_private.15** %2, align 8
  call void @llvm.dbg.declare(metadata %class.ap_private.15** %2, metadata !12754, metadata !11119), !dbg !12755
  %3 = load %class.ap_private.15*, %class.ap_private.15** %2, align 8
  invoke void @_ZN10ap_privateILi54ELb0ELb1EE12check_canaryEv(%class.ap_private.15* %3)
          to label %4 unwind label %5, !dbg !12756

; <label>:4:                                      ; preds = %1
  ret void, !dbg !12758

; <label>:5:                                      ; preds = %1
  %6 = landingpad { i8*, i32 }
          catch i8* null, !dbg !12760
  %7 = extractvalue { i8*, i32 } %6, 0, !dbg !12760
  call void @__clang_call_terminate(i8* %7) #17, !dbg !12760
  unreachable, !dbg !12760
}

; Function Attrs: nounwind
define linkonce_odr void @_ZN10ap_privateILi54ELb0ELb1EE10set_canaryEv(%class.ap_private.15*) #10 comdat align 2 !dbg !12762 !xidane.fname !12105 !xidane.function_declaration_type !11109 !xidane.function_declaration_filename !11893 {
  %2 = alloca %class.ap_private.15*, align 8
  store %class.ap_private.15* %0, %class.ap_private.15** %2, align 8
  call void @llvm.dbg.declare(metadata %class.ap_private.15** %2, metadata !12763, metadata !11119), !dbg !12764
  %3 = load %class.ap_private.15*, %class.ap_private.15** %2, align 8
  ret void, !dbg !12765
}

define linkonce_odr dereferenceable(8) %class.ap_private.15* @_ZN10ap_privateILi54ELb0ELb1EEaSERKS0_(%class.ap_private.15*, %class.ap_private.15* dereferenceable(8)) #0 comdat align 2 !dbg !12766 !xidane.fname !11839 !xidane.function_declaration_type !12767 !xidane.function_declaration_filename !11893 {
  %3 = alloca %class.ap_private.15*, align 8
  %4 = alloca %class.ap_private.15*, align 8
  store %class.ap_private.15* %0, %class.ap_private.15** %3, align 8
  call void @llvm.dbg.declare(metadata %class.ap_private.15** %3, metadata !12768, metadata !11119), !dbg !12769
  store %class.ap_private.15* %1, %class.ap_private.15** %4, align 8
  call void @llvm.dbg.declare(metadata %class.ap_private.15** %4, metadata !12770, metadata !11119), !dbg !12771
  %5 = load %class.ap_private.15*, %class.ap_private.15** %3, align 8
  %6 = load %class.ap_private.15*, %class.ap_private.15** %4, align 8, !dbg !12772
  %7 = call i64 @_ZNK10ap_privateILi54ELb0ELb1EE7get_VALEv(%class.ap_private.15* %6), !dbg !12773
  %8 = getelementptr inbounds %class.ap_private.15, %class.ap_private.15* %5, i32 0, i32 0, !dbg !12774
  store i64 %7, i64* %8, align 8, !dbg !12775
  ret %class.ap_private.15* %5, !dbg !12776
}

; Function Attrs: inlinehint
define linkonce_odr void @_ZNK12ap_range_refILi54ELb1EE3getEv(%class.ap_private.15* noalias sret, %struct.ap_range_ref.12*) #7 comdat align 2 personality i8* bitcast (i32 (...)* @__gxx_personality_v0 to i8*) !dbg !9691 !xidane.fname !12777 !xidane.function_declaration_type !12778 !xidane.function_declaration_filename !11699 {
  %3 = alloca %struct.ap_range_ref.12*, align 8
  %4 = alloca i1, align 1
  %5 = alloca i32, align 4
  %6 = alloca i32, align 4
  %7 = alloca %struct.ap_bit_ref, align 8
  %8 = alloca i8*
  %9 = alloca i32
  store %struct.ap_range_ref.12* %1, %struct.ap_range_ref.12** %3, align 8
  call void @llvm.dbg.declare(metadata %struct.ap_range_ref.12** %3, metadata !12779, metadata !11119), !dbg !12781
  %10 = load %struct.ap_range_ref.12*, %struct.ap_range_ref.12** %3, align 8
  store i1 false, i1* %4, align 1, !dbg !12782
  call void @llvm.dbg.declare(metadata %class.ap_private.15* %0, metadata !12783, metadata !11817), !dbg !12784
  call void @_ZN10ap_privateILi54ELb0ELb1EEC2Ei(%class.ap_private.15* %0, i32 0), !dbg !12784
  %11 = getelementptr inbounds %struct.ap_range_ref.12, %struct.ap_range_ref.12* %10, i32 0, i32 2, !dbg !12785
  %12 = load i32, i32* %11, align 4, !dbg !12785
  %13 = getelementptr inbounds %struct.ap_range_ref.12, %struct.ap_range_ref.12* %10, i32 0, i32 1, !dbg !12787
  %14 = load i32, i32* %13, align 8, !dbg !12787
  %15 = icmp slt i32 %12, %14, !dbg !12788
  br i1 %15, label %16, label %51, !dbg !12789

; <label>:16:                                     ; preds = %2
  call void @llvm.dbg.declare(metadata i32* %5, metadata !12790, metadata !11119), !dbg !12793
  store i32 0, i32* %5, align 4, !dbg !12793
  call void @llvm.dbg.declare(metadata i32* %6, metadata !12794, metadata !11119), !dbg !12795
  %17 = getelementptr inbounds %struct.ap_range_ref.12, %struct.ap_range_ref.12* %10, i32 0, i32 1, !dbg !12796
  %18 = load i32, i32* %17, align 8, !dbg !12796
  store i32 %18, i32* %6, align 4, !dbg !12795
  br label %19, !dbg !12797

; <label>:19:                                     ; preds = %45, %16
  %20 = load i32, i32* %6, align 4, !dbg !12798
  %21 = icmp sge i32 %20, 0, !dbg !12801
  br i1 %21, label %22, label %27, !dbg !12802

; <label>:22:                                     ; preds = %19
  %23 = load i32, i32* %6, align 4, !dbg !12803
  %24 = getelementptr inbounds %struct.ap_range_ref.12, %struct.ap_range_ref.12* %10, i32 0, i32 2, !dbg !12805
  %25 = load i32, i32* %24, align 4, !dbg !12805
  %26 = icmp sge i32 %23, %25, !dbg !12806
  br label %27

; <label>:27:                                     ; preds = %22, %19
  %28 = phi i1 [ false, %19 ], [ %26, %22 ]
  br i1 %28, label %29, label %50, !dbg !12807

; <label>:29:                                     ; preds = %27
  %30 = getelementptr inbounds %struct.ap_range_ref.12, %struct.ap_range_ref.12* %10, i32 0, i32 0, !dbg !12809
  %31 = load %class.ap_private.11*, %class.ap_private.11** %30, align 8, !dbg !12809
  %32 = load i32, i32* %6, align 4, !dbg !12811
  invoke void @_ZN10ap_privateILi54ELb1ELb1EEixEi(%struct.ap_bit_ref* sret %7, %class.ap_private.11* %31, i32 %32)
          to label %33 unwind label %40, !dbg !12812

; <label>:33:                                     ; preds = %29
  %34 = invoke i1 @_ZNK10ap_bit_refILi54ELb1EEcvbEv(%struct.ap_bit_ref* %7)
          to label %35 unwind label %40, !dbg !12813

; <label>:35:                                     ; preds = %33
  br i1 %34, label %36, label %44, !dbg !12815

; <label>:36:                                     ; preds = %35
  %37 = load i32, i32* %5, align 4, !dbg !12816
  %38 = invoke dereferenceable(8) %class.ap_private.15* @_ZN10ap_privateILi54ELb0ELb1EE3setEj(%class.ap_private.15* %0, i32 %37)
          to label %39 unwind label %40, !dbg !12818

; <label>:39:                                     ; preds = %36
  br label %44, !dbg !12819

; <label>:40:                                     ; preds = %63, %55, %51, %36, %33, %29
  %41 = landingpad { i8*, i32 }
          cleanup, !dbg !12821
  %42 = extractvalue { i8*, i32 } %41, 0, !dbg !12821
  store i8* %42, i8** %8, align 8, !dbg !12821
  %43 = extractvalue { i8*, i32 } %41, 1, !dbg !12821
  store i32 %43, i32* %9, align 4, !dbg !12821
  call void @_ZN10ap_privateILi54ELb0ELb1EED2Ev(%class.ap_private.15* %0) #3, !dbg !12822
  br label %80, !dbg !12822

; <label>:44:                                     ; preds = %39, %35
  br label %45, !dbg !12823

; <label>:45:                                     ; preds = %44
  %46 = load i32, i32* %6, align 4, !dbg !12825
  %47 = add nsw i32 %46, -1, !dbg !12825
  store i32 %47, i32* %6, align 4, !dbg !12825
  %48 = load i32, i32* %5, align 4, !dbg !12827
  %49 = add nsw i32 %48, 1, !dbg !12827
  store i32 %49, i32* %5, align 4, !dbg !12827
  br label %19, !dbg !12828, !llvm.loop !12829

; <label>:50:                                     ; preds = %27
  br label %76, !dbg !12831

; <label>:51:                                     ; preds = %2
  %52 = getelementptr inbounds %struct.ap_range_ref.12, %struct.ap_range_ref.12* %10, i32 0, i32 0, !dbg !12832
  %53 = load %class.ap_private.11*, %class.ap_private.11** %52, align 8, !dbg !12832
  %54 = invoke dereferenceable(8) %class.ap_private.15* @_ZN10ap_privateILi54ELb0ELb1EEaSILi54ELb1EEERS0_RKS_IXT_EXT0_EXleT_Li64EEE(%class.ap_private.15* %0, %class.ap_private.11* dereferenceable(8) %53)
          to label %55 unwind label %40, !dbg !12834

; <label>:55:                                     ; preds = %51
  %56 = getelementptr inbounds %struct.ap_range_ref.12, %struct.ap_range_ref.12* %10, i32 0, i32 1, !dbg !12835
  %57 = load i32, i32* %56, align 8, !dbg !12835
  %58 = invoke dereferenceable(8) %class.ap_private.15* @_ZrSILi54ELb0EER10ap_privateIXT_EXT0_EXleT_Li64EEES2_i(%class.ap_private.15* dereferenceable(8) %0, i32 %57)
          to label %59 unwind label %40, !dbg !12836

; <label>:59:                                     ; preds = %55
  %60 = getelementptr inbounds %struct.ap_range_ref.12, %struct.ap_range_ref.12* %10, i32 0, i32 2, !dbg !12837
  %61 = load i32, i32* %60, align 4, !dbg !12837
  %62 = icmp slt i32 %61, 53, !dbg !12839
  br i1 %62, label %63, label %75, !dbg !12840

; <label>:63:                                     ; preds = %59
  %64 = getelementptr inbounds %struct.ap_range_ref.12, %struct.ap_range_ref.12* %10, i32 0, i32 2, !dbg !12841
  %65 = load i32, i32* %64, align 4, !dbg !12841
  %66 = getelementptr inbounds %struct.ap_range_ref.12, %struct.ap_range_ref.12* %10, i32 0, i32 1, !dbg !12845
  %67 = load i32, i32* %66, align 8, !dbg !12845
  %68 = sub nsw i32 %65, %67, !dbg !12846
  %69 = add nsw i32 %68, 1, !dbg !12847
  %70 = sub nsw i32 54, %69, !dbg !12848
  %71 = zext i32 %70 to i64, !dbg !12849
  %72 = lshr i64 18014398509481983, %71, !dbg !12849
  %73 = invoke dereferenceable(8) %class.ap_private.15* @_ZN10ap_privateILi54ELb0ELb1EEaNEm(%class.ap_private.15* %0, i64 %72)
          to label %74 unwind label %40, !dbg !12850

; <label>:74:                                     ; preds = %63
  br label %75, !dbg !12851

; <label>:75:                                     ; preds = %74, %59
  br label %76

; <label>:76:                                     ; preds = %75, %50
  store i1 true, i1* %4, align 1, !dbg !12852
  %77 = load i1, i1* %4, align 1, !dbg !12853
  br i1 %77, label %79, label %78, !dbg !12853

; <label>:78:                                     ; preds = %76
  call void @_ZN10ap_privateILi54ELb0ELb1EED2Ev(%class.ap_private.15* %0) #3, !dbg !12855
  br label %79, !dbg !12855

; <label>:79:                                     ; preds = %78, %76
  ret void, !dbg !12857

; <label>:80:                                     ; preds = %40
  %81 = load i8*, i8** %8, align 8, !dbg !12859
  %82 = load i32, i32* %9, align 4, !dbg !12859
  %83 = insertvalue { i8*, i32 } undef, i8* %81, 0, !dbg !12859
  %84 = insertvalue { i8*, i32 } %83, i32 %82, 1, !dbg !12859
  resume { i8*, i32 } %84, !dbg !12859
}

; Function Attrs: nounwind
define linkonce_odr void @_ZN10ap_privateILi54ELb0ELb1EE12check_canaryEv(%class.ap_private.15*) #10 comdat align 2 !dbg !12861 !xidane.fname !12064 !xidane.function_declaration_type !11109 !xidane.function_declaration_filename !11893 {
  %2 = alloca %class.ap_private.15*, align 8
  store %class.ap_private.15* %0, %class.ap_private.15** %2, align 8
  call void @llvm.dbg.declare(metadata %class.ap_private.15** %2, metadata !12862, metadata !11119), !dbg !12863
  %3 = load %class.ap_private.15*, %class.ap_private.15** %2, align 8
  ret void, !dbg !12864
}

; Function Attrs: inlinehint nounwind
define linkonce_odr i64 @_ZNK10ap_privateILi54ELb0ELb1EE7get_VALEv(%class.ap_private.15*) #8 comdat align 2 !dbg !12865 !xidane.fname !12413 !xidane.function_declaration_type !12414 !xidane.function_declaration_filename !11893 {
  %2 = alloca %class.ap_private.15*, align 8
  store %class.ap_private.15* %0, %class.ap_private.15** %2, align 8
  call void @llvm.dbg.declare(metadata %class.ap_private.15** %2, metadata !12866, metadata !11119), !dbg !12867
  %3 = load %class.ap_private.15*, %class.ap_private.15** %2, align 8
  %4 = getelementptr inbounds %class.ap_private.15, %class.ap_private.15* %3, i32 0, i32 0, !dbg !12868
  %5 = load i64, i64* %4, align 8, !dbg !12868
  ret i64 %5, !dbg !12869
}

; Function Attrs: inlinehint
define linkonce_odr void @_ZN10ap_privateILi54ELb0ELb1EEC2Ei(%class.ap_private.15*, i32) unnamed_addr #7 comdat align 2 !dbg !12870 !xidane.fname !12096 !xidane.function_declaration_type !11867 !xidane.function_declaration_filename !11893 {
  %3 = alloca %class.ap_private.15*, align 8
  %4 = alloca i32, align 4
  store %class.ap_private.15* %0, %class.ap_private.15** %3, align 8
  call void @llvm.dbg.declare(metadata %class.ap_private.15** %3, metadata !12871, metadata !11119), !dbg !12872
  store i32 %1, i32* %4, align 4
  call void @llvm.dbg.declare(metadata i32* %4, metadata !12873, metadata !11119), !dbg !12874
  %5 = load %class.ap_private.15*, %class.ap_private.15** %3, align 8
  %6 = getelementptr inbounds %class.ap_private.15, %class.ap_private.15* %5, i32 0, i32 0, !dbg !12874
  %7 = load i32, i32* %4, align 4, !dbg !12874
  %8 = sext i32 %7 to i64, !dbg !12874
  store i64 %8, i64* %6, align 8, !dbg !12874
  call void @_ZN10ap_privateILi54ELb0ELb1EE10set_canaryEv(%class.ap_private.15* %5), !dbg !12875
  call void @_ZN10ap_privateILi54ELb0ELb1EE15clearUnusedBitsEv(%class.ap_private.15* %5), !dbg !12877
  call void @_ZN10ap_privateILi54ELb0ELb1EE12check_canaryEv(%class.ap_private.15* %5), !dbg !12879
  ret void, !dbg !12874
}

; Function Attrs: inlinehint
define linkonce_odr void @_ZN10ap_privateILi54ELb1ELb1EEixEi(%struct.ap_bit_ref* noalias sret, %class.ap_private.11*, i32) #7 comdat align 2 !dbg !12881 !xidane.fname !12882 !xidane.function_declaration_type !12883 !xidane.function_declaration_filename !11893 {
  %4 = alloca %class.ap_private.11*, align 8
  %5 = alloca i32, align 4
  store %class.ap_private.11* %1, %class.ap_private.11** %4, align 8
  call void @llvm.dbg.declare(metadata %class.ap_private.11** %4, metadata !12884, metadata !11119), !dbg !12885
  store i32 %2, i32* %5, align 4
  call void @llvm.dbg.declare(metadata i32* %5, metadata !12886, metadata !11119), !dbg !12887
  %6 = load %class.ap_private.11*, %class.ap_private.11** %4, align 8
  %7 = load i32, i32* %5, align 4, !dbg !12888
  call void @_ZN10ap_bit_refILi54ELb1EEC2ER10ap_privateILi54ELb1ELb1EEi(%struct.ap_bit_ref* %0, %class.ap_private.11* dereferenceable(8) %6, i32 %7), !dbg !12889
  ret void, !dbg !12890
}

; Function Attrs: inlinehint
define linkonce_odr i1 @_ZNK10ap_bit_refILi54ELb1EEcvbEv(%struct.ap_bit_ref*) #7 comdat align 2 !dbg !12891 !xidane.fname !12892 !xidane.function_declaration_type !12893 !xidane.function_declaration_filename !11699 {
  %2 = alloca %struct.ap_bit_ref*, align 8
  store %struct.ap_bit_ref* %0, %struct.ap_bit_ref** %2, align 8
  call void @llvm.dbg.declare(metadata %struct.ap_bit_ref** %2, metadata !12894, metadata !11119), !dbg !12896
  %3 = load %struct.ap_bit_ref*, %struct.ap_bit_ref** %2, align 8
  %4 = getelementptr inbounds %struct.ap_bit_ref, %struct.ap_bit_ref* %3, i32 0, i32 0, !dbg !12897
  %5 = load %class.ap_private.11*, %class.ap_private.11** %4, align 8, !dbg !12897
  %6 = getelementptr inbounds %struct.ap_bit_ref, %struct.ap_bit_ref* %3, i32 0, i32 1, !dbg !12898
  %7 = load i32, i32* %6, align 8, !dbg !12898
  %8 = call i1 @_ZNK10ap_privateILi54ELb1ELb1EE7get_bitEi(%class.ap_private.11* %5, i32 %7), !dbg !12899
  ret i1 %8, !dbg !12900
}

; Function Attrs: inlinehint nounwind
define linkonce_odr dereferenceable(8) %class.ap_private.15* @_ZN10ap_privateILi54ELb0ELb1EE3setEj(%class.ap_private.15*, i32) #8 comdat align 2 !dbg !12901 !xidane.fname !12503 !xidane.function_declaration_type !12902 !xidane.function_declaration_filename !11893 {
  %3 = alloca %class.ap_private.15*, align 8
  %4 = alloca i32, align 4
  store %class.ap_private.15* %0, %class.ap_private.15** %3, align 8
  call void @llvm.dbg.declare(metadata %class.ap_private.15** %3, metadata !12903, metadata !11119), !dbg !12904
  store i32 %1, i32* %4, align 4
  call void @llvm.dbg.declare(metadata i32* %4, metadata !12905, metadata !11119), !dbg !12906
  %5 = load %class.ap_private.15*, %class.ap_private.15** %3, align 8
  %6 = load i32, i32* %4, align 4, !dbg !12907
  %7 = zext i32 %6 to i64, !dbg !12908
  %8 = shl i64 1, %7, !dbg !12908
  %9 = getelementptr inbounds %class.ap_private.15, %class.ap_private.15* %5, i32 0, i32 0, !dbg !12909
  %10 = load i64, i64* %9, align 8, !dbg !12910
  %11 = or i64 %10, %8, !dbg !12910
  store i64 %11, i64* %9, align 8, !dbg !12910
  call void @_ZN10ap_privateILi54ELb0ELb1EE15clearUnusedBitsEv(%class.ap_private.15* %5), !dbg !12911
  ret %class.ap_private.15* %5, !dbg !12912
}

define linkonce_odr dereferenceable(8) %class.ap_private.15* @_ZN10ap_privateILi54ELb0ELb1EEaSILi54ELb1EEERS0_RKS_IXT_EXT0_EXleT_Li64EEE(%class.ap_private.15*, %class.ap_private.11* dereferenceable(8)) #0 comdat align 2 !dbg !12913 !xidane.fname !12565 !xidane.function_declaration_type !12917 !xidane.function_declaration_filename !11893 {
  %3 = alloca %class.ap_private.15*, align 8
  %4 = alloca %class.ap_private.11*, align 8
  store %class.ap_private.15* %0, %class.ap_private.15** %3, align 8
  call void @llvm.dbg.declare(metadata %class.ap_private.15** %3, metadata !12918, metadata !11119), !dbg !12919
  store %class.ap_private.11* %1, %class.ap_private.11** %4, align 8
  call void @llvm.dbg.declare(metadata %class.ap_private.11** %4, metadata !12920, metadata !11119), !dbg !12921
  %5 = load %class.ap_private.15*, %class.ap_private.15** %3, align 8
  %6 = load %class.ap_private.11*, %class.ap_private.11** %4, align 8, !dbg !12922
  %7 = call i64 @_ZNK10ap_privateILi54ELb1ELb1EE7get_VALEv(%class.ap_private.11* %6), !dbg !12923
  %8 = getelementptr inbounds %class.ap_private.15, %class.ap_private.15* %5, i32 0, i32 0, !dbg !12924
  store i64 %7, i64* %8, align 8, !dbg !12925
  call void @_ZN10ap_privateILi54ELb0ELb1EE15clearUnusedBitsEv(%class.ap_private.15* %5), !dbg !12926
  ret %class.ap_private.15* %5, !dbg !12927
}

; Function Attrs: inlinehint
define linkonce_odr dereferenceable(8) %class.ap_private.15* @_ZrSILi54ELb0EER10ap_privateIXT_EXT0_EXleT_Li64EEES2_i(%class.ap_private.15* dereferenceable(8), i32) #7 comdat personality i8* bitcast (i32 (...)* @__gxx_personality_v0 to i8*) !dbg !12928 !xidane.fname !12932 !xidane.function_declaration_type !12933 !xidane.function_declaration_filename !11893 {
  %3 = alloca %class.ap_private.15*, align 8
  %4 = alloca i32, align 4
  %5 = alloca %class.ap_private.15, align 8
  %6 = alloca i8*
  %7 = alloca i32
  store %class.ap_private.15* %0, %class.ap_private.15** %3, align 8
  call void @llvm.dbg.declare(metadata %class.ap_private.15** %3, metadata !12934, metadata !11119), !dbg !12935
  store i32 %1, i32* %4, align 4
  call void @llvm.dbg.declare(metadata i32* %4, metadata !12936, metadata !11119), !dbg !12935
  %8 = load %class.ap_private.15*, %class.ap_private.15** %3, align 8, !dbg !12935
  %9 = load %class.ap_private.15*, %class.ap_private.15** %3, align 8, !dbg !12935
  %10 = load i32, i32* %4, align 4, !dbg !12935
  call void @_ZNK10ap_privateILi54ELb0ELb1EErsEi(%class.ap_private.15* sret %5, %class.ap_private.15* %9, i32 %10), !dbg !12935
  %11 = invoke dereferenceable(8) %class.ap_private.15* @_ZN10ap_privateILi54ELb0ELb1EEaSERKS0_(%class.ap_private.15* %8, %class.ap_private.15* dereferenceable(8) %5)
          to label %12 unwind label %14, !dbg !12935

; <label>:12:                                     ; preds = %2
  call void @_ZN10ap_privateILi54ELb0ELb1EED2Ev(%class.ap_private.15* %5) #3, !dbg !12937
  %13 = load %class.ap_private.15*, %class.ap_private.15** %3, align 8, !dbg !12937
  ret %class.ap_private.15* %13, !dbg !12937

; <label>:14:                                     ; preds = %2
  %15 = landingpad { i8*, i32 }
          cleanup, !dbg !12939
  %16 = extractvalue { i8*, i32 } %15, 0, !dbg !12939
  store i8* %16, i8** %6, align 8, !dbg !12939
  %17 = extractvalue { i8*, i32 } %15, 1, !dbg !12939
  store i32 %17, i32* %7, align 4, !dbg !12939
  call void @_ZN10ap_privateILi54ELb0ELb1EED2Ev(%class.ap_private.15* %5) #3, !dbg !12939
  br label %18, !dbg !12939

; <label>:18:                                     ; preds = %14
  %19 = load i8*, i8** %6, align 8, !dbg !12941
  %20 = load i32, i32* %7, align 4, !dbg !12941
  %21 = insertvalue { i8*, i32 } undef, i8* %19, 0, !dbg !12941
  %22 = insertvalue { i8*, i32 } %21, i32 %20, 1, !dbg !12941
  resume { i8*, i32 } %22, !dbg !12941
}

; Function Attrs: inlinehint nounwind
define linkonce_odr dereferenceable(8) %class.ap_private.15* @_ZN10ap_privateILi54ELb0ELb1EEaNEm(%class.ap_private.15*, i64) #8 comdat align 2 !dbg !12943 !xidane.fname !12944 !xidane.function_declaration_type !12945 !xidane.function_declaration_filename !11893 {
  %3 = alloca %class.ap_private.15*, align 8
  %4 = alloca i64, align 8
  store %class.ap_private.15* %0, %class.ap_private.15** %3, align 8
  call void @llvm.dbg.declare(metadata %class.ap_private.15** %3, metadata !12946, metadata !11119), !dbg !12947
  store i64 %1, i64* %4, align 8
  call void @llvm.dbg.declare(metadata i64* %4, metadata !12948, metadata !11119), !dbg !12949
  %5 = load %class.ap_private.15*, %class.ap_private.15** %3, align 8
  %6 = load i64, i64* %4, align 8, !dbg !12950
  %7 = getelementptr inbounds %class.ap_private.15, %class.ap_private.15* %5, i32 0, i32 0, !dbg !12951
  %8 = load i64, i64* %7, align 8, !dbg !12952
  %9 = and i64 %8, %6, !dbg !12952
  store i64 %9, i64* %7, align 8, !dbg !12952
  call void @_ZN10ap_privateILi54ELb0ELb1EE15clearUnusedBitsEv(%class.ap_private.15* %5), !dbg !12953
  ret %class.ap_private.15* %5, !dbg !12954
}

; Function Attrs: inlinehint nounwind
define linkonce_odr void @_ZN10ap_privateILi54ELb0ELb1EE15clearUnusedBitsEv(%class.ap_private.15*) #8 comdat align 2 !dbg !6991 !xidane.fname !12109 !xidane.function_declaration_type !11109 !xidane.function_declaration_filename !11893 {
  %2 = alloca %class.ap_private.15*, align 8
  store %class.ap_private.15* %0, %class.ap_private.15** %2, align 8
  call void @llvm.dbg.declare(metadata %class.ap_private.15** %2, metadata !12955, metadata !11119), !dbg !12956
  %3 = load %class.ap_private.15*, %class.ap_private.15** %2, align 8
  %4 = getelementptr inbounds %class.ap_private.15, %class.ap_private.15* %3, i32 0, i32 0, !dbg !12957
  %5 = load i64, i64* %4, align 8, !dbg !12957
  %6 = shl i64 %5, 10, !dbg !12958
  %7 = lshr i64 %6, 10, !dbg !12959
  %8 = getelementptr inbounds %class.ap_private.15, %class.ap_private.15* %3, i32 0, i32 0, !dbg !12960
  store i64 %7, i64* %8, align 8, !dbg !12961
  ret void, !dbg !12962
}

; Function Attrs: inlinehint
define linkonce_odr void @_ZN10ap_bit_refILi54ELb1EEC2ER10ap_privateILi54ELb1ELb1EEi(%struct.ap_bit_ref*, %class.ap_private.11* dereferenceable(8), i32) unnamed_addr #7 comdat align 2 !dbg !12963 !xidane.fname !12964 !xidane.function_declaration_type !12965 !xidane.function_declaration_filename !11699 {
  %4 = alloca %struct.ap_bit_ref*, align 8
  %5 = alloca %class.ap_private.11*, align 8
  %6 = alloca i32, align 4
  store %struct.ap_bit_ref* %0, %struct.ap_bit_ref** %4, align 8
  call void @llvm.dbg.declare(metadata %struct.ap_bit_ref** %4, metadata !12966, metadata !11119), !dbg !12968
  store %class.ap_private.11* %1, %class.ap_private.11** %5, align 8
  call void @llvm.dbg.declare(metadata %class.ap_private.11** %5, metadata !12969, metadata !11119), !dbg !12970
  store i32 %2, i32* %6, align 4
  call void @llvm.dbg.declare(metadata i32* %6, metadata !12971, metadata !11119), !dbg !12972
  %7 = load %struct.ap_bit_ref*, %struct.ap_bit_ref** %4, align 8
  %8 = getelementptr inbounds %struct.ap_bit_ref, %struct.ap_bit_ref* %7, i32 0, i32 0, !dbg !12973
  %9 = load %class.ap_private.11*, %class.ap_private.11** %5, align 8, !dbg !12974
  store %class.ap_private.11* %9, %class.ap_private.11** %8, align 8, !dbg !12973
  %10 = getelementptr inbounds %struct.ap_bit_ref, %struct.ap_bit_ref* %7, i32 0, i32 1, !dbg !12975
  %11 = load i32, i32* %6, align 4, !dbg !12976
  store i32 %11, i32* %10, align 8, !dbg !12975
  %12 = getelementptr inbounds %struct.ap_bit_ref, %struct.ap_bit_ref* %7, i32 0, i32 1, !dbg !12977
  %13 = load i32, i32* %12, align 8, !dbg !12977
  %14 = icmp slt i32 %13, 0, !dbg !12980
  br i1 %14, label %15, label %20, !dbg !12981

; <label>:15:                                     ; preds = %3
  %16 = load %struct._IO_FILE*, %struct._IO_FILE** @stderr, align 8, !dbg !12982
  %17 = getelementptr inbounds %struct.ap_bit_ref, %struct.ap_bit_ref* %7, i32 0, i32 1, !dbg !12983
  %18 = load i32, i32* %17, align 8, !dbg !12983
  %19 = call i32 (%struct._IO_FILE*, i8*, ...) @fprintf(%struct._IO_FILE* %16, i8* getelementptr inbounds ([56 x i8], [56 x i8]* @.str.13, i32 0, i32 0), i32 %18), !dbg !12984
  br label %20, !dbg !12984

; <label>:20:                                     ; preds = %15, %3
  %21 = getelementptr inbounds %struct.ap_bit_ref, %struct.ap_bit_ref* %7, i32 0, i32 1, !dbg !12985
  %22 = load i32, i32* %21, align 8, !dbg !12985
  %23 = icmp sge i32 %22, 54, !dbg !12987
  br i1 %23, label %24, label %29, !dbg !12988

; <label>:24:                                     ; preds = %20
  %25 = load %struct._IO_FILE*, %struct._IO_FILE** @stderr, align 8, !dbg !12989
  %26 = getelementptr inbounds %struct.ap_bit_ref, %struct.ap_bit_ref* %7, i32 0, i32 1, !dbg !12990
  %27 = load i32, i32* %26, align 8, !dbg !12990
  %28 = call i32 (%struct._IO_FILE*, i8*, ...) @fprintf(%struct._IO_FILE* %25, i8* getelementptr inbounds ([54 x i8], [54 x i8]* @.str.14, i32 0, i32 0), i32 %27, i32 54), !dbg !12991
  br label %29, !dbg !12991

; <label>:29:                                     ; preds = %24, %20
  ret void, !dbg !12992
}

; Function Attrs: inlinehint nounwind
define linkonce_odr i1 @_ZNK10ap_privateILi54ELb1ELb1EE7get_bitEi(%class.ap_private.11*, i32) #8 comdat align 2 !dbg !12993 !xidane.fname !12994 !xidane.function_declaration_type !12995 !xidane.function_declaration_filename !11893 {
  %3 = alloca %class.ap_private.11*, align 8
  %4 = alloca i32, align 4
  store %class.ap_private.11* %0, %class.ap_private.11** %3, align 8
  call void @llvm.dbg.declare(metadata %class.ap_private.11** %3, metadata !12996, metadata !11119), !dbg !12997
  store i32 %1, i32* %4, align 4
  call void @llvm.dbg.declare(metadata i32* %4, metadata !12998, metadata !11119), !dbg !12999
  %5 = load %class.ap_private.11*, %class.ap_private.11** %3, align 8
  %6 = load i32, i32* %4, align 4, !dbg !13000
  %7 = icmp sge i32 %6, 0, !dbg !13000
  br i1 %7, label %8, label %9, !dbg !13000

; <label>:8:                                      ; preds = %2
  br label %9

; <label>:9:                                      ; preds = %8, %2
  %10 = phi i1 [ false, %2 ], [ true, %8 ]
  br i1 %10, label %11, label %12, !dbg !13001

; <label>:11:                                     ; preds = %9
  br label %14, !dbg !13003

; <label>:12:                                     ; preds = %9
  call void @__assert_fail(i8* getelementptr inbounds ([55 x i8], [55 x i8]* @.str.16, i32 0, i32 0), i8* getelementptr inbounds ([59 x i8], [59 x i8]* @.str.17, i32 0, i32 0), i32 2300, i8* getelementptr inbounds ([93 x i8], [93 x i8]* @__PRETTY_FUNCTION__._ZNK10ap_privateILi54ELb1ELb1EE7get_bitEi, i32 0, i32 0)) #17, !dbg !13005
  unreachable, !dbg !13005
                                                  ; No predecessors!
  br label %14, !dbg !13007

; <label>:14:                                     ; preds = %13, %11
  %15 = load i32, i32* %4, align 4, !dbg !13009
  %16 = icmp slt i32 %15, 54, !dbg !13009
  br i1 %16, label %17, label %18, !dbg !13009

; <label>:17:                                     ; preds = %14
  br label %18

; <label>:18:                                     ; preds = %17, %14
  %19 = phi i1 [ false, %14 ], [ true, %17 ]
  br i1 %19, label %20, label %21, !dbg !13010

; <label>:20:                                     ; preds = %18
  br label %23, !dbg !13011

; <label>:21:                                     ; preds = %18
  call void @__assert_fail(i8* getelementptr inbounds ([49 x i8], [49 x i8]* @.str.19, i32 0, i32 0), i8* getelementptr inbounds ([59 x i8], [59 x i8]* @.str.17, i32 0, i32 0), i32 2301, i8* getelementptr inbounds ([93 x i8], [93 x i8]* @__PRETTY_FUNCTION__._ZNK10ap_privateILi54ELb1ELb1EE7get_bitEi, i32 0, i32 0)) #17, !dbg !13012
  unreachable, !dbg !13012
                                                  ; No predecessors!
  br label %23, !dbg !13013

; <label>:23:                                     ; preds = %22, %20
  %24 = load i32, i32* %4, align 4, !dbg !13014
  %25 = zext i32 %24 to i64, !dbg !13015
  %26 = shl i64 1, %25, !dbg !13015
  %27 = getelementptr inbounds %class.ap_private.11, %class.ap_private.11* %5, i32 0, i32 0, !dbg !13016
  %28 = load i64, i64* %27, align 8, !dbg !13016
  %29 = and i64 %26, %28, !dbg !13017
  %30 = icmp ne i64 %29, 0, !dbg !13018
  ret i1 %30, !dbg !13019
}

; Function Attrs: noreturn nounwind
declare !xidane.fname !13020 !xidane.function_declaration_type !13021 !xidane.function_declaration_filename !13022 !xidane.ExternC !11683 void @__assert_fail(i8*, i8*, i32, i8*) #12

; Function Attrs: inlinehint nounwind
define linkonce_odr i64 @_ZNK10ap_privateILi54ELb1ELb1EE7get_VALEv(%class.ap_private.11*) #8 comdat align 2 !dbg !13023 !xidane.fname !12413 !xidane.function_declaration_type !12414 !xidane.function_declaration_filename !11893 {
  %2 = alloca %class.ap_private.11*, align 8
  store %class.ap_private.11* %0, %class.ap_private.11** %2, align 8
  call void @llvm.dbg.declare(metadata %class.ap_private.11** %2, metadata !13024, metadata !11119), !dbg !13025
  %3 = load %class.ap_private.11*, %class.ap_private.11** %2, align 8
  %4 = getelementptr inbounds %class.ap_private.11, %class.ap_private.11* %3, i32 0, i32 0, !dbg !13026
  %5 = load i64, i64* %4, align 8, !dbg !13026
  ret i64 %5, !dbg !13027
}

; Function Attrs: inlinehint
define linkonce_odr void @_ZNK10ap_privateILi54ELb0ELb1EErsEi(%class.ap_private.15* noalias sret, %class.ap_private.15*, i32) #7 comdat align 2 !dbg !13028 !xidane.fname !12595 !xidane.function_declaration_type !13029 !xidane.function_declaration_filename !11893 {
  %4 = alloca %class.ap_private.15*, align 8
  %5 = alloca i32, align 4
  store %class.ap_private.15* %1, %class.ap_private.15** %4, align 8
  call void @llvm.dbg.declare(metadata %class.ap_private.15** %4, metadata !13030, metadata !11119), !dbg !13031
  store i32 %2, i32* %5, align 4
  call void @llvm.dbg.declare(metadata i32* %5, metadata !13032, metadata !11119), !dbg !13033
  %6 = load %class.ap_private.15*, %class.ap_private.15** %4, align 8
  %7 = load i32, i32* %5, align 4, !dbg !13034
  %8 = icmp sge i32 %7, 54, !dbg !13034
  br i1 %8, label %9, label %13, !dbg !13033

; <label>:9:                                      ; preds = %3
  %10 = call i1 @_ZNK10ap_privateILi54ELb0ELb1EE10isNegativeEv(%class.ap_private.15* %6), !dbg !13036
  br i1 %10, label %11, label %12, !dbg !13036

; <label>:11:                                     ; preds = %9
  call void @_ZN10ap_privateILi54ELb0ELb1EEC2Ei(%class.ap_private.15* %0, i32 -1), !dbg !13040
  br label %21, !dbg !13040

; <label>:12:                                     ; preds = %9
  call void @_ZN10ap_privateILi54ELb0ELb1EEC2Ei(%class.ap_private.15* %0, i32 0), !dbg !13042
  br label %21, !dbg !13042

; <label>:13:                                     ; preds = %3
  %14 = load i32, i32* %5, align 4, !dbg !13044
  %15 = icmp slt i32 %14, 0, !dbg !13044
  br i1 %15, label %16, label %19, !dbg !13044

; <label>:16:                                     ; preds = %13
  %17 = load i32, i32* %5, align 4, !dbg !13047
  %18 = sub nsw i32 0, %17, !dbg !13047
  call void @_ZNK10ap_privateILi54ELb0ELb1EElsEi(%class.ap_private.15* sret %0, %class.ap_private.15* %6, i32 %18), !dbg !13047
  br label %21, !dbg !13047

; <label>:19:                                     ; preds = %13
  %20 = load i32, i32* %5, align 4, !dbg !13049
  call void @_ZNK10ap_privateILi54ELb0ELb1EE4lshrEj(%class.ap_private.15* sret %0, %class.ap_private.15* %6, i32 %20), !dbg !13049
  br label %21, !dbg !13049

; <label>:21:                                     ; preds = %19, %16, %12, %11
  ret void, !dbg !13052
}

; Function Attrs: inlinehint nounwind
define linkonce_odr i1 @_ZNK10ap_privateILi54ELb0ELb1EE10isNegativeEv(%class.ap_private.15*) #8 comdat align 2 !dbg !9693 !xidane.fname !13054 !xidane.function_declaration_type !12893 !xidane.function_declaration_filename !11893 {
  %2 = alloca %class.ap_private.15*, align 8
  store %class.ap_private.15* %0, %class.ap_private.15** %2, align 8
  call void @llvm.dbg.declare(metadata %class.ap_private.15** %2, metadata !13055, metadata !11119), !dbg !13056
  %3 = load %class.ap_private.15*, %class.ap_private.15** %2, align 8
  ret i1 false, !dbg !13057
}

; Function Attrs: inlinehint
define linkonce_odr void @_ZNK10ap_privateILi54ELb0ELb1EElsEi(%class.ap_private.15* noalias sret, %class.ap_private.15*, i32) #7 comdat align 2 !dbg !13058 !xidane.fname !13059 !xidane.function_declaration_type !13029 !xidane.function_declaration_filename !11893 {
  %4 = alloca %class.ap_private.15*, align 8
  %5 = alloca i32, align 4
  store %class.ap_private.15* %1, %class.ap_private.15** %4, align 8
  call void @llvm.dbg.declare(metadata %class.ap_private.15** %4, metadata !13060, metadata !11119), !dbg !13061
  store i32 %2, i32* %5, align 4
  call void @llvm.dbg.declare(metadata i32* %5, metadata !13062, metadata !11119), !dbg !13063
  %6 = load %class.ap_private.15*, %class.ap_private.15** %4, align 8
  %7 = load i32, i32* %5, align 4, !dbg !13064
  %8 = icmp sge i32 %7, 54, !dbg !13064
  br i1 %8, label %9, label %10, !dbg !13063

; <label>:9:                                      ; preds = %3
  call void @_ZN10ap_privateILi54ELb0ELb1EEC2Ei(%class.ap_private.15* %0, i32 0), !dbg !13066
  br label %18, !dbg !13066

; <label>:10:                                     ; preds = %3
  %11 = load i32, i32* %5, align 4, !dbg !13068
  %12 = icmp slt i32 %11, 0, !dbg !13068
  br i1 %12, label %13, label %16, !dbg !13068

; <label>:13:                                     ; preds = %10
  %14 = load i32, i32* %5, align 4, !dbg !13071
  %15 = sub nsw i32 0, %14, !dbg !13071
  call void @_ZNK10ap_privateILi54ELb0ELb1EErsEi(%class.ap_private.15* sret %0, %class.ap_private.15* %6, i32 %15), !dbg !13071
  br label %18, !dbg !13071

; <label>:16:                                     ; preds = %10
  %17 = load i32, i32* %5, align 4, !dbg !13073
  call void @_ZNK10ap_privateILi54ELb0ELb1EE3shlEj(%class.ap_private.15* sret %0, %class.ap_private.15* %6, i32 %17), !dbg !13073
  br label %18, !dbg !13073

; <label>:18:                                     ; preds = %16, %13, %9
  ret void, !dbg !13075
}

; Function Attrs: inlinehint
define linkonce_odr void @_ZNK10ap_privateILi54ELb0ELb1EE4lshrEj(%class.ap_private.15* noalias sret, %class.ap_private.15*, i32) #7 comdat align 2 !dbg !13077 !xidane.fname !13078 !xidane.function_declaration_type !13079 !xidane.function_declaration_filename !11893 {
  %4 = alloca %class.ap_private.15*, align 8
  %5 = alloca i32, align 4
  store %class.ap_private.15* %1, %class.ap_private.15** %4, align 8
  call void @llvm.dbg.declare(metadata %class.ap_private.15** %4, metadata !13080, metadata !11119), !dbg !13081
  store i32 %2, i32* %5, align 4
  call void @llvm.dbg.declare(metadata i32* %5, metadata !13082, metadata !11119), !dbg !13083
  %6 = load %class.ap_private.15*, %class.ap_private.15** %4, align 8
  %7 = load i32, i32* %5, align 4, !dbg !13084
  %8 = icmp eq i32 %7, 54, !dbg !13085
  br i1 %8, label %9, label %10, !dbg !13086

; <label>:9:                                      ; preds = %3
  call void @_ZN10ap_privateILi54ELb0ELb1EEC2Ei(%class.ap_private.15* %0, i32 0), !dbg !13087
  br label %17, !dbg !13089

; <label>:10:                                     ; preds = %3
  %11 = getelementptr inbounds %class.ap_private.15, %class.ap_private.15* %6, i32 0, i32 0, !dbg !13090
  %12 = load i64, i64* %11, align 8, !dbg !13090
  %13 = and i64 %12, 18014398509481983, !dbg !13092
  %14 = load i32, i32* %5, align 4, !dbg !13093
  %15 = zext i32 %14 to i64, !dbg !13094
  %16 = lshr i64 %13, %15, !dbg !13094
  call void @_ZN10ap_privateILi54ELb0ELb1EEC2Em(%class.ap_private.15* %0, i64 %16), !dbg !13095
  br label %17, !dbg !13096

; <label>:17:                                     ; preds = %10, %9
  ret void, !dbg !13097
}

; Function Attrs: inlinehint
define linkonce_odr void @_ZNK10ap_privateILi54ELb0ELb1EE3shlEj(%class.ap_private.15* noalias sret, %class.ap_private.15*, i32) #7 comdat align 2 !dbg !13099 !xidane.fname !13100 !xidane.function_declaration_type !13079 !xidane.function_declaration_filename !11893 {
  %4 = alloca %class.ap_private.15*, align 8
  %5 = alloca i32, align 4
  store %class.ap_private.15* %1, %class.ap_private.15** %4, align 8
  call void @llvm.dbg.declare(metadata %class.ap_private.15** %4, metadata !13101, metadata !11119), !dbg !13102
  store i32 %2, i32* %5, align 4
  call void @llvm.dbg.declare(metadata i32* %5, metadata !13103, metadata !11119), !dbg !13104
  %6 = load %class.ap_private.15*, %class.ap_private.15** %4, align 8
  %7 = load i32, i32* %5, align 4, !dbg !13105
  %8 = icmp ugt i32 %7, 54, !dbg !13107
  br i1 %8, label %9, label %13, !dbg !13108

; <label>:9:                                      ; preds = %3
  %10 = call i1 @_ZNK10ap_privateILi54ELb0ELb1EE10isNegativeEv(%class.ap_private.15* %6), !dbg !13109
  br i1 %10, label %12, label %11, !dbg !13112

; <label>:11:                                     ; preds = %9
  call void @_ZN10ap_privateILi54ELb0ELb1EEC2Ei(%class.ap_private.15* %0, i32 0), !dbg !13113
  br label %23, !dbg !13114

; <label>:12:                                     ; preds = %9
  call void @_ZN10ap_privateILi54ELb0ELb1EEC2Ei(%class.ap_private.15* %0, i32 -1), !dbg !13115
  br label %23, !dbg !13116

; <label>:13:                                     ; preds = %3
  %14 = load i32, i32* %5, align 4, !dbg !13117
  %15 = icmp eq i32 %14, 54, !dbg !13119
  br i1 %15, label %16, label %17, !dbg !13120

; <label>:16:                                     ; preds = %13
  call void @_ZN10ap_privateILi54ELb0ELb1EEC2Ei(%class.ap_private.15* %0, i32 0), !dbg !13121
  br label %23, !dbg !13123

; <label>:17:                                     ; preds = %13
  %18 = getelementptr inbounds %class.ap_private.15, %class.ap_private.15* %6, i32 0, i32 0, !dbg !13124
  %19 = load i64, i64* %18, align 8, !dbg !13124
  %20 = load i32, i32* %5, align 4, !dbg !13125
  %21 = zext i32 %20 to i64, !dbg !13126
  %22 = shl i64 %19, %21, !dbg !13126
  call void @_ZN10ap_privateILi54ELb0ELb1EEC2Em(%class.ap_private.15* %0, i64 %22), !dbg !13127
  br label %23, !dbg !13128

; <label>:23:                                     ; preds = %17, %16, %12, %11
  ret void, !dbg !13129
}

; Function Attrs: inlinehint
define linkonce_odr void @_ZN10ap_privateILi54ELb0ELb1EEC2Em(%class.ap_private.15*, i64) unnamed_addr #7 comdat align 2 !dbg !13130 !xidane.fname !12096 !xidane.function_declaration_type !13131 !xidane.function_declaration_filename !11893 {
  %3 = alloca %class.ap_private.15*, align 8
  %4 = alloca i64, align 8
  store %class.ap_private.15* %0, %class.ap_private.15** %3, align 8
  call void @llvm.dbg.declare(metadata %class.ap_private.15** %3, metadata !13132, metadata !11119), !dbg !13133
  store i64 %1, i64* %4, align 8
  call void @llvm.dbg.declare(metadata i64* %4, metadata !13134, metadata !11119), !dbg !13135
  %5 = load %class.ap_private.15*, %class.ap_private.15** %3, align 8
  %6 = getelementptr inbounds %class.ap_private.15, %class.ap_private.15* %5, i32 0, i32 0, !dbg !13135
  %7 = load i64, i64* %4, align 8, !dbg !13135
  store i64 %7, i64* %6, align 8, !dbg !13135
  call void @_ZN10ap_privateILi54ELb0ELb1EE10set_canaryEv(%class.ap_private.15* %5), !dbg !13136
  call void @_ZN10ap_privateILi54ELb0ELb1EE15clearUnusedBitsEv(%class.ap_private.15* %5), !dbg !13138
  call void @_ZN10ap_privateILi54ELb0ELb1EE12check_canaryEv(%class.ap_private.15* %5), !dbg !13140
  ret void, !dbg !13135
}

; Function Attrs: inlinehint
define linkonce_odr i1 @_ZNK10ap_privateILi54ELb0ELb1EEeqILi32ELb1EEEbRKS_IXT_EXT0_EXleT_Li64EEE(%class.ap_private.15*, %class.ap_private.3* dereferenceable(4)) #7 comdat align 2 personality i8* bitcast (i32 (...)* @__gxx_personality_v0 to i8*) !dbg !13142 !xidane.fname !13146 !xidane.function_declaration_type !12732 !xidane.function_declaration_filename !11893 {
  %3 = alloca %class.ap_private.15*, align 8
  %4 = alloca %class.ap_private.3*, align 8
  %5 = alloca %class.ap_private.15, align 8
  %6 = alloca %class.ap_private.15, align 8
  %7 = alloca i8*
  %8 = alloca i32
  store %class.ap_private.15* %0, %class.ap_private.15** %3, align 8
  call void @llvm.dbg.declare(metadata %class.ap_private.15** %3, metadata !13147, metadata !11119), !dbg !13148
  store %class.ap_private.3* %1, %class.ap_private.3** %4, align 8
  call void @llvm.dbg.declare(metadata %class.ap_private.3** %4, metadata !13149, metadata !11119), !dbg !13150
  %9 = load %class.ap_private.15*, %class.ap_private.15** %3, align 8
  call void @llvm.dbg.declare(metadata %class.ap_private.15* %5, metadata !13151, metadata !11119), !dbg !13152
  %10 = bitcast %class.ap_private.15* %5 to i8*, !dbg !13152
  %11 = bitcast %class.ap_private.15* %9 to i8*, !dbg !13152
  call void @llvm.memcpy.p0i8.p0i8.i64(i8* %10, i8* %11, i64 8, i32 8, i1 false), !dbg !13152
  call void @llvm.dbg.declare(metadata %class.ap_private.15* %6, metadata !13153, metadata !11119), !dbg !13154
  %12 = load %class.ap_private.3*, %class.ap_private.3** %4, align 8, !dbg !13155
  invoke void @_ZN10ap_privateILi54ELb0ELb1EEC2ILi32ELb1ELb1EEERKS_IXT_EXT0_EXT1_EE(%class.ap_private.15* %6, %class.ap_private.3* dereferenceable(4) %12)
          to label %13 unwind label %21, !dbg !13154

; <label>:13:                                     ; preds = %2
  %14 = invoke dereferenceable(8) i64* @_ZN10ap_privateILi54ELb0ELb1EE7get_VALEv(%class.ap_private.15* %5)
          to label %15 unwind label %25, !dbg !13156

; <label>:15:                                     ; preds = %13
  %16 = load i64, i64* %14, align 8, !dbg !13159
  %17 = invoke dereferenceable(8) i64* @_ZN10ap_privateILi54ELb0ELb1EE7get_VALEv(%class.ap_private.15* %6)
          to label %18 unwind label %25, !dbg !13161

; <label>:18:                                     ; preds = %15
  %19 = load i64, i64* %17, align 8, !dbg !13162
  %20 = icmp eq i64 %16, %19, !dbg !13163
  call void @_ZN10ap_privateILi54ELb0ELb1EED2Ev(%class.ap_private.15* %6) #3, !dbg !13165
  call void @_ZN10ap_privateILi54ELb0ELb1EED2Ev(%class.ap_private.15* %5) #3, !dbg !13166
  ret i1 %20, !dbg !13165

; <label>:21:                                     ; preds = %2
  %22 = landingpad { i8*, i32 }
          cleanup, !dbg !13168
  %23 = extractvalue { i8*, i32 } %22, 0, !dbg !13168
  store i8* %23, i8** %7, align 8, !dbg !13168
  %24 = extractvalue { i8*, i32 } %22, 1, !dbg !13168
  store i32 %24, i32* %8, align 4, !dbg !13168
  br label %29, !dbg !13168

; <label>:25:                                     ; preds = %15, %13
  %26 = landingpad { i8*, i32 }
          cleanup, !dbg !13170
  %27 = extractvalue { i8*, i32 } %26, 0, !dbg !13170
  store i8* %27, i8** %7, align 8, !dbg !13170
  %28 = extractvalue { i8*, i32 } %26, 1, !dbg !13170
  store i32 %28, i32* %8, align 4, !dbg !13170
  call void @_ZN10ap_privateILi54ELb0ELb1EED2Ev(%class.ap_private.15* %6) #3, !dbg !13170
  br label %29, !dbg !13170

; <label>:29:                                     ; preds = %25, %21
  call void @_ZN10ap_privateILi54ELb0ELb1EED2Ev(%class.ap_private.15* %5) #3, !dbg !13171
  br label %30, !dbg !13171

; <label>:30:                                     ; preds = %29
  %31 = load i8*, i8** %7, align 8, !dbg !13173
  %32 = load i32, i32* %8, align 4, !dbg !13173
  %33 = insertvalue { i8*, i32 } undef, i8* %31, 0, !dbg !13173
  %34 = insertvalue { i8*, i32 } %33, i32 %32, 1, !dbg !13173
  resume { i8*, i32 } %34, !dbg !13173
}

; Function Attrs: argmemonly nounwind
declare void @llvm.memcpy.p0i8.p0i8.i64(i8* nocapture writeonly, i8* nocapture readonly, i64, i32, i1) #14

; Function Attrs: inlinehint
define linkonce_odr void @_ZN10ap_privateILi54ELb0ELb1EEC2ILi32ELb1ELb1EEERKS_IXT_EXT0_EXT1_EE(%class.ap_private.15*, %class.ap_private.3* dereferenceable(4)) unnamed_addr #7 comdat align 2 !dbg !13175 !xidane.fname !13181 !xidane.function_declaration_type !13182 !xidane.function_declaration_filename !11893 {
  %3 = alloca %class.ap_private.15*, align 8
  %4 = alloca %class.ap_private.3*, align 8
  store %class.ap_private.15* %0, %class.ap_private.15** %3, align 8
  call void @llvm.dbg.declare(metadata %class.ap_private.15** %3, metadata !13183, metadata !11119), !dbg !13184
  store %class.ap_private.3* %1, %class.ap_private.3** %4, align 8
  call void @llvm.dbg.declare(metadata %class.ap_private.3** %4, metadata !13185, metadata !11119), !dbg !13186
  %5 = load %class.ap_private.15*, %class.ap_private.15** %3, align 8
  %6 = getelementptr inbounds %class.ap_private.15, %class.ap_private.15* %5, i32 0, i32 0, !dbg !13187
  %7 = load %class.ap_private.3*, %class.ap_private.3** %4, align 8, !dbg !13188
  %8 = call i32 @_ZNK10ap_privateILi32ELb1ELb1EE7get_VALEv(%class.ap_private.3* %7), !dbg !13189
  %9 = sext i32 %8 to i64, !dbg !13188
  store i64 %9, i64* %6, align 8, !dbg !13187
  call void @_ZN10ap_privateILi54ELb0ELb1EE10set_canaryEv(%class.ap_private.15* %5), !dbg !13190
  call void @_ZN10ap_privateILi54ELb0ELb1EE15clearUnusedBitsEv(%class.ap_private.15* %5), !dbg !13192
  call void @_ZN10ap_privateILi54ELb0ELb1EE12check_canaryEv(%class.ap_private.15* %5), !dbg !13193
  ret void, !dbg !13194
}

; Function Attrs: inlinehint nounwind
define linkonce_odr dereferenceable(8) i64* @_ZN10ap_privateILi54ELb0ELb1EE7get_VALEv(%class.ap_private.15*) #8 comdat align 2 !dbg !13195 !xidane.fname !12413 !xidane.function_declaration_type !13196 !xidane.function_declaration_filename !11893 {
  %2 = alloca %class.ap_private.15*, align 8
  store %class.ap_private.15* %0, %class.ap_private.15** %2, align 8
  call void @llvm.dbg.declare(metadata %class.ap_private.15** %2, metadata !13197, metadata !11119), !dbg !13198
  %3 = load %class.ap_private.15*, %class.ap_private.15** %2, align 8
  %4 = getelementptr inbounds %class.ap_private.15, %class.ap_private.15* %3, i32 0, i32 0, !dbg !13199
  ret i64* %4, !dbg !13200
}

; Function Attrs: inlinehint nounwind
define linkonce_odr i32 @_ZNK10ap_privateILi32ELb1ELb1EE7get_VALEv(%class.ap_private.3*) #8 comdat align 2 !dbg !13201 !xidane.fname !12413 !xidane.function_declaration_type !12414 !xidane.function_declaration_filename !11893 {
  %2 = alloca %class.ap_private.3*, align 8
  store %class.ap_private.3* %0, %class.ap_private.3** %2, align 8
  call void @llvm.dbg.declare(metadata %class.ap_private.3** %2, metadata !13202, metadata !11119), !dbg !13204
  %3 = load %class.ap_private.3*, %class.ap_private.3** %2, align 8
  %4 = getelementptr inbounds %class.ap_private.3, %class.ap_private.3* %3, i32 0, i32 0, !dbg !13205
  %5 = load i32, i32* %4, align 4, !dbg !13205
  ret i32 %5, !dbg !13206
}

; Function Attrs: inlinehint
define linkonce_odr void @_ZN12ap_range_refILi54ELb1EEC2EP10ap_privateILi54ELb1ELb1EEii(%struct.ap_range_ref.12*, %class.ap_private.11*, i32, i32) unnamed_addr #7 comdat align 2 !dbg !13207 !xidane.fname !13208 !xidane.function_declaration_type !13209 !xidane.function_declaration_filename !11699 {
  %5 = alloca %struct.ap_range_ref.12*, align 8
  %6 = alloca %class.ap_private.11*, align 8
  %7 = alloca i32, align 4
  %8 = alloca i32, align 4
  store %struct.ap_range_ref.12* %0, %struct.ap_range_ref.12** %5, align 8
  call void @llvm.dbg.declare(metadata %struct.ap_range_ref.12** %5, metadata !13210, metadata !11119), !dbg !13212
  store %class.ap_private.11* %1, %class.ap_private.11** %6, align 8
  call void @llvm.dbg.declare(metadata %class.ap_private.11** %6, metadata !13213, metadata !11119), !dbg !13214
  store i32 %2, i32* %7, align 4
  call void @llvm.dbg.declare(metadata i32* %7, metadata !13215, metadata !11119), !dbg !13216
  store i32 %3, i32* %8, align 4
  call void @llvm.dbg.declare(metadata i32* %8, metadata !13217, metadata !11119), !dbg !13218
  %9 = load %struct.ap_range_ref.12*, %struct.ap_range_ref.12** %5, align 8
  %10 = getelementptr inbounds %struct.ap_range_ref.12, %struct.ap_range_ref.12* %9, i32 0, i32 0, !dbg !13219
  %11 = load %class.ap_private.11*, %class.ap_private.11** %6, align 8, !dbg !13220
  store %class.ap_private.11* %11, %class.ap_private.11** %10, align 8, !dbg !13219
  %12 = getelementptr inbounds %struct.ap_range_ref.12, %struct.ap_range_ref.12* %9, i32 0, i32 1, !dbg !13221
  %13 = load i32, i32* %8, align 4, !dbg !13222
  store i32 %13, i32* %12, align 8, !dbg !13221
  %14 = getelementptr inbounds %struct.ap_range_ref.12, %struct.ap_range_ref.12* %9, i32 0, i32 2, !dbg !13223
  %15 = load i32, i32* %7, align 4, !dbg !13224
  store i32 %15, i32* %14, align 4, !dbg !13223
  %16 = load i32, i32* %7, align 4, !dbg !13225
  %17 = icmp slt i32 %16, 0, !dbg !13228
  br i1 %17, label %21, label %18, !dbg !13229

; <label>:18:                                     ; preds = %4
  %19 = load i32, i32* %8, align 4, !dbg !13230
  %20 = icmp slt i32 %19, 0, !dbg !13232
  br i1 %20, label %21, label %26, !dbg !13233

; <label>:21:                                     ; preds = %18, %4
  %22 = load %struct._IO_FILE*, %struct._IO_FILE** @stderr, align 8, !dbg !13234
  %23 = load i32, i32* %7, align 4, !dbg !13235
  %24 = load i32, i32* %8, align 4, !dbg !13236
  %25 = call i32 (%struct._IO_FILE*, i8*, ...) @fprintf(%struct._IO_FILE* %22, i8* getelementptr inbounds ([69 x i8], [69 x i8]* @.str.20, i32 0, i32 0), i32 %23, i32 %24), !dbg !13237
  br label %26, !dbg !13237

; <label>:26:                                     ; preds = %21, %18
  %27 = load i32, i32* %7, align 4, !dbg !13238
  %28 = icmp sge i32 %27, 54, !dbg !13240
  br i1 %28, label %32, label %29, !dbg !13241

; <label>:29:                                     ; preds = %26
  %30 = load i32, i32* %8, align 4, !dbg !13242
  %31 = icmp sge i32 %30, 54, !dbg !13244
  br i1 %31, label %32, label %37, !dbg !13245

; <label>:32:                                     ; preds = %29, %26
  %33 = load %struct._IO_FILE*, %struct._IO_FILE** @stderr, align 8, !dbg !13246
  %34 = load i32, i32* %7, align 4, !dbg !13247
  %35 = load i32, i32* %8, align 4, !dbg !13248
  %36 = call i32 (%struct._IO_FILE*, i8*, ...) @fprintf(%struct._IO_FILE* %33, i8* getelementptr inbounds ([67 x i8], [67 x i8]* @.str.21, i32 0, i32 0), i32 %34, i32 %35, i32 54), !dbg !13249
  br label %37, !dbg !13249

; <label>:37:                                     ; preds = %32, %29
  ret void, !dbg !13250
}

; Function Attrs: inlinehint
define linkonce_odr void @_ZNK10ap_privateILi54ELb1ELb1EEorILi64ELb0EEENS0_5RTypeIXT_EXT0_EE5logicERKS_IXT_EXT0_EXleT_Li64EEE(%class.ap_private.13* noalias sret, %class.ap_private.11*, %class.ap_private.5* dereferenceable(8)) #7 comdat align 2 personality i8* bitcast (i32 (...)* @__gxx_personality_v0 to i8*) !dbg !13251 !xidane.fname !13255 !xidane.function_declaration_type !13256 !xidane.function_declaration_filename !11893 {
  %4 = alloca %class.ap_private.11*, align 8
  %5 = alloca %class.ap_private.5*, align 8
  %6 = alloca %class.ap_private.13, align 8
  %7 = alloca i8*
  %8 = alloca i32
  store %class.ap_private.11* %1, %class.ap_private.11** %4, align 8
  call void @llvm.dbg.declare(metadata %class.ap_private.11** %4, metadata !13257, metadata !11119), !dbg !13258
  store %class.ap_private.5* %2, %class.ap_private.5** %5, align 8
  call void @llvm.dbg.declare(metadata %class.ap_private.5** %5, metadata !13259, metadata !11119), !dbg !13260
  %9 = load %class.ap_private.11*, %class.ap_private.11** %4, align 8
  call void @llvm.dbg.declare(metadata %class.ap_private.13* %6, metadata !13261, metadata !11119), !dbg !13264
  call void @_ZN10ap_privateILi65ELb1ELb0EEC2ILi54ELb1EEERKS_IXT_EXT0_ELb1EE(%class.ap_private.13* %6, %class.ap_private.11* dereferenceable(8) %9), !dbg !13265
  %10 = load %class.ap_private.5*, %class.ap_private.5** %5, align 8, !dbg !13266
  invoke void @_ZNK10ap_privateILi65ELb1ELb0EEorILi64ELb0EEENS0_5RTypeIXT_EXT0_EE5logicERKS_IXT_EXT0_EXleT_Li64EEE(%class.ap_private.13* sret %0, %class.ap_private.13* %6, %class.ap_private.5* dereferenceable(8) %10)
          to label %11 unwind label %12, !dbg !13267

; <label>:11:                                     ; preds = %3
  call void @_ZN10ap_privateILi65ELb1ELb0EED2Ev(%class.ap_private.13* %6) #3, !dbg !13268
  ret void, !dbg !13269

; <label>:12:                                     ; preds = %3
  %13 = landingpad { i8*, i32 }
          cleanup, !dbg !13270
  %14 = extractvalue { i8*, i32 } %13, 0, !dbg !13270
  store i8* %14, i8** %7, align 8, !dbg !13270
  %15 = extractvalue { i8*, i32 } %13, 1, !dbg !13270
  store i32 %15, i32* %8, align 4, !dbg !13270
  call void @_ZN10ap_privateILi65ELb1ELb0EED2Ev(%class.ap_private.13* %6) #3, !dbg !13272
  br label %16, !dbg !13272

; <label>:16:                                     ; preds = %12
  %17 = load i8*, i8** %7, align 8, !dbg !13274
  %18 = load i32, i32* %8, align 4, !dbg !13274
  %19 = insertvalue { i8*, i32 } undef, i8* %17, 0, !dbg !13274
  %20 = insertvalue { i8*, i32 } %19, i32 %18, 1, !dbg !13274
  resume { i8*, i32 } %20, !dbg !13274
}

; Function Attrs: inlinehint
define linkonce_odr void @_ZN10ap_privateILi64ELb0ELb1EEC2Ey(%class.ap_private.5*, i64) unnamed_addr #7 comdat align 2 !dbg !13276 !xidane.fname !12096 !xidane.function_declaration_type !12440 !xidane.function_declaration_filename !11893 {
  %3 = alloca %class.ap_private.5*, align 8
  %4 = alloca i64, align 8
  store %class.ap_private.5* %0, %class.ap_private.5** %3, align 8
  call void @llvm.dbg.declare(metadata %class.ap_private.5** %3, metadata !13277, metadata !11119), !dbg !13278
  store i64 %1, i64* %4, align 8
  call void @llvm.dbg.declare(metadata i64* %4, metadata !13279, metadata !11119), !dbg !13280
  %5 = load %class.ap_private.5*, %class.ap_private.5** %3, align 8
  %6 = getelementptr inbounds %class.ap_private.5, %class.ap_private.5* %5, i32 0, i32 0, !dbg !13280
  %7 = load i64, i64* %4, align 8, !dbg !13280
  store i64 %7, i64* %6, align 8, !dbg !13280
  call void @_ZN10ap_privateILi64ELb0ELb1EE10set_canaryEv(%class.ap_private.5* %5), !dbg !13281
  call void @_ZN10ap_privateILi64ELb0ELb1EE15clearUnusedBitsEv(%class.ap_private.5* %5), !dbg !13283
  call void @_ZN10ap_privateILi64ELb0ELb1EE12check_canaryEv(%class.ap_private.5* %5), !dbg !13285
  ret void, !dbg !13280
}

; Function Attrs: inlinehint nounwind
define linkonce_odr void @_ZN10ap_privateILi64ELb0ELb1EED2Ev(%class.ap_private.5*) unnamed_addr #8 comdat align 2 personality i8* bitcast (i32 (...)* @__gxx_personality_v0 to i8*) !dbg !13287 !xidane.fname !12053 !xidane.function_declaration_type !11109 !xidane.function_declaration_filename !11893 {
  %2 = alloca %class.ap_private.5*, align 8
  store %class.ap_private.5* %0, %class.ap_private.5** %2, align 8
  call void @llvm.dbg.declare(metadata %class.ap_private.5** %2, metadata !13288, metadata !11119), !dbg !13289
  %3 = load %class.ap_private.5*, %class.ap_private.5** %2, align 8
  invoke void @_ZN10ap_privateILi64ELb0ELb1EE12check_canaryEv(%class.ap_private.5* %3)
          to label %4 unwind label %5, !dbg !13290

; <label>:4:                                      ; preds = %1
  ret void, !dbg !13292

; <label>:5:                                      ; preds = %1
  %6 = landingpad { i8*, i32 }
          catch i8* null, !dbg !13294
  %7 = extractvalue { i8*, i32 } %6, 0, !dbg !13294
  call void @__clang_call_terminate(i8* %7) #17, !dbg !13294
  unreachable, !dbg !13294
}

; Function Attrs: inlinehint
define linkonce_odr void @_ZN10ap_privateILi65ELb1ELb0EEC2ILi54ELb1EEERKS_IXT_EXT0_ELb1EE(%class.ap_private.13*, %class.ap_private.11* dereferenceable(8)) unnamed_addr #7 comdat align 2 !dbg !9695 !xidane.fname !12705 !xidane.function_declaration_type !13296 !xidane.function_declaration_filename !11893 {
  %3 = alloca %class.ap_private.13*, align 8
  %4 = alloca %class.ap_private.11*, align 8
  store %class.ap_private.13* %0, %class.ap_private.13** %3, align 8
  call void @llvm.dbg.declare(metadata %class.ap_private.13** %3, metadata !13297, metadata !11119), !dbg !13298
  store %class.ap_private.11* %1, %class.ap_private.11** %4, align 8
  call void @llvm.dbg.declare(metadata %class.ap_private.11** %4, metadata !13299, metadata !11119), !dbg !13300
  %5 = load %class.ap_private.13*, %class.ap_private.13** %3, align 8
  call void @_ZN10ap_privateILi65ELb1ELb0EE10set_canaryEv(%class.ap_private.13* %5), !dbg !13301
  %6 = load %class.ap_private.11*, %class.ap_private.11** %4, align 8, !dbg !13303
  %7 = call i1 @_ZNK10ap_privateILi54ELb1ELb1EE10isNegativeEv(%class.ap_private.11* %6), !dbg !13305
  br i1 %7, label %8, label %18, !dbg !13306

; <label>:8:                                      ; preds = %2
  %9 = load %class.ap_private.11*, %class.ap_private.11** %4, align 8, !dbg !13307
  %10 = call i64 @_ZNK10ap_privateILi54ELb1ELb1EE7get_VALEv(%class.ap_private.11* %9), !dbg !13309
  %11 = or i64 %10, -18014398509481984, !dbg !13310
  %12 = getelementptr inbounds %class.ap_private.13, %class.ap_private.13* %5, i32 0, i32 0, !dbg !13311
  %13 = getelementptr inbounds [2 x i64], [2 x i64]* %12, i64 0, i64 0, !dbg !13311
  store i64 %11, i64* %13, align 8, !dbg !13312
  %14 = getelementptr inbounds %class.ap_private.13, %class.ap_private.13* %5, i32 0, i32 0, !dbg !13313
  %15 = getelementptr inbounds [2 x i64], [2 x i64]* %14, i32 0, i32 0, !dbg !13313
  %16 = getelementptr inbounds i64, i64* %15, i64 1, !dbg !13314
  %17 = bitcast i64* %16 to i8*, !dbg !13315
  call void @llvm.memset.p0i8.i64(i8* %17, i8 -1, i64 8, i32 8, i1 false), !dbg !13315
  br label %27, !dbg !13316

; <label>:18:                                     ; preds = %2
  %19 = load %class.ap_private.11*, %class.ap_private.11** %4, align 8, !dbg !13317
  %20 = call i64 @_ZNK10ap_privateILi54ELb1ELb1EE7get_VALEv(%class.ap_private.11* %19), !dbg !13319
  %21 = getelementptr inbounds %class.ap_private.13, %class.ap_private.13* %5, i32 0, i32 0, !dbg !13320
  %22 = getelementptr inbounds [2 x i64], [2 x i64]* %21, i64 0, i64 0, !dbg !13320
  store i64 %20, i64* %22, align 8, !dbg !13321
  %23 = getelementptr inbounds %class.ap_private.13, %class.ap_private.13* %5, i32 0, i32 0, !dbg !13322
  %24 = getelementptr inbounds [2 x i64], [2 x i64]* %23, i32 0, i32 0, !dbg !13322
  %25 = getelementptr inbounds i64, i64* %24, i64 1, !dbg !13323
  %26 = bitcast i64* %25 to i8*, !dbg !13324
  call void @llvm.memset.p0i8.i64(i8* %26, i8 0, i64 8, i32 8, i1 false), !dbg !13324
  br label %27

